00000000  55                push ebp
00000001  89E5              mov ebp,esp
00000003  83EC28            sub esp,byte +0x28
00000006  FA                cli
00000007  E868270000        call dword 0x2774
0000000C  C70424781A0100    mov dword [esp],0x11a78
00000013  E8AC170000        call dword 0x17c4
00000018  E81F170000        call dword 0x173c
0000001D  C70424851A0100    mov dword [esp],0x11a85
00000024  E89B170000        call dword 0x17c4
00000029  C70424891A0100    mov dword [esp],0x11a89
00000030  E88F170000        call dword 0x17c4
00000035  E86A080000        call dword 0x8a4
0000003A  66B83800          mov ax,0x38
0000003E  0F00D8            ltr ax
00000041  66B81800          mov ax,0x18
00000045  8ED0              mov ss,ax
00000047  BCFC7F0000        mov esp,0x7ffc
0000004C  C70424851A0100    mov dword [esp],0x11a85
00000053  E86C170000        call dword 0x17c4
00000058  C70424961A0100    mov dword [esp],0x11a96
0000005F  E860170000        call dword 0x17c4
00000064  E8930A0000        call dword 0xafc
00000069  C70424851A0100    mov dword [esp],0x11a85
00000070  E84F170000        call dword 0x17c4
00000075  C70424A31A0100    mov dword [esp],0x11aa3
0000007C  E843170000        call dword 0x17c4
00000081  E8AE580000        call dword 0x5934
00000086  C70424851A0100    mov dword [esp],0x11a85
0000008D  E832170000        call dword 0x17c4
00000092  C70424B31A0100    mov dword [esp],0x11ab3
00000099  E826170000        call dword 0x17c4
0000009E  C7042400000000    mov dword [esp],0x0
000000A5  E8D6650000        call dword 0x6680
000000AA  C70424851A0100    mov dword [esp],0x11a85
000000B1  E80E170000        call dword 0x17c4
000000B6  C70424C01A0100    mov dword [esp],0x11ac0
000000BD  E802170000        call dword 0x17c4
000000C2  E8AD680000        call dword 0x6974
000000C7  C70424851A0100    mov dword [esp],0x11a85
000000CE  E8F1160000        call dword 0x17c4
000000D3  C70424CE1A0100    mov dword [esp],0x11ace
000000DA  E8E5160000        call dword 0x17c4
000000DF  E8306F0000        call dword 0x7014
000000E4  C70424851A0100    mov dword [esp],0x11a85
000000EB  E8D4160000        call dword 0x17c4
000000F0  A1AC4C0100        mov eax,[0x14cac]
000000F5  C1E00C            shl eax,0xc
000000F8  C744240800000002  mov dword [esp+0x8],0x2000000
00000100  89442404          mov [esp+0x4],eax
00000104  C70424E01A0100    mov dword [esp],0x11ae0
0000010B  E8B4160000        call dword 0x17c4
00000110  C74424082C010000  mov dword [esp+0x8],0x12c
00000118  C7442404C7810000  mov dword [esp+0x4],0x81c7
00000120  C7042400000000    mov dword [esp],0x0
00000127  E8EC160000        call dword 0x1818
0000012C  8945F4            mov [ebp-0xc],eax
0000012F  837DF4FF          cmp dword [ebp-0xc],byte -0x1
00000133  752A              jnz 0x15f
00000135  FA                cli
00000136  C7442408081E0100  mov dword [esp+0x8],0x11e08
0000013E  C74424040D1B0100  mov dword [esp+0x4],0x11b0d
00000146  C704241D1B0100    mov dword [esp],0x11b1d
0000014D  E872160000        call dword 0x17c4
00000152  C704242D1B0100    mov dword [esp],0x11b2d
00000159  E866160000        call dword 0x17c4
0000015E  F4                hlt
0000015F  8B45F4            mov eax,[ebp-0xc]
00000162  890424            mov [esp],eax
00000165  E812220000        call dword 0x237c
0000016A  FA                cli
0000016B  C7442408081E0100  mov dword [esp+0x8],0x11e08
00000173  C74424040D1B0100  mov dword [esp+0x4],0x11b0d
0000017B  C704241D1B0100    mov dword [esp],0x11b1d
00000182  E83D160000        call dword 0x17c4
00000187  C704244C1B0100    mov dword [esp],0x11b4c
0000018E  E831160000        call dword 0x17c4
00000193  F4                hlt
00000194  EBFE              jmp short 0x194
00000196  55                push ebp
00000197  89E5              mov ebp,esp
00000199  83EC28            sub esp,byte +0x28
0000019C  8D5510            lea edx,[ebp+0x10]
0000019F  8D45F4            lea eax,[ebp-0xc]
000001A2  8910              mov [eax],edx
000001A4  8B45F4            mov eax,[ebp-0xc]
000001A7  8944240C          mov [esp+0xc],eax
000001AB  8B450C            mov eax,[ebp+0xc]
000001AE  89442408          mov [esp+0x8],eax
000001B2  C74424040D000000  mov dword [esp+0x4],0xd
000001BA  8B4508            mov eax,[ebp+0x8]
000001BD  890424            mov [esp],eax
000001C0  E87B130000        call dword 0x1540
000001C5  C9                leave
000001C6  C3                ret
000001C7  55                push ebp
000001C8  89E5              mov ebp,esp
000001CA  56                push esi
000001CB  83EC40            sub esp,byte +0x40
000001CE  B86D1B0100        mov eax,0x11b6d
000001D3  8945F0            mov [ebp-0x10],eax
000001D6  B820720100        mov eax,0x17220
000001DB  8945F4            mov [ebp-0xc],eax
000001DE  C745F800000000    mov dword [ebp-0x8],0x0
000001E5  8D45F0            lea eax,[ebp-0x10]
000001E8  8945EC            mov [ebp-0x14],eax
000001EB  8D45E4            lea eax,[ebp-0x1c]
000001EE  8945E0            mov [ebp-0x20],eax
000001F1  C745D8751B0100    mov dword [ebp-0x28],0x11b75
000001F8  C745D4841B0100    mov dword [ebp-0x2c],0x11b84
000001FF  C745D000000000    mov dword [ebp-0x30],0x0
00000206  B820000000        mov eax,0x20
0000020B  8B75D0            mov esi,[ebp-0x30]
0000020E  CD80              int 0x80
00000210  8945E8            mov [ebp-0x18],eax
00000213  8B45E8            mov eax,[ebp-0x18]
00000216  83F8FF            cmp eax,byte -0x1
00000219  7516              jnz 0x231
0000021B  C745CC00000000    mov dword [ebp-0x34],0x0
00000222  B800000000        mov eax,0x0
00000227  8B75D8            mov esi,[ebp-0x28]
0000022A  CD80              int 0x80
0000022C  8945CC            mov [ebp-0x34],eax
0000022F  EBFE              jmp short 0x22f
00000231  8B45E8            mov eax,[ebp-0x18]
00000234  85C0              test eax,eax
00000236  7523              jnz 0x25b
00000238  B826000000        mov eax,0x26
0000023D  8B75EC            mov esi,[ebp-0x14]
00000240  CD80              int 0x80
00000242  8945DC            mov [ebp-0x24],eax
00000245  C745C800000000    mov dword [ebp-0x38],0x0
0000024C  B800000000        mov eax,0x0
00000251  8B75D4            mov esi,[ebp-0x2c]
00000254  CD80              int 0x80
00000256  8945C8            mov [ebp-0x38],eax
00000259  EBFE              jmp short 0x259
0000025B  B825000000        mov eax,0x25
00000260  8B75E0            mov esi,[ebp-0x20]
00000263  CD80              int 0x80
00000265  8945E8            mov [ebp-0x18],eax
00000268  EBF1              jmp short 0x25b
0000026A  55                push ebp
0000026B  89E5              mov ebp,esp
0000026D  81ECC8000000      sub esp,0xc8
00000273  C74424089A1B0100  mov dword [esp+0x8],0x11b9a
0000027B  8D45D0            lea eax,[ebp-0x30]
0000027E  89442404          mov [esp+0x4],eax
00000282  C7042400F50300    mov dword [esp],0x3f500
00000289  E8AD7E0000        call dword 0x813b
0000028E  85C0              test eax,eax
00000290  742A              jz 0x2bc
00000292  FA                cli
00000293  C7442408031E0100  mov dword [esp+0x8],0x11e03
0000029B  C74424040D1B0100  mov dword [esp+0x4],0x11b0d
000002A3  C704241D1B0100    mov dword [esp],0x11b1d
000002AA  E815150000        call dword 0x17c4
000002AF  C70424A21B0100    mov dword [esp],0x11ba2
000002B6  E809150000        call dword 0x17c4
000002BB  F4                hlt
000002BC  C7442408B91B0100  mov dword [esp+0x8],0x11bb9
000002C4  8D8558FFFFFF      lea eax,[ebp-0xa8]
000002CA  89442404          mov [esp+0x4],eax
000002CE  8D45D0            lea eax,[ebp-0x30]
000002D1  890424            mov [esp],eax
000002D4  E8627E0000        call dword 0x813b
000002D9  85C0              test eax,eax
000002DB  742A              jz 0x307
000002DD  FA                cli
000002DE  C7442408031E0100  mov dword [esp+0x8],0x11e03
000002E6  C74424040D1B0100  mov dword [esp+0x4],0x11b0d
000002EE  C704241D1B0100    mov dword [esp],0x11b1d
000002F5  E8CA140000        call dword 0x17c4
000002FA  C70424C41B0100    mov dword [esp],0x11bc4
00000301  E8BE140000        call dword 0x17c4
00000306  F4                hlt
00000307  C744240445F10100  mov dword [esp+0x4],0x1f145
0000030F  8D8558FFFFFF      lea eax,[ebp-0xa8]
00000315  890424            mov [esp],eax
00000318  E88A770000        call dword 0x7aa7
0000031D  85C0              test eax,eax
0000031F  742A              jz 0x34b
00000321  FA                cli
00000322  C7442408031E0100  mov dword [esp+0x8],0x11e03
0000032A  C74424040D1B0100  mov dword [esp+0x4],0x11b0d
00000332  C704241D1B0100    mov dword [esp],0x11b1d
00000339  E886140000        call dword 0x17c4
0000033E  C70424D91B0100    mov dword [esp],0x11bd9
00000345  E87A140000        call dword 0x17c4
0000034A  F4                hlt
0000034B  E8F86E0000        call dword 0x7248
00000350  85C0              test eax,eax
00000352  742A              jz 0x37e
00000354  FA                cli
00000355  C7442408031E0100  mov dword [esp+0x8],0x11e03
0000035D  C74424040D1B0100  mov dword [esp+0x4],0x11b0d
00000365  C704241D1B0100    mov dword [esp],0x11b1d
0000036C  E853140000        call dword 0x17c4
00000371  C70424EA1B0100    mov dword [esp],0x11bea
00000378  E847140000        call dword 0x17c4
0000037D  F4                hlt
0000037E  C70424051C0100    mov dword [esp],0x11c05
00000385  E83A140000        call dword 0x17c4
0000038A  E8F1690000        call dword 0x6d80
0000038F  85C0              test eax,eax
00000391  742A              jz 0x3bd
00000393  FA                cli
00000394  C7442408031E0100  mov dword [esp+0x8],0x11e03
0000039C  C74424040D1B0100  mov dword [esp+0x4],0x11b0d
000003A4  C704241D1B0100    mov dword [esp],0x11b1d
000003AB  E814140000        call dword 0x17c4
000003B0  C70424101C0100    mov dword [esp],0x11c10
000003B7  E808140000        call dword 0x17c4
000003BC  F4                hlt
000003BD  C70424241C0100    mov dword [esp],0x11c24
000003C4  E8FB130000        call dword 0x17c4
000003C9  EBFE              jmp short 0x3c9
000003CB  55                push ebp
000003CC  89E5              mov ebp,esp
000003CE  56                push esi
000003CF  83EC10            sub esp,byte +0x10
000003D2  C745F8311C0100    mov dword [ebp-0x8],0x11c31
000003D9  C745F400000000    mov dword [ebp-0xc],0x0
000003E0  B800000000        mov eax,0x0
000003E5  8B75F8            mov esi,[ebp-0x8]
000003E8  CD80              int 0x80
000003EA  8945F4            mov [ebp-0xc],eax
000003ED  EBEA              jmp short 0x3d9
000003EF  55                push ebp
000003F0  89E5              mov ebp,esp
000003F2  56                push esi
000003F3  83EC10            sub esp,byte +0x10
000003F6  C745F8381C0100    mov dword [ebp-0x8],0x11c38
000003FD  C745F400000000    mov dword [ebp-0xc],0x0
00000404  B800000000        mov eax,0x0
00000409  8B75F8            mov esi,[ebp-0x8]
0000040C  CD80              int 0x80
0000040E  8945F4            mov [ebp-0xc],eax
00000411  EBEA              jmp short 0x3fd
00000413  55                push ebp
00000414  89E5              mov ebp,esp
00000416  56                push esi
00000417  83EC10            sub esp,byte +0x10
0000041A  C745F83F1C0100    mov dword [ebp-0x8],0x11c3f
00000421  C745F400000000    mov dword [ebp-0xc],0x0
00000428  B800000000        mov eax,0x0
0000042D  8B75F8            mov esi,[ebp-0x8]
00000430  CD80              int 0x80
00000432  8945F4            mov [ebp-0xc],eax
00000435  EBEA              jmp short 0x421
00000437  55                push ebp
00000438  89E5              mov ebp,esp
0000043A  56                push esi
0000043B  83EC20            sub esp,byte +0x20
0000043E  C745F8461C0100    mov dword [ebp-0x8],0x11c46
00000445  C745F44E1C0100    mov dword [ebp-0xc],0x11c4e
0000044C  C745F0531C0100    mov dword [ebp-0x10],0x11c53
00000453  C745E400000000    mov dword [ebp-0x1c],0x0
0000045A  B820000000        mov eax,0x20
0000045F  8B75E4            mov esi,[ebp-0x1c]
00000462  CD80              int 0x80
00000464  8945E8            mov [ebp-0x18],eax
00000467  8B45E8            mov eax,[ebp-0x18]
0000046A  83F8FF            cmp eax,byte -0x1
0000046D  7508              jnz 0x477
0000046F  8B45F0            mov eax,[ebp-0x10]
00000472  8945EC            mov [ebp-0x14],eax
00000475  EB15              jmp short 0x48c
00000477  8B45E8            mov eax,[ebp-0x18]
0000047A  85C0              test eax,eax
0000047C  7508              jnz 0x486
0000047E  8B45F4            mov eax,[ebp-0xc]
00000481  8945EC            mov [ebp-0x14],eax
00000484  EB06              jmp short 0x48c
00000486  8B45F8            mov eax,[ebp-0x8]
00000489  8945EC            mov [ebp-0x14],eax
0000048C  C745E000000000    mov dword [ebp-0x20],0x0
00000493  B800000000        mov eax,0x0
00000498  8B75EC            mov esi,[ebp-0x14]
0000049B  CD80              int 0x80
0000049D  8945E0            mov [ebp-0x20],eax
000004A0  EBEA              jmp short 0x48c
000004A2  55                push ebp
000004A3  89E5              mov ebp,esp
000004A5  56                push esi
000004A6  83EC30            sub esp,byte +0x30
000004A9  C745F45A1C0100    mov dword [ebp-0xc],0x11c5a
000004B0  C745F0771C0100    mov dword [ebp-0x10],0x11c77
000004B7  C745E801000000    mov dword [ebp-0x18],0x1
000004BE  C745EC0F000000    mov dword [ebp-0x14],0xf
000004C5  8D45E8            lea eax,[ebp-0x18]
000004C8  8945E4            mov [ebp-0x1c],eax
000004CB  C745F800000000    mov dword [ebp-0x8],0x0
000004D2  EB18              jmp short 0x4ec
000004D4  C745DC00000000    mov dword [ebp-0x24],0x0
000004DB  B800000000        mov eax,0x0
000004E0  8B75F4            mov esi,[ebp-0xc]
000004E3  CD80              int 0x80
000004E5  8945DC            mov [ebp-0x24],eax
000004E8  8345F801          add dword [ebp-0x8],byte +0x1
000004EC  817DF8C7000000    cmp dword [ebp-0x8],0xc7
000004F3  76DF              jna 0x4d4
000004F5  B822000000        mov eax,0x22
000004FA  8B75E4            mov esi,[ebp-0x1c]
000004FD  CD80              int 0x80
000004FF  8945E0            mov [ebp-0x20],eax
00000502  C745D800000000    mov dword [ebp-0x28],0x0
00000509  B800000000        mov eax,0x0
0000050E  8B75F0            mov esi,[ebp-0x10]
00000511  CD80              int 0x80
00000513  8945D8            mov [ebp-0x28],eax
00000516  EBEA              jmp short 0x502
00000518  55                push ebp
00000519  89E5              mov ebp,esp
0000051B  56                push esi
0000051C  83EC10            sub esp,byte +0x10
0000051F  C745F8931C0100    mov dword [ebp-0x8],0x11c93
00000526  C745F400000000    mov dword [ebp-0xc],0x0
0000052D  B800000000        mov eax,0x0
00000532  8B75F8            mov esi,[ebp-0x8]
00000535  CD80              int 0x80
00000537  8945F4            mov [ebp-0xc],eax
0000053A  EBEA              jmp short 0x526
0000053C  55                push ebp
0000053D  89E5              mov ebp,esp
0000053F  56                push esi
00000540  83EC50            sub esp,byte +0x50
00000543  C745F89C1C0100    mov dword [ebp-0x8],0x11c9c
0000054A  C745F4C01C0100    mov dword [ebp-0xc],0x11cc0
00000551  C745F0E41C0100    mov dword [ebp-0x10],0x11ce4
00000558  C745EC0F1D0100    mov dword [ebp-0x14],0x11d0f
0000055F  C745DC00040040    mov dword [ebp-0x24],0x40000400
00000566  C745E000000000    mov dword [ebp-0x20],0x0
0000056D  C745E400000000    mov dword [ebp-0x1c],0x0
00000574  C745E800000000    mov dword [ebp-0x18],0x0
0000057B  C745D00F000000    mov dword [ebp-0x30],0xf
00000582  8D45DC            lea eax,[ebp-0x24]
00000585  8945D4            mov [ebp-0x2c],eax
00000588  C745D800000000    mov dword [ebp-0x28],0x0
0000058F  8D45D0            lea eax,[ebp-0x30]
00000592  8945CC            mov [ebp-0x34],eax
00000595  C745C400000000    mov dword [ebp-0x3c],0x0
0000059C  B800000000        mov eax,0x0
000005A1  8B75F8            mov esi,[ebp-0x8]
000005A4  CD80              int 0x80
000005A6  8945C4            mov [ebp-0x3c],eax
000005A9  B823000000        mov eax,0x23
000005AE  8B75CC            mov esi,[ebp-0x34]
000005B1  CD80              int 0x80
000005B3  8945C8            mov [ebp-0x38],eax
000005B6  C745C000000000    mov dword [ebp-0x40],0x0
000005BD  B800000000        mov eax,0x0
000005C2  8B75F4            mov esi,[ebp-0xc]
000005C5  CD80              int 0x80
000005C7  8945C0            mov [ebp-0x40],eax
000005CA  8B45C8            mov eax,[ebp-0x38]
000005CD  83F8FF            cmp eax,byte -0x1
000005D0  7516              jnz 0x5e8
000005D2  C745BC00000000    mov dword [ebp-0x44],0x0
000005D9  B800000000        mov eax,0x0
000005DE  8B75F0            mov esi,[ebp-0x10]
000005E1  CD80              int 0x80
000005E3  8945BC            mov [ebp-0x44],eax
000005E6  EBFE              jmp short 0x5e6
000005E8  C745B800000000    mov dword [ebp-0x48],0x0
000005EF  B800000000        mov eax,0x0
000005F4  8B75EC            mov esi,[ebp-0x14]
000005F7  CD80              int 0x80
000005F9  8945B8            mov [ebp-0x48],eax
000005FC  EBEA              jmp short 0x5e8
000005FE  55                push ebp
000005FF  89E5              mov ebp,esp
00000601  56                push esi
00000602  83EC10            sub esp,byte +0x10
00000605  C745F8161D0100    mov dword [ebp-0x8],0x11d16
0000060C  C745F400000000    mov dword [ebp-0xc],0x0
00000613  B800000000        mov eax,0x0
00000618  8B75F8            mov esi,[ebp-0x8]
0000061B  CD80              int 0x80
0000061D  8945F4            mov [ebp-0xc],eax
00000620  EBEA              jmp short 0x60c
00000622  55                push ebp
00000623  89E5              mov ebp,esp
00000625  56                push esi
00000626  83EC50            sub esp,byte +0x50
00000629  C745F8201D0100    mov dword [ebp-0x8],0x11d20
00000630  C745F4481D0100    mov dword [ebp-0xc],0x11d48
00000637  C745F06C1D0100    mov dword [ebp-0x10],0x11d6c
0000063E  C745EC9A1D0100    mov dword [ebp-0x14],0x11d9a
00000645  C745DC00040040    mov dword [ebp-0x24],0x40000400
0000064C  C745E000000000    mov dword [ebp-0x20],0x0
00000653  C745E400000000    mov dword [ebp-0x1c],0x0
0000065A  C745E800000000    mov dword [ebp-0x18],0x0
00000661  C745D00F000000    mov dword [ebp-0x30],0xf
00000668  8D45DC            lea eax,[ebp-0x24]
0000066B  8945D4            mov [ebp-0x2c],eax
0000066E  C745D800000000    mov dword [ebp-0x28],0x0
00000675  8D45D0            lea eax,[ebp-0x30]
00000678  8945CC            mov [ebp-0x34],eax
0000067B  C745C400000000    mov dword [ebp-0x3c],0x0
00000682  B800000000        mov eax,0x0
00000687  8B75F8            mov esi,[ebp-0x8]
0000068A  CD80              int 0x80
0000068C  8945C4            mov [ebp-0x3c],eax
0000068F  B823000000        mov eax,0x23
00000694  8B75CC            mov esi,[ebp-0x34]
00000697  CD80              int 0x80
00000699  8945C8            mov [ebp-0x38],eax
0000069C  C745C000000000    mov dword [ebp-0x40],0x0
000006A3  B800000000        mov eax,0x0
000006A8  8B75F4            mov esi,[ebp-0xc]
000006AB  CD80              int 0x80
000006AD  8945C0            mov [ebp-0x40],eax
000006B0  8B45C8            mov eax,[ebp-0x38]
000006B3  83F8FF            cmp eax,byte -0x1
000006B6  7516              jnz 0x6ce
000006B8  C745BC00000000    mov dword [ebp-0x44],0x0
000006BF  B800000000        mov eax,0x0
000006C4  8B75F0            mov esi,[ebp-0x10]
000006C7  CD80              int 0x80
000006C9  8945BC            mov [ebp-0x44],eax
000006CC  EBFE              jmp short 0x6cc
000006CE  C745B800000000    mov dword [ebp-0x48],0x0
000006D5  B800000000        mov eax,0x0
000006DA  8B75EC            mov esi,[ebp-0x14]
000006DD  CD80              int 0x80
000006DF  8945B8            mov [ebp-0x48],eax
000006E2  EBEA              jmp short 0x6ce
000006E4  55                push ebp
000006E5  89E5              mov ebp,esp
000006E7  56                push esi
000006E8  83EC10            sub esp,byte +0x10
000006EB  C745F4A41D0100    mov dword [ebp-0xc],0x11da4
000006F2  C745F800000000    mov dword [ebp-0x8],0x0
000006F9  EB18              jmp short 0x713
000006FB  C745F000000000    mov dword [ebp-0x10],0x0
00000702  B800000000        mov eax,0x0
00000707  8B75F4            mov esi,[ebp-0xc]
0000070A  CD80              int 0x80
0000070C  8945F0            mov [ebp-0x10],eax
0000070F  8345F801          add dword [ebp-0x8],byte +0x1
00000713  837DF863          cmp dword [ebp-0x8],byte +0x63
00000717  76E2              jna 0x6fb
00000719  83C410            add esp,byte +0x10
0000071C  5E                pop esi
0000071D  5D                pop ebp
0000071E  C3                ret
0000071F  55                push ebp
00000720  89E5              mov ebp,esp
00000722  56                push esi
00000723  83EC10            sub esp,byte +0x10
00000726  C745F8AE1D0100    mov dword [ebp-0x8],0x11dae
0000072D  C745F400000000    mov dword [ebp-0xc],0x0
00000734  B800000000        mov eax,0x0
00000739  8B75F8            mov esi,[ebp-0x8]
0000073C  CD80              int 0x80
0000073E  8945F4            mov [ebp-0xc],eax
00000741  EBEA              jmp short 0x72d
00000743  55                push ebp
00000744  89E5              mov ebp,esp
00000746  56                push esi
00000747  83EC10            sub esp,byte +0x10
0000074A  C745F8B51D0100    mov dword [ebp-0x8],0x11db5
00000751  C745F400000000    mov dword [ebp-0xc],0x0
00000758  B800000000        mov eax,0x0
0000075D  8B75F8            mov esi,[ebp-0x8]
00000760  CD80              int 0x80
00000762  8945F4            mov [ebp-0xc],eax
00000765  EBEA              jmp short 0x751
00000767  55                push ebp
00000768  89E5              mov ebp,esp
0000076A  56                push esi
0000076B  83EC10            sub esp,byte +0x10
0000076E  C745F8BD1D0100    mov dword [ebp-0x8],0x11dbd
00000775  C745F400000000    mov dword [ebp-0xc],0x0
0000077C  B800000000        mov eax,0x0
00000781  8B75F8            mov esi,[ebp-0x8]
00000784  CD80              int 0x80
00000786  8945F4            mov [ebp-0xc],eax
00000789  EBEA              jmp short 0x775
0000078B  55                push ebp
0000078C  89E5              mov ebp,esp
0000078E  56                push esi
0000078F  83EC40            sub esp,byte +0x40
00000792  C745F8C51D0100    mov dword [ebp-0x8],0x11dc5
00000799  C745F4D11D0100    mov dword [ebp-0xc],0x11dd1
000007A0  C745F0ED1D0100    mov dword [ebp-0x10],0x11ded
000007A7  C745ECF91D0100    mov dword [ebp-0x14],0x11df9
000007AE  8D45E8            lea eax,[ebp-0x18]
000007B1  8945E4            mov [ebp-0x1c],eax
000007B4  8D45E0            lea eax,[ebp-0x20]
000007B7  8945DC            mov [ebp-0x24],eax
000007BA  C745D800000000    mov dword [ebp-0x28],0x0
000007C1  B800000000        mov eax,0x0
000007C6  8B75F8            mov esi,[ebp-0x8]
000007C9  CD80              int 0x80
000007CB  8945D8            mov [ebp-0x28],eax
000007CE  B825000000        mov eax,0x25
000007D3  8B75E4            mov esi,[ebp-0x1c]
000007D6  CD80              int 0x80
000007D8  8945E0            mov [ebp-0x20],eax
000007DB  C745D400000000    mov dword [ebp-0x2c],0x0
000007E2  B800000000        mov eax,0x0
000007E7  8B75F4            mov esi,[ebp-0xc]
000007EA  CD80              int 0x80
000007EC  8945D4            mov [ebp-0x2c],eax
000007EF  C745D000000000    mov dword [ebp-0x30],0x0
000007F6  B801000000        mov eax,0x1
000007FB  8B75DC            mov esi,[ebp-0x24]
000007FE  CD80              int 0x80
00000800  8945D0            mov [ebp-0x30],eax
00000803  8D45E8            lea eax,[ebp-0x18]
00000806  8945DC            mov [ebp-0x24],eax
00000809  C745CC00000000    mov dword [ebp-0x34],0x0
00000810  B800000000        mov eax,0x0
00000815  8B75F0            mov esi,[ebp-0x10]
00000818  CD80              int 0x80
0000081A  8945CC            mov [ebp-0x34],eax
0000081D  C745C800000000    mov dword [ebp-0x38],0x0
00000824  B801000000        mov eax,0x1
00000829  8B75DC            mov esi,[ebp-0x24]
0000082C  CD80              int 0x80
0000082E  8945C8            mov [ebp-0x38],eax
00000831  C745C400000000    mov dword [ebp-0x3c],0x0
00000838  B800000000        mov eax,0x0
0000083D  8B75EC            mov esi,[ebp-0x14]
00000840  CD80              int 0x80
00000842  8945C4            mov [ebp-0x3c],eax
00000845  EBFE              jmp short 0x845
00000847  55                push ebp
00000848  89E5              mov ebp,esp
0000084A  56                push esi
0000084B  83EC20            sub esp,byte +0x20
0000084E  C745F4FB1D0100    mov dword [ebp-0xc],0x11dfb
00000855  C745F0FFFFFFFF    mov dword [ebp-0x10],0xffffffff
0000085C  8D45F0            lea eax,[ebp-0x10]
0000085F  8945EC            mov [ebp-0x14],eax
00000862  C745F800000000    mov dword [ebp-0x8],0x0
00000869  EB18              jmp short 0x883
0000086B  C745E800000000    mov dword [ebp-0x18],0x0
00000872  B800000000        mov eax,0x0
00000877  8B75F4            mov esi,[ebp-0xc]
0000087A  CD80              int 0x80
0000087C  8945E8            mov [ebp-0x18],eax
0000087F  8345F801          add dword [ebp-0x8],byte +0x1
00000883  837DF863          cmp dword [ebp-0x8],byte +0x63
00000887  76E2              jna 0x86b
00000889  C745E400000000    mov dword [ebp-0x1c],0x0
00000890  B824000000        mov eax,0x24
00000895  8B75EC            mov esi,[ebp-0x14]
00000898  CD80              int 0x80
0000089A  8945E4            mov [ebp-0x1c],eax
0000089D  83C420            add esp,byte +0x20
000008A0  5E                pop esi
000008A1  5D                pop ebp
000008A2  C3                ret
000008A3  005589            add [ebp-0x77],dl
000008A6  E583              in eax,0x83
000008A8  EC                in al,dx
000008A9  28C7              sub bh,al
000008AB  44                inc esp
000008AC  2410              and al,0x10
000008AE  0000              add [eax],al
000008B0  0000              add [eax],al
000008B2  C744240C00000000  mov dword [esp+0xc],0x0
000008BA  C744240800000000  mov dword [esp+0x8],0x0
000008C2  C744240400000000  mov dword [esp+0x4],0x0
000008CA  C7042480F00300    mov dword [esp],0x3f080
000008D1  E892010000        call dword 0xa68
000008D6  C74424100C000000  mov dword [esp+0x10],0xc
000008DE  C744240C9B000000  mov dword [esp+0xc],0x9b
000008E6  C7442408FFFF0F00  mov dword [esp+0x8],0xfffff
000008EE  C744240400000000  mov dword [esp+0x4],0x0
000008F6  C7042488F00300    mov dword [esp],0x3f088
000008FD  E866010000        call dword 0xa68
00000902  C74424100C000000  mov dword [esp+0x10],0xc
0000090A  C744240C93000000  mov dword [esp+0xc],0x93
00000912  C7442408FFFF0F00  mov dword [esp+0x8],0xfffff
0000091A  C744240400000000  mov dword [esp+0x4],0x0
00000922  C7042490F00300    mov dword [esp],0x3f090
00000929  E83A010000        call dword 0xa68
0000092E  C74424100C000000  mov dword [esp+0x10],0xc
00000936  C744240C97000000  mov dword [esp+0xc],0x97
0000093E  C744240800000000  mov dword [esp+0x8],0x0
00000946  C744240400000000  mov dword [esp+0x4],0x0
0000094E  C7042498F00300    mov dword [esp],0x3f098
00000955  E80E010000        call dword 0xa68
0000095A  C74424100C000000  mov dword [esp+0x10],0xc
00000962  C744240CFF000000  mov dword [esp+0xc],0xff
0000096A  C7442408FFFF0F00  mov dword [esp+0x8],0xfffff
00000972  C744240400000000  mov dword [esp+0x4],0x0
0000097A  C70424A0F00300    mov dword [esp],0x3f0a0
00000981  E8E2000000        call dword 0xa68
00000986  C74424100C000000  mov dword [esp+0x10],0xc
0000098E  C744240CF3000000  mov dword [esp+0xc],0xf3
00000996  C7442408FFFF0F00  mov dword [esp+0x8],0xfffff
0000099E  C744240400000000  mov dword [esp+0x4],0x0
000009A6  C70424A8F00300    mov dword [esp],0x3f0a8
000009AD  E8B6000000        call dword 0xa68
000009B2  C74424100C000000  mov dword [esp+0x10],0xc
000009BA  C744240CF7000000  mov dword [esp+0xc],0xf7
000009C2  C744240800000000  mov dword [esp+0x8],0x0
000009CA  C744240400000000  mov dword [esp+0x4],0x0
000009D2  C70424B0F00300    mov dword [esp],0x3f0b0
000009D9  E88A000000        call dword 0xa68
000009DE  66C70564F0030000  mov word [dword 0x3f064],0x0
         -00
000009E7  66C70566F0030000  mov word [dword 0x3f066],0x0
         -00
000009F0  C70504F00300FC6F  mov dword [dword 0x3f004],0x6ffc
         -0000
000009FA  66C70508F0030018  mov word [dword 0x3f008],0x18
         -00
00000A03  B800F00300        mov eax,0x3f000
00000A08  C744241000000000  mov dword [esp+0x10],0x0
00000A10  C744240CE9000000  mov dword [esp+0xc],0xe9
00000A18  C744240867000000  mov dword [esp+0x8],0x67
00000A20  89442404          mov [esp+0x4],eax
00000A24  C70424B8F00300    mov dword [esp],0x3f0b8
00000A2B  E838000000        call dword 0xa68
00000A30  C744240840000000  mov dword [esp+0x8],0x40
00000A38  C744240480F00300  mov dword [esp+0x4],0x3f080
00000A40  C7042400000000    mov dword [esp],0x0
00000A47  E8C4080000        call dword 0x1310
00000A4C  0F011560460100    lgdt [dword 0x14660]
00000A53  66B81000          mov ax,0x10
00000A57  8ED8              mov ds,ax
00000A59  8EC0              mov es,ax
00000A5B  8EE0              mov fs,ax
00000A5D  8EE8              mov gs,ax
00000A5F  EA668A00000800    jmp dword 0x8:0x8a66
00000A66  C9                leave
00000A67  C3                ret
00000A68  55                push ebp
00000A69  89E5              mov ebp,esp
00000A6B  83EC08            sub esp,byte +0x8
00000A6E  8B5514            mov edx,[ebp+0x14]
00000A71  8B4518            mov eax,[ebp+0x18]
00000A74  8855FC            mov [ebp-0x4],dl
00000A77  8845F8            mov [ebp-0x8],al
00000A7A  8B450C            mov eax,[ebp+0xc]
00000A7D  89C2              mov edx,eax
00000A7F  8B4508            mov eax,[ebp+0x8]
00000A82  66895002          mov [eax+0x2],dx
00000A86  8B450C            mov eax,[ebp+0xc]
00000A89  C1E810            shr eax,0x10
00000A8C  89C2              mov edx,eax
00000A8E  8B4508            mov eax,[ebp+0x8]
00000A91  885004            mov [eax+0x4],dl
00000A94  8B450C            mov eax,[ebp+0xc]
00000A97  C1E818            shr eax,0x18
00000A9A  89C2              mov edx,eax
00000A9C  8B4508            mov eax,[ebp+0x8]
00000A9F  885007            mov [eax+0x7],dl
00000AA2  8B4510            mov eax,[ebp+0x10]
00000AA5  89C2              mov edx,eax
00000AA7  8B4508            mov eax,[ebp+0x8]
00000AAA  668910            mov [eax],dx
00000AAD  8B4510            mov eax,[ebp+0x10]
00000AB0  C1E810            shr eax,0x10
00000AB3  83E00F            and eax,byte +0xf
00000AB6  83E00F            and eax,byte +0xf
00000AB9  83E00F            and eax,byte +0xf
00000ABC  8B5508            mov edx,[ebp+0x8]
00000ABF  89C1              mov ecx,eax
00000AC1  83E10F            and ecx,byte +0xf
00000AC4  0FB64206          movzx eax,byte [edx+0x6]
00000AC8  83E0F0            and eax,byte -0x10
00000ACB  09C8              or eax,ecx
00000ACD  884206            mov [edx+0x6],al
00000AD0  8B4508            mov eax,[ebp+0x8]
00000AD3  0FB655FC          movzx edx,byte [ebp-0x4]
00000AD7  885005            mov [eax+0x5],dl
00000ADA  0FB645F8          movzx eax,byte [ebp-0x8]
00000ADE  89C2              mov edx,eax
00000AE0  83E20F            and edx,byte +0xf
00000AE3  8B4508            mov eax,[ebp+0x8]
00000AE6  89D1              mov ecx,edx
00000AE8  C1E104            shl ecx,0x4
00000AEB  0FB65006          movzx edx,byte [eax+0x6]
00000AEF  83E20F            and edx,byte +0xf
00000AF2  09CA              or edx,ecx
00000AF4  885006            mov [eax+0x6],dl
00000AF7  C9                leave
00000AF8  C3                ret
00000AF9  0000              add [eax],al
00000AFB  005589            add [ebp-0x77],dl
00000AFE  E583              in eax,0x83
00000B00  EC                in al,dx
00000B01  38C6              cmp dh,al
00000B03  45                inc ebp
00000B04  F700EB3AB820      test dword [eax],0x20b83aeb
00000B0A  92                xchg eax,edx
00000B0B  0000              add [eax],al
00000B0D  0FB655F7          movzx edx,byte [ebp-0x9]
00000B11  C1E203            shl edx,0x3
00000B14  81C240720100      add edx,0x17240
00000B1A  C744241008000000  mov dword [esp+0x10],0x8
00000B22  C744240C08000000  mov dword [esp+0xc],0x8
00000B2A  C74424080E000000  mov dword [esp+0x8],0xe
00000B32  89442404          mov [esp+0x4],eax
00000B36  891424            mov [esp],edx
00000B39  E8F6010000        call dword 0xd34
00000B3E  8045F701          add byte [ebp-0x9],0x1
00000B42  807DF710          cmp byte [ebp-0x9],0x10
00000B46  76C0              jna 0xb08
00000B48  B838920000        mov eax,0x9238
00000B4D  C744241008000000  mov dword [esp+0x10],0x8
00000B55  C744240C08000000  mov dword [esp+0xc],0x8
00000B5D  C74424080E000000  mov dword [esp+0x8],0xe
00000B65  89442404          mov [esp+0x4],eax
00000B69  C70424B0720100    mov dword [esp],0x172b0
00000B70  E8BF010000        call dword 0xd34
00000B75  C645F720          mov byte [ebp-0x9],0x20
00000B79  EB3A              jmp short 0xbb5
00000B7B  B850920000        mov eax,0x9250
00000B80  0FB655F7          movzx edx,byte [ebp-0x9]
00000B84  C1E203            shl edx,0x3
00000B87  81C240720100      add edx,0x17240
00000B8D  C744241008000000  mov dword [esp+0x10],0x8
00000B95  C744240C08000000  mov dword [esp+0xc],0x8
00000B9D  C74424080E000000  mov dword [esp+0x8],0xe
00000BA5  89442404          mov [esp+0x4],eax
00000BA9  891424            mov [esp],edx
00000BAC  E883010000        call dword 0xd34
00000BB1  8045F701          add byte [ebp-0x9],0x1
00000BB5  807DF727          cmp byte [ebp-0x9],0x27
00000BB9  76C0              jna 0xb7b
00000BBB  C645F770          mov byte [ebp-0x9],0x70
00000BBF  EB3A              jmp short 0xbfb
00000BC1  B864920000        mov eax,0x9264
00000BC6  0FB655F7          movzx edx,byte [ebp-0x9]
00000BCA  C1E203            shl edx,0x3
00000BCD  81C240720100      add edx,0x17240
00000BD3  C744241008000000  mov dword [esp+0x10],0x8
00000BDB  C744240C08000000  mov dword [esp+0xc],0x8
00000BE3  C74424080E000000  mov dword [esp+0x8],0xe
00000BEB  89442404          mov [esp+0x4],eax
00000BEF  891424            mov [esp],edx
00000BF2  E83D010000        call dword 0xd34
00000BF7  8045F701          add byte [ebp-0x9],0x1
00000BFB  807DF777          cmp byte [ebp-0x9],0x77
00000BFF  76C0              jna 0xbc1
00000C01  B878920000        mov eax,0x9278
00000C06  C744241008000000  mov dword [esp+0x10],0x8
00000C0E  C744240C08000000  mov dword [esp+0xc],0x8
00000C16  C74424080E000000  mov dword [esp+0x8],0xe
00000C1E  89442404          mov [esp+0x4],eax
00000C22  C7042440730100    mov dword [esp],0x17340
00000C29  E806010000        call dword 0xd34
00000C2E  B890920000        mov eax,0x9290
00000C33  C744241008000000  mov dword [esp+0x10],0x8
00000C3B  C744240C08000000  mov dword [esp+0xc],0x8
00000C43  C74424080E000000  mov dword [esp+0x8],0xe
00000C4B  89442404          mov [esp+0x4],eax
00000C4F  C7042448730100    mov dword [esp],0x17348
00000C56  E8D9000000        call dword 0xd34
00000C5B  B8A8920000        mov eax,0x92a8
00000C60  C744241008000000  mov dword [esp+0x10],0x8
00000C68  C744240C08000000  mov dword [esp+0xc],0x8
00000C70  C74424080E000000  mov dword [esp+0x8],0xe
00000C78  89442404          mov [esp+0x4],eax
00000C7C  C70424C8750100    mov dword [esp],0x175c8
00000C83  E8AC000000        call dword 0xd34
00000C88  B8C4920000        mov eax,0x92c4
00000C8D  C744241008000000  mov dword [esp+0x10],0x8
00000C95  C744240C08000000  mov dword [esp+0xc],0x8
00000C9D  C74424080E000000  mov dword [esp+0x8],0xe
00000CA5  89442404          mov [esp+0x4],eax
00000CA9  C70424D0750100    mov dword [esp],0x175d0
00000CB0  E87F000000        call dword 0xd34
00000CB5  B8E0920000        mov eax,0x92e0
00000CBA  C744241008000000  mov dword [esp+0x10],0x8
00000CC2  C744240C08000000  mov dword [esp+0xc],0x8
00000CCA  C74424080E000000  mov dword [esp+0x8],0xe
00000CD2  89442404          mov [esp+0x4],eax
00000CD6  C70424D8750100    mov dword [esp],0x175d8
00000CDD  E852000000        call dword 0xd34
00000CE2  B8FC920000        mov eax,0x92fc
00000CE7  C744241008000000  mov dword [esp+0x10],0x8
00000CEF  C744240C0E000000  mov dword [esp+0xc],0xe
00000CF7  C74424080F000000  mov dword [esp+0x8],0xf
00000CFF  89442404          mov [esp+0x4],eax
00000D03  C7042440760100    mov dword [esp],0x17640
00000D0A  E825000000        call dword 0xd34
00000D0F  C744240800080000  mov dword [esp+0x8],0x800
00000D17  C744240440720100  mov dword [esp+0x4],0x17240
00000D1F  C7042400080000    mov dword [esp],0x800
00000D26  E8E5050000        call dword 0x1310
00000D2B  0F011D68460100    lidt [dword 0x14668]
00000D32  C9                leave
00000D33  C3                ret
00000D34  55                push ebp
00000D35  89E5              mov ebp,esp
00000D37  83EC0C            sub esp,byte +0xc
00000D3A  8B4D10            mov ecx,[ebp+0x10]
00000D3D  8B5514            mov edx,[ebp+0x14]
00000D40  8B4518            mov eax,[ebp+0x18]
00000D43  884DFC            mov [ebp-0x4],cl
00000D46  8855F8            mov [ebp-0x8],dl
00000D49  668945F4          mov [ebp-0xc],ax
00000D4D  8B450C            mov eax,[ebp+0xc]
00000D50  89C2              mov edx,eax
00000D52  8B4508            mov eax,[ebp+0x8]
00000D55  668910            mov [eax],dx
00000D58  8B450C            mov eax,[ebp+0xc]
00000D5B  C1E810            shr eax,0x10
00000D5E  89C2              mov edx,eax
00000D60  8B4508            mov eax,[ebp+0x8]
00000D63  66895006          mov [eax+0x6],dx
00000D67  0FB645FC          movzx eax,byte [ebp-0x4]
00000D6B  89C2              mov edx,eax
00000D6D  83E20F            and edx,byte +0xf
00000D70  8B4508            mov eax,[ebp+0x8]
00000D73  89D1              mov ecx,edx
00000D75  83E10F            and ecx,byte +0xf
00000D78  0FB65005          movzx edx,byte [eax+0x5]
00000D7C  83E2F0            and edx,byte -0x10
00000D7F  09CA              or edx,ecx
00000D81  885005            mov [eax+0x5],dl
00000D84  0FB645F8          movzx eax,byte [ebp-0x8]
00000D88  89C2              mov edx,eax
00000D8A  83E20F            and edx,byte +0xf
00000D8D  8B4508            mov eax,[ebp+0x8]
00000D90  89D1              mov ecx,edx
00000D92  C1E104            shl ecx,0x4
00000D95  0FB65005          movzx edx,byte [eax+0x5]
00000D99  83E20F            and edx,byte +0xf
00000D9C  09CA              or edx,ecx
00000D9E  885005            mov [eax+0x5],dl
00000DA1  8B4508            mov eax,[ebp+0x8]
00000DA4  0FB755F4          movzx edx,word [ebp-0xc]
00000DA8  66895002          mov [eax+0x2],dx
00000DAC  8B4508            mov eax,[ebp+0x8]
00000DAF  C6400400          mov byte [eax+0x4],0x0
00000DB3  C9                leave
00000DB4  C3                ret
00000DB5  0000              add [eax],al
00000DB7  005589            add [ebp-0x77],dl
00000DBA  E583              in eax,0x83
00000DBC  EC                in al,dx
00000DBD  18FA              sbb dl,bh
00000DBF  C7442408E11F0100  mov dword [esp+0x8],0x11fe1
00000DC7  C7442404DA1E0100  mov dword [esp+0x4],0x11eda
00000DCF  C70424E71E0100    mov dword [esp],0x11ee7
00000DD6  E8E9090000        call dword 0x17c4
00000DDB  C70424F71E0100    mov dword [esp],0x11ef7
00000DE2  E8DD090000        call dword 0x17c4
00000DE7  F4                hlt
00000DE8  C9                leave
00000DE9  C3                ret
00000DEA  55                push ebp
00000DEB  89E5              mov ebp,esp
00000DED  83EC38            sub esp,byte +0x38
00000DF0  0F20D0            mov eax,cr2
00000DF3  8945E4            mov [ebp-0x1c],eax
00000DF6  8B4538            mov eax,[ebp+0x38]
00000DF9  8945E8            mov [ebp-0x18],eax
00000DFC  8B45E4            mov eax,[ebp-0x1c]
00000DFF  3DFFFFFF3F        cmp eax,0x3fffffff
00000E04  760A              jna 0xe10
00000E06  8B45E4            mov eax,[ebp-0x1c]
00000E09  3DFFFFBFFF        cmp eax,0xffbfffff
00000E0E  7617              jna 0xe27
00000E10  A180AA0300        mov eax,[0x3aa80]
00000E15  C74424040B000000  mov dword [esp+0x4],0xb
00000E1D  890424            mov [esp],eax
00000E20  E853360000        call dword 0x4478
00000E25  EB39              jmp short 0xe60
00000E27  8B45E8            mov eax,[ebp-0x18]
00000E2A  83F807            cmp eax,byte +0x7
00000E2D  7631              jna 0xe60
00000E2F  FA                cli
00000E30  C7442408D51F0100  mov dword [esp+0x8],0x11fd5
00000E38  C7442404DA1E0100  mov dword [esp+0x4],0x11eda
00000E40  C70424E71E0100    mov dword [esp],0x11ee7
00000E47  E878090000        call dword 0x17c4
00000E4C  8B45E8            mov eax,[ebp-0x18]
00000E4F  89442404          mov [esp+0x4],eax
00000E53  C70424011F0100    mov dword [esp],0x11f01
00000E5A  E865090000        call dword 0x17c4
00000E5F  F4                hlt
00000E60  8B45E4            mov eax,[ebp-0x1c]
00000E63  C1E80C            shr eax,0xc
00000E66  8945F4            mov [ebp-0xc],eax
00000E69  8B45E8            mov eax,[ebp-0x18]
00000E6C  83E001            and eax,byte +0x1
00000E6F  84C0              test al,al
00000E71  0F84DE000000      jz dword 0xf55
00000E77  8B45E8            mov eax,[ebp-0x18]
00000E7A  85C0              test eax,eax
00000E7C  0F84D3000000      jz dword 0xf55
00000E82  C70424171F0100    mov dword [esp],0x11f17
00000E89  E836090000        call dword 0x17c4
00000E8E  E8994D0000        call dword 0x5c2c
00000E93  8945F0            mov [ebp-0x10],eax
00000E96  837DF000          cmp dword [ebp-0x10],byte +0x0
00000E9A  752A              jnz 0xec6
00000E9C  FA                cli
00000E9D  C7442408D51F0100  mov dword [esp+0x8],0x11fd5
00000EA5  C7442404DA1E0100  mov dword [esp+0x4],0x11eda
00000EAD  C70424E71E0100    mov dword [esp],0x11ee7
00000EB4  E80B090000        call dword 0x17c4
00000EB9  C70424261F0100    mov dword [esp],0x11f26
00000EC0  E8FF080000        call dword 0x17c4
00000EC5  F4                hlt
00000EC6  8B45F4            mov eax,[ebp-0xc]
00000EC9  C1E00C            shl eax,0xc
00000ECC  8945EC            mov [ebp-0x14],eax
00000ECF  C744240800100000  mov dword [esp+0x8],0x1000
00000ED7  8B45EC            mov eax,[ebp-0x14]
00000EDA  89442404          mov [esp+0x4],eax
00000EDE  C70424607A0100    mov dword [esp],0x17a60
00000EE5  E826040000        call dword 0x1310
00000EEA  8B45F4            mov eax,[ebp-0xc]
00000EED  890424            mov [esp],eax
00000EF0  E84C500000        call dword 0x5f41
00000EF5  8B45F4            mov eax,[ebp-0xc]
00000EF8  89442404          mov [esp+0x4],eax
00000EFC  8B45F0            mov eax,[ebp-0x10]
00000EFF  890424            mov [esp],eax
00000F02  E8814E0000        call dword 0x5d88
00000F07  85C0              test eax,eax
00000F09  742A              jz 0xf35
00000F0B  FA                cli
00000F0C  C7442408D51F0100  mov dword [esp+0x8],0x11fd5
00000F14  C7442404DA1E0100  mov dword [esp+0x4],0x11eda
00000F1C  C70424E71E0100    mov dword [esp],0x11ee7
00000F23  E89C080000        call dword 0x17c4
00000F28  C70424401F0100    mov dword [esp],0x11f40
00000F2F  E890080000        call dword 0x17c4
00000F34  F4                hlt
00000F35  C744240800100000  mov dword [esp+0x8],0x1000
00000F3D  C7442404607A0100  mov dword [esp+0x4],0x17a60
00000F45  8B45EC            mov eax,[ebp-0x14]
00000F48  890424            mov [esp],eax
00000F4B  E8C0030000        call dword 0x1310
00000F50  E9AE000000        jmp dword 0x1003
00000F55  8B45E8            mov eax,[ebp-0x18]
00000F58  83E001            and eax,byte +0x1
00000F5B  84C0              test al,al
00000F5D  742C              jz 0xf8b
00000F5F  FA                cli
00000F60  C7442408D51F0100  mov dword [esp+0x8],0x11fd5
00000F68  C7442404DA1E0100  mov dword [esp+0x4],0x11eda
00000F70  C70424E71E0100    mov dword [esp],0x11ee7
00000F77  E848080000        call dword 0x17c4
00000F7C  C704246D1F0100    mov dword [esp],0x11f6d
00000F83  E83C080000        call dword 0x17c4
00000F88  F4                hlt
00000F89  EB78              jmp short 0x1003
00000F8B  E89C4C0000        call dword 0x5c2c
00000F90  8945F0            mov [ebp-0x10],eax
00000F93  837DF000          cmp dword [ebp-0x10],byte +0x0
00000F97  752A              jnz 0xfc3
00000F99  FA                cli
00000F9A  C7442408D51F0100  mov dword [esp+0x8],0x11fd5
00000FA2  C7442404DA1E0100  mov dword [esp+0x4],0x11eda
00000FAA  C70424E71E0100    mov dword [esp],0x11ee7
00000FB1  E80E080000        call dword 0x17c4
00000FB6  C70424261F0100    mov dword [esp],0x11f26
00000FBD  E802080000        call dword 0x17c4
00000FC2  F4                hlt
00000FC3  8B45F4            mov eax,[ebp-0xc]
00000FC6  89442404          mov [esp+0x4],eax
00000FCA  8B45F0            mov eax,[ebp-0x10]
00000FCD  890424            mov [esp],eax
00000FD0  E8B34D0000        call dword 0x5d88
00000FD5  85C0              test eax,eax
00000FD7  742A              jz 0x1003
00000FD9  FA                cli
00000FDA  C7442408D51F0100  mov dword [esp+0x8],0x11fd5
00000FE2  C7442404DA1E0100  mov dword [esp+0x4],0x11eda
00000FEA  C70424E71E0100    mov dword [esp],0x11ee7
00000FF1  E8CE070000        call dword 0x17c4
00000FF6  C70424401F0100    mov dword [esp],0x11f40
00000FFD  E8C2070000        call dword 0x17c4
00001002  F4                hlt
00001003  C9                leave
00001004  C3                ret
00001005  55                push ebp
00001006  89E5              mov ebp,esp
00001008  83EC18            sub esp,byte +0x18
0000100B  C704248A1F0100    mov dword [esp],0x11f8a
00001012  E8AD070000        call dword 0x17c4
00001017  C9                leave
00001018  C3                ret
00001019  55                push ebp
0000101A  89E5              mov ebp,esp
0000101C  83EC18            sub esp,byte +0x18
0000101F  C70424941F0100    mov dword [esp],0x11f94
00001026  E899070000        call dword 0x17c4
0000102B  C9                leave
0000102C  C3                ret
0000102D  55                push ebp
0000102E  89E5              mov ebp,esp
00001030  83EC08            sub esp,byte +0x8
00001033  E8F00F0000        call dword 0x2028
00001038  C9                leave
00001039  C3                ret
0000103A  55                push ebp
0000103B  89E5              mov ebp,esp
0000103D  53                push ebx
0000103E  83EC34            sub esp,byte +0x34
00001041  C745E460000000    mov dword [ebp-0x1c],0x60
00001048  8B55E4            mov edx,[ebp-0x1c]
0000104B  EC                in al,dx
0000104C  89C3              mov ebx,eax
0000104E  885DF7            mov [ebp-0x9],bl
00001051  0FB645F7          movzx eax,byte [ebp-0x9]
00001055  8845F6            mov [ebp-0xa],al
00001058  807DF680          cmp byte [ebp-0xa],0x80
0000105C  0F8729010000      ja dword 0x118b
00001062  807DF62A          cmp byte [ebp-0xa],0x2a
00001066  750F              jnz 0x1077
00001068  C705407A01000100  mov dword [dword 0x17a40],0x1
         -0000
00001072  E95E010000        jmp dword 0x11d5
00001077  807DF636          cmp byte [ebp-0xa],0x36
0000107B  750F              jnz 0x108c
0000107D  C705447A01000200  mov dword [dword 0x17a44],0x2
         -0000
00001087  E949010000        jmp dword 0x11d5
0000108C  807DF61D          cmp byte [ebp-0xa],0x1d
00001090  750F              jnz 0x10a1
00001092  C705487A01000300  mov dword [dword 0x17a48],0x3
         -0000
0000109C  E934010000        jmp dword 0x11d5
000010A1  807DF638          cmp byte [ebp-0xa],0x38
000010A5  750F              jnz 0x10b6
000010A7  C7054C7A01000400  mov dword [dword 0x17a4c],0x4
         -0000
000010B1  E91F010000        jmp dword 0x11d5
000010B6  807DF62C          cmp byte [ebp-0xa],0x2c
000010BA  751A              jnz 0x10d6
000010BC  A1487A0100        mov eax,[0x17a48]
000010C1  85C0              test eax,eax
000010C3  7411              jz 0x10d6
000010C5  C704249E1F0100    mov dword [esp],0x11f9e
000010CC  E8F3060000        call dword 0x17c4
000010D1  E9FF000000        jmp dword 0x11d5
000010D6  807DF62E          cmp byte [ebp-0xa],0x2e
000010DA  751A              jnz 0x10f6
000010DC  A1487A0100        mov eax,[0x17a48]
000010E1  85C0              test eax,eax
000010E3  7411              jz 0x10f6
000010E5  C70424A71F0100    mov dword [esp],0x11fa7
000010EC  E8D3060000        call dword 0x17c4
000010F1  E9DF000000        jmp dword 0x11d5
000010F6  807DF63B          cmp byte [ebp-0xa],0x3b
000010FA  7511              jnz 0x110d
000010FC  C70424C0EE0300    mov dword [esp],0x3eec0
00001103  E8DF7B0000        call dword 0x8ce7
00001108  E9C8000000        jmp dword 0x11d5
0000110D  807DF63C          cmp byte [ebp-0xa],0x3c
00001111  7511              jnz 0x1124
00001113  C7042460EF0300    mov dword [esp],0x3ef60
0000111A  E8C87B0000        call dword 0x8ce7
0000111F  E9B1000000        jmp dword 0x11d5
00001124  0FB645F6          movzx eax,byte [ebp-0xa]
00001128  8D148500000000    lea edx,[eax*4+0x0]
0000112F  A1407A0100        mov eax,[0x17a40]
00001134  85C0              test eax,eax
00001136  7509              jnz 0x1141
00001138  A1447A0100        mov eax,[0x17a44]
0000113D  85C0              test eax,eax
0000113F  7407              jz 0x1148
00001141  B801000000        mov eax,0x1
00001146  EB05              jmp short 0x114d
00001148  B800000000        mov eax,0x0
0000114D  01D0              add eax,edx
0000114F  8B048580460100    mov eax,[eax*4+0x14680]
00001156  8945F0            mov [ebp-0x10],eax
00001159  8B45F0            mov eax,[ebp-0x10]
0000115C  890424            mov [esp],eax
0000115F  E8DE020000        call dword 0x1442
00001164  89442404          mov [esp+0x4],eax
00001168  8B45F0            mov eax,[ebp-0x10]
0000116B  890424            mov [esp],eax
0000116E  E8C1880000        call dword 0x9a34
00001173  83F8FF            cmp eax,byte -0x1
00001176  750C              jnz 0x1184
00001178  C70424AF1F0100    mov dword [esp],0x11faf
0000117F  E839150000        call dword 0x26bd
00001184  E86E160000        call dword 0x27f7
00001189  EB4A              jmp short 0x11d5
0000118B  8045F680          add byte [ebp-0xa],0x80
0000118F  807DF62A          cmp byte [ebp-0xa],0x2a
00001193  750C              jnz 0x11a1
00001195  C705407A01000000  mov dword [dword 0x17a40],0x0
         -0000
0000119F  EB34              jmp short 0x11d5
000011A1  807DF636          cmp byte [ebp-0xa],0x36
000011A5  750C              jnz 0x11b3
000011A7  C705447A01000000  mov dword [dword 0x17a44],0x0
         -0000
000011B1  EB22              jmp short 0x11d5
000011B3  807DF61D          cmp byte [ebp-0xa],0x1d
000011B7  750C              jnz 0x11c5
000011B9  C705487A01000000  mov dword [dword 0x17a48],0x0
         -0000
000011C3  EB10              jmp short 0x11d5
000011C5  807DF638          cmp byte [ebp-0xa],0x38
000011C9  750A              jnz 0x11d5
000011CB  C7054C7A01000000  mov dword [dword 0x17a4c],0x0
         -0000
000011D5  83C434            add esp,byte +0x34
000011D8  5B                pop ebx
000011D9  5D                pop ebp
000011DA  C3                ret
000011DB  55                push ebp
000011DC  89E5              mov ebp,esp
000011DE  83EC18            sub esp,byte +0x18
000011E1  C70424CB1F0100    mov dword [esp],0x11fcb
000011E8  E8D7050000        call dword 0x17c4
000011ED  C9                leave
000011EE  C3                ret
000011EF  55                push ebp
000011F0  89E5              mov ebp,esp
000011F2  83EC18            sub esp,byte +0x18
000011F5  C70424CB1F0100    mov dword [esp],0x11fcb
000011FC  E8C3050000        call dword 0x17c4
00001201  C9                leave
00001202  C3                ret
00001203  55                push ebp
00001204  89E5              mov ebp,esp
00001206  83EC18            sub esp,byte +0x18
00001209  C70424CB1F0100    mov dword [esp],0x11fcb
00001210  E8AF050000        call dword 0x17c4
00001215  C9                leave
00001216  C3                ret
00001217  0000              add [eax],al
00001219  0000              add [eax],al
0000121B  0000              add [eax],al
0000121D  0000              add [eax],al
0000121F  00FA              add dl,bh
00001221  60                pushad
00001222  1E                push ds
00001223  06                push es
00001224  0FA0              push fs
00001226  0FA8              push gs
00001228  E88BFBFFFF        call dword 0xdb8
0000122D  0FA9              pop gs
0000122F  0FA1              pop fs
00001231  07                pop es
00001232  1F                pop ds
00001233  61                popad
00001234  83C404            add esp,byte +0x4
00001237  CF                iretd
00001238  FA                cli
00001239  60                pushad
0000123A  1E                push ds
0000123B  06                push es
0000123C  0FA0              push fs
0000123E  0FA8              push gs
00001240  E8A5FBFFFF        call dword 0xdea
00001245  0FA9              pop gs
00001247  0FA1              pop fs
00001249  07                pop es
0000124A  1F                pop ds
0000124B  61                popad
0000124C  83C404            add esp,byte +0x4
0000124F  CF                iretd
00001250  60                pushad
00001251  1E                push ds
00001252  06                push es
00001253  0FA0              push fs
00001255  0FA8              push gs
00001257  E8A9FDFFFF        call dword 0x1005
0000125C  0FA9              pop gs
0000125E  0FA1              pop fs
00001260  07                pop es
00001261  1F                pop ds
00001262  61                popad
00001263  CF                iretd
00001264  60                pushad
00001265  1E                push ds
00001266  06                push es
00001267  0FA0              push fs
00001269  0FA8              push gs
0000126B  E8A9FDFFFF        call dword 0x1019
00001270  0FA9              pop gs
00001272  0FA1              pop fs
00001274  07                pop es
00001275  1F                pop ds
00001276  61                popad
00001277  CF                iretd
00001278  60                pushad
00001279  1E                push ds
0000127A  06                push es
0000127B  0FA0              push fs
0000127D  0FA8              push gs
0000127F  E8A9FDFFFF        call dword 0x102d
00001284  B020              mov al,0x20
00001286  E620              out 0x20,al
00001288  0FA9              pop gs
0000128A  0FA1              pop fs
0000128C  07                pop es
0000128D  1F                pop ds
0000128E  61                popad
0000128F  CF                iretd
00001290  60                pushad
00001291  1E                push ds
00001292  06                push es
00001293  0FA0              push fs
00001295  0FA8              push gs
00001297  E89EFDFFFF        call dword 0x103a
0000129C  B020              mov al,0x20
0000129E  E620              out 0x20,al
000012A0  0FA9              pop gs
000012A2  0FA1              pop fs
000012A4  07                pop es
000012A5  1F                pop ds
000012A6  61                popad
000012A7  CF                iretd
000012A8  60                pushad
000012A9  1E                push ds
000012AA  06                push es
000012AB  0FA0              push fs
000012AD  0FA8              push gs
000012AF  E827FFFFFF        call dword 0x11db
000012B4  B020              mov al,0x20
000012B6  E6A0              out 0xa0,al
000012B8  B020              mov al,0x20
000012BA  E620              out 0x20,al
000012BC  0FA9              pop gs
000012BE  0FA1              pop fs
000012C0  07                pop es
000012C1  1F                pop ds
000012C2  61                popad
000012C3  CF                iretd
000012C4  60                pushad
000012C5  1E                push ds
000012C6  06                push es
000012C7  0FA0              push fs
000012C9  0FA8              push gs
000012CB  E81FFFFFFF        call dword 0x11ef
000012D0  B020              mov al,0x20
000012D2  E6A0              out 0xa0,al
000012D4  B020              mov al,0x20
000012D6  E620              out 0x20,al
000012D8  0FA9              pop gs
000012DA  0FA1              pop fs
000012DC  07                pop es
000012DD  1F                pop ds
000012DE  61                popad
000012DF  CF                iretd
000012E0  60                pushad
000012E1  1E                push ds
000012E2  06                push es
000012E3  0FA0              push fs
000012E5  0FA8              push gs
000012E7  E817FFFFFF        call dword 0x1203
000012EC  B020              mov al,0x20
000012EE  E6A0              out 0xa0,al
000012F0  B020              mov al,0x20
000012F2  E620              out 0x20,al
000012F4  0FA9              pop gs
000012F6  0FA1              pop fs
000012F8  07                pop es
000012F9  1F                pop ds
000012FA  61                popad
000012FB  CF                iretd
000012FC  60                pushad
000012FD  1E                push ds
000012FE  06                push es
000012FF  0FA0              push fs
00001301  0FA8              push gs
00001303  E8CC190000        call dword 0x2cd4
00001308  0FA9              pop gs
0000130A  0FA1              pop fs
0000130C  07                pop es
0000130D  1F                pop ds
0000130E  61                popad
0000130F  CF                iretd
00001310  55                push ebp
00001311  89E5              mov ebp,esp
00001313  83EC10            sub esp,byte +0x10
00001316  C745FC00000000    mov dword [ebp-0x4],0x0
0000131D  EB19              jmp short 0x1338
0000131F  8B45FC            mov eax,[ebp-0x4]
00001322  8B5508            mov edx,[ebp+0x8]
00001325  01C2              add edx,eax
00001327  8B45FC            mov eax,[ebp-0x4]
0000132A  8B4D0C            mov ecx,[ebp+0xc]
0000132D  01C8              add eax,ecx
0000132F  0FB600            movzx eax,byte [eax]
00001332  8802              mov [edx],al
00001334  8345FC01          add dword [ebp-0x4],byte +0x1
00001338  8B45FC            mov eax,[ebp-0x4]
0000133B  3B4510            cmp eax,[ebp+0x10]
0000133E  72DF              jc 0x131f
00001340  8B4508            mov eax,[ebp+0x8]
00001343  C9                leave
00001344  C3                ret
00001345  55                push ebp
00001346  89E5              mov ebp,esp
00001348  83EC10            sub esp,byte +0x10
0000134B  C745FC00000000    mov dword [ebp-0x4],0x0
00001352  EB04              jmp short 0x1358
00001354  8345FC01          add dword [ebp-0x4],byte +0x1
00001358  8B45FC            mov eax,[ebp-0x4]
0000135B  3B4510            cmp eax,[ebp+0x10]
0000135E  731A              jnc 0x137a
00001360  8B45FC            mov eax,[ebp-0x4]
00001363  8B5508            mov edx,[ebp+0x8]
00001366  01D0              add eax,edx
00001368  0FB610            movzx edx,byte [eax]
0000136B  8B45FC            mov eax,[ebp-0x4]
0000136E  8B4D0C            mov ecx,[ebp+0xc]
00001371  01C8              add eax,ecx
00001373  0FB600            movzx eax,byte [eax]
00001376  38C2              cmp dl,al
00001378  74DA              jz 0x1354
0000137A  8B45FC            mov eax,[ebp-0x4]
0000137D  3B4510            cmp eax,[ebp+0x10]
00001380  7428              jz 0x13aa
00001382  8B45FC            mov eax,[ebp-0x4]
00001385  8B5508            mov edx,[ebp+0x8]
00001388  01D0              add eax,edx
0000138A  0FB610            movzx edx,byte [eax]
0000138D  8B45FC            mov eax,[ebp-0x4]
00001390  8B4D0C            mov ecx,[ebp+0xc]
00001393  01C8              add eax,ecx
00001395  0FB600            movzx eax,byte [eax]
00001398  38C2              cmp dl,al
0000139A  7307              jnc 0x13a3
0000139C  B8FFFFFFFF        mov eax,0xffffffff
000013A1  EB05              jmp short 0x13a8
000013A3  B801000000        mov eax,0x1
000013A8  EB05              jmp short 0x13af
000013AA  B800000000        mov eax,0x0
000013AF  C9                leave
000013B0  C3                ret
000013B1  55                push ebp
000013B2  89E5              mov ebp,esp
000013B4  83EC14            sub esp,byte +0x14
000013B7  8B450C            mov eax,[ebp+0xc]
000013BA  8845EC            mov [ebp-0x14],al
000013BD  C745FC00000000    mov dword [ebp-0x4],0x0
000013C4  EB12              jmp short 0x13d8
000013C6  8B45FC            mov eax,[ebp-0x4]
000013C9  8B5508            mov edx,[ebp+0x8]
000013CC  01C2              add edx,eax
000013CE  0FB645EC          movzx eax,byte [ebp-0x14]
000013D2  8802              mov [edx],al
000013D4  8345FC01          add dword [ebp-0x4],byte +0x1
000013D8  8B45FC            mov eax,[ebp-0x4]
000013DB  3B4510            cmp eax,[ebp+0x10]
000013DE  72E6              jc 0x13c6
000013E0  8B4508            mov eax,[ebp+0x8]
000013E3  C9                leave
000013E4  C3                ret
000013E5  55                push ebp
000013E6  89E5              mov ebp,esp
000013E8  83EC10            sub esp,byte +0x10
000013EB  C745FC00000000    mov dword [ebp-0x4],0x0
000013F2  EB19              jmp short 0x140d
000013F4  8B45FC            mov eax,[ebp-0x4]
000013F7  8B5508            mov edx,[ebp+0x8]
000013FA  01C2              add edx,eax
000013FC  8B45FC            mov eax,[ebp-0x4]
000013FF  8B4D0C            mov ecx,[ebp+0xc]
00001402  01C8              add eax,ecx
00001404  0FB600            movzx eax,byte [eax]
00001407  8802              mov [edx],al
00001409  8345FC01          add dword [ebp-0x4],byte +0x1
0000140D  8B45FC            mov eax,[ebp-0x4]
00001410  3B4510            cmp eax,[ebp+0x10]
00001413  7320              jnc 0x1435
00001415  8B45FC            mov eax,[ebp-0x4]
00001418  8B550C            mov edx,[ebp+0xc]
0000141B  01D0              add eax,edx
0000141D  0FB600            movzx eax,byte [eax]
00001420  84C0              test al,al
00001422  75D0              jnz 0x13f4
00001424  EB0F              jmp short 0x1435
00001426  8B45FC            mov eax,[ebp-0x4]
00001429  8B5508            mov edx,[ebp+0x8]
0000142C  01D0              add eax,edx
0000142E  C60000            mov byte [eax],0x0
00001431  8345FC01          add dword [ebp-0x4],byte +0x1
00001435  8B45FC            mov eax,[ebp-0x4]
00001438  3B4510            cmp eax,[ebp+0x10]
0000143B  72E9              jc 0x1426
0000143D  8B4508            mov eax,[ebp+0x8]
00001440  C9                leave
00001441  C3                ret
00001442  55                push ebp
00001443  89E5              mov ebp,esp
00001445  83EC10            sub esp,byte +0x10
00001448  C745FC00000000    mov dword [ebp-0x4],0x0
0000144F  EB04              jmp short 0x1455
00001451  8345FC01          add dword [ebp-0x4],byte +0x1
00001455  8B4508            mov eax,[ebp+0x8]
00001458  0FB600            movzx eax,byte [eax]
0000145B  84C0              test al,al
0000145D  0F95C0            setnz al
00001460  83450801          add dword [ebp+0x8],byte +0x1
00001464  84C0              test al,al
00001466  75E9              jnz 0x1451
00001468  8B45FC            mov eax,[ebp-0x4]
0000146B  C9                leave
0000146C  C3                ret
0000146D  55                push ebp
0000146E  89E5              mov ebp,esp
00001470  83EC10            sub esp,byte +0x10
00001473  C745FC00000000    mov dword [ebp-0x4],0x0
0000147A  EB04              jmp short 0x1480
0000147C  8345FC01          add dword [ebp-0x4],byte +0x1
00001480  8B45FC            mov eax,[ebp-0x4]
00001483  3B4510            cmp eax,[ebp+0x10]
00001486  7338              jnc 0x14c0
00001488  8B45FC            mov eax,[ebp-0x4]
0000148B  8B5508            mov edx,[ebp+0x8]
0000148E  01D0              add eax,edx
00001490  0FB600            movzx eax,byte [eax]
00001493  84C0              test al,al
00001495  7429              jz 0x14c0
00001497  8B45FC            mov eax,[ebp-0x4]
0000149A  8B550C            mov edx,[ebp+0xc]
0000149D  01D0              add eax,edx
0000149F  0FB600            movzx eax,byte [eax]
000014A2  84C0              test al,al
000014A4  741A              jz 0x14c0
000014A6  8B45FC            mov eax,[ebp-0x4]
000014A9  8B5508            mov edx,[ebp+0x8]
000014AC  01D0              add eax,edx
000014AE  0FB610            movzx edx,byte [eax]
000014B1  8B45FC            mov eax,[ebp-0x4]
000014B4  8B4D0C            mov ecx,[ebp+0xc]
000014B7  01C8              add eax,ecx
000014B9  0FB600            movzx eax,byte [eax]
000014BC  38C2              cmp dl,al
000014BE  74BC              jz 0x147c
000014C0  8B45FC            mov eax,[ebp-0x4]
000014C3  3B4510            cmp eax,[ebp+0x10]
000014C6  7428              jz 0x14f0
000014C8  8B45FC            mov eax,[ebp-0x4]
000014CB  8B5508            mov edx,[ebp+0x8]
000014CE  01D0              add eax,edx
000014D0  0FB610            movzx edx,byte [eax]
000014D3  8B45FC            mov eax,[ebp-0x4]
000014D6  8B4D0C            mov ecx,[ebp+0xc]
000014D9  01C8              add eax,ecx
000014DB  0FB600            movzx eax,byte [eax]
000014DE  38C2              cmp dl,al
000014E0  7D07              jnl 0x14e9
000014E2  B8FFFFFFFF        mov eax,0xffffffff
000014E7  EB05              jmp short 0x14ee
000014E9  B801000000        mov eax,0x1
000014EE  EB05              jmp short 0x14f5
000014F0  B800000000        mov eax,0x0
000014F5  C9                leave
000014F6  C3                ret
000014F7  55                push ebp
000014F8  89E5              mov ebp,esp
000014FA  83EC14            sub esp,byte +0x14
000014FD  8B450C            mov eax,[ebp+0xc]
00001500  8845EC            mov [ebp-0x14],al
00001503  C745FC00000000    mov dword [ebp-0x4],0x0
0000150A  EB1E              jmp short 0x152a
0000150C  8B45FC            mov eax,[ebp-0x4]
0000150F  8B5508            mov edx,[ebp+0x8]
00001512  01D0              add eax,edx
00001514  0FB600            movzx eax,byte [eax]
00001517  3A45EC            cmp al,[ebp-0x14]
0000151A  750A              jnz 0x1526
0000151C  8B45FC            mov eax,[ebp-0x4]
0000151F  8B5508            mov edx,[ebp+0x8]
00001522  01D0              add eax,edx
00001524  EB18              jmp short 0x153e
00001526  8345FC01          add dword [ebp-0x4],byte +0x1
0000152A  8B45FC            mov eax,[ebp-0x4]
0000152D  8B5508            mov edx,[ebp+0x8]
00001530  01D0              add eax,edx
00001532  0FB600            movzx eax,byte [eax]
00001535  84C0              test al,al
00001537  75D3              jnz 0x150c
00001539  B800000000        mov eax,0x0
0000153E  C9                leave
0000153F  C3                ret
00001540  55                push ebp
00001541  89E5              mov ebp,esp
00001543  83EC1C            sub esp,byte +0x1c
00001546  C745FC00000000    mov dword [ebp-0x4],0x0
0000154D  E9A5010000        jmp dword 0x16f7
00001552  8B4510            mov eax,[ebp+0x10]
00001555  0FB600            movzx eax,byte [eax]
00001558  3C25              cmp al,0x25
0000155A  0F857D010000      jnz dword 0x16dd
00001560  83451001          add dword [ebp+0x10],byte +0x1
00001564  8B4510            mov eax,[ebp+0x10]
00001567  0FB600            movzx eax,byte [eax]
0000156A  3C25              cmp al,0x25
0000156C  7513              jnz 0x1581
0000156E  8B4508            mov eax,[ebp+0x8]
00001571  C60025            mov byte [eax],0x25
00001574  83450801          add dword [ebp+0x8],byte +0x1
00001578  8345FC01          add dword [ebp-0x4],byte +0x1
0000157C  E971010000        jmp dword 0x16f2
00001581  8B4510            mov eax,[ebp+0x10]
00001584  0FB600            movzx eax,byte [eax]
00001587  3C78              cmp al,0x78
00001589  740E              jz 0x1599
0000158B  8B4510            mov eax,[ebp+0x10]
0000158E  0FB600            movzx eax,byte [eax]
00001591  3C70              cmp al,0x70
00001593  0F85EE000000      jnz dword 0x1687
00001599  8B4514            mov eax,[ebp+0x14]
0000159C  8D5004            lea edx,[eax+0x4]
0000159F  895514            mov [ebp+0x14],edx
000015A2  8B00              mov eax,[eax]
000015A4  8945F0            mov [ebp-0x10],eax
000015A7  A1A04C0100        mov eax,[0x14ca0]
000015AC  8B55F0            mov edx,[ebp-0x10]
000015AF  C1EA1C            shr edx,0x1c
000015B2  01D0              add eax,edx
000015B4  0FB610            movzx edx,byte [eax]
000015B7  8B4508            mov eax,[ebp+0x8]
000015BA  8810              mov [eax],dl
000015BC  83450801          add dword [ebp+0x8],byte +0x1
000015C0  A1A04C0100        mov eax,[0x14ca0]
000015C5  8B55F0            mov edx,[ebp-0x10]
000015C8  C1EA18            shr edx,0x18
000015CB  83E20F            and edx,byte +0xf
000015CE  01D0              add eax,edx
000015D0  0FB610            movzx edx,byte [eax]
000015D3  8B4508            mov eax,[ebp+0x8]
000015D6  8810              mov [eax],dl
000015D8  83450801          add dword [ebp+0x8],byte +0x1
000015DC  A1A04C0100        mov eax,[0x14ca0]
000015E1  8B55F0            mov edx,[ebp-0x10]
000015E4  C1EA14            shr edx,0x14
000015E7  83E20F            and edx,byte +0xf
000015EA  01D0              add eax,edx
000015EC  0FB610            movzx edx,byte [eax]
000015EF  8B4508            mov eax,[ebp+0x8]
000015F2  8810              mov [eax],dl
000015F4  83450801          add dword [ebp+0x8],byte +0x1
000015F8  A1A04C0100        mov eax,[0x14ca0]
000015FD  8B55F0            mov edx,[ebp-0x10]
00001600  C1EA10            shr edx,0x10
00001603  83E20F            and edx,byte +0xf
00001606  01D0              add eax,edx
00001608  0FB610            movzx edx,byte [eax]
0000160B  8B4508            mov eax,[ebp+0x8]
0000160E  8810              mov [eax],dl
00001610  83450801          add dword [ebp+0x8],byte +0x1
00001614  A1A04C0100        mov eax,[0x14ca0]
00001619  8B55F0            mov edx,[ebp-0x10]
0000161C  C1EA0C            shr edx,0xc
0000161F  83E20F            and edx,byte +0xf
00001622  01D0              add eax,edx
00001624  0FB610            movzx edx,byte [eax]
00001627  8B4508            mov eax,[ebp+0x8]
0000162A  8810              mov [eax],dl
0000162C  83450801          add dword [ebp+0x8],byte +0x1
00001630  A1A04C0100        mov eax,[0x14ca0]
00001635  8B55F0            mov edx,[ebp-0x10]
00001638  C1EA08            shr edx,0x8
0000163B  83E20F            and edx,byte +0xf
0000163E  01D0              add eax,edx
00001640  0FB610            movzx edx,byte [eax]
00001643  8B4508            mov eax,[ebp+0x8]
00001646  8810              mov [eax],dl
00001648  83450801          add dword [ebp+0x8],byte +0x1
0000164C  A1A04C0100        mov eax,[0x14ca0]
00001651  8B55F0            mov edx,[ebp-0x10]
00001654  C1EA04            shr edx,0x4
00001657  83E20F            and edx,byte +0xf
0000165A  01D0              add eax,edx
0000165C  0FB610            movzx edx,byte [eax]
0000165F  8B4508            mov eax,[ebp+0x8]
00001662  8810              mov [eax],dl
00001664  83450801          add dword [ebp+0x8],byte +0x1
00001668  A1A04C0100        mov eax,[0x14ca0]
0000166D  8B55F0            mov edx,[ebp-0x10]
00001670  83E20F            and edx,byte +0xf
00001673  01D0              add eax,edx
00001675  0FB610            movzx edx,byte [eax]
00001678  8B4508            mov eax,[ebp+0x8]
0000167B  8810              mov [eax],dl
0000167D  83450801          add dword [ebp+0x8],byte +0x1
00001681  8345FC08          add dword [ebp-0x4],byte +0x8
00001685  EB6C              jmp short 0x16f3
00001687  8B4510            mov eax,[ebp+0x10]
0000168A  0FB600            movzx eax,byte [eax]
0000168D  3C73              cmp al,0x73
0000168F  7561              jnz 0x16f2
00001691  8B4514            mov eax,[ebp+0x14]
00001694  8D5004            lea edx,[eax+0x4]
00001697  895514            mov [ebp+0x14],edx
0000169A  8B00              mov eax,[eax]
0000169C  8945F8            mov [ebp-0x8],eax
0000169F  8B45FC            mov eax,[ebp-0x4]
000016A2  8B550C            mov edx,[ebp+0xc]
000016A5  89D1              mov ecx,edx
000016A7  29C1              sub ecx,eax
000016A9  89C8              mov eax,ecx
000016AB  89442408          mov [esp+0x8],eax
000016AF  8B45F8            mov eax,[ebp-0x8]
000016B2  89442404          mov [esp+0x4],eax
000016B6  8B4508            mov eax,[ebp+0x8]
000016B9  890424            mov [esp],eax
000016BC  E824FDFFFF        call dword 0x13e5
000016C1  8B45F8            mov eax,[ebp-0x8]
000016C4  890424            mov [esp],eax
000016C7  E876FDFFFF        call dword 0x1442
000016CC  8945F4            mov [ebp-0xc],eax
000016CF  8B45F4            mov eax,[ebp-0xc]
000016D2  014508            add [ebp+0x8],eax
000016D5  8B45F4            mov eax,[ebp-0xc]
000016D8  0145FC            add [ebp-0x4],eax
000016DB  EB15              jmp short 0x16f2
000016DD  8B4510            mov eax,[ebp+0x10]
000016E0  0FB610            movzx edx,byte [eax]
000016E3  8B4508            mov eax,[ebp+0x8]
000016E6  8810              mov [eax],dl
000016E8  83450801          add dword [ebp+0x8],byte +0x1
000016EC  8345FC01          add dword [ebp-0x4],byte +0x1
000016F0  EB01              jmp short 0x16f3
000016F2  90                nop
000016F3  83451001          add dword [ebp+0x10],byte +0x1
000016F7  8B4510            mov eax,[ebp+0x10]
000016FA  0FB600            movzx eax,byte [eax]
000016FD  84C0              test al,al
000016FF  740C              jz 0x170d
00001701  8B45FC            mov eax,[ebp-0x4]
00001704  3B450C            cmp eax,[ebp+0xc]
00001707  0F8245FEFFFF      jc dword 0x1552
0000170D  8B4508            mov eax,[ebp+0x8]
00001710  C60000            mov byte [eax],0x0
00001713  8B45FC            mov eax,[ebp-0x4]
00001716  C9                leave
00001717  C3                ret
00001718  55                push ebp
00001719  89E5              mov ebp,esp
0000171B  83EC10            sub esp,byte +0x10
0000171E  8B4508            mov eax,[ebp+0x8]
00001721  69C0E8030000      imul eax,eax,dword 0x3e8
00001727  8945FC            mov [ebp-0x4],eax
0000172A  90                nop
0000172B  837DFC00          cmp dword [ebp-0x4],byte +0x0
0000172F  0F95C0            setnz al
00001732  836DFC01          sub dword [ebp-0x4],byte +0x1
00001736  84C0              test al,al
00001738  75F1              jnz 0x172b
0000173A  C9                leave
0000173B  C3                ret
0000173C  55                push ebp
0000173D  89E5              mov ebp,esp
0000173F  B811000000        mov eax,0x11
00001744  BA20000000        mov edx,0x20
00001749  EE                out dx,al
0000174A  EB00              jmp short 0x174c
0000174C  B811000000        mov eax,0x11
00001751  BAA0000000        mov edx,0xa0
00001756  EE                out dx,al
00001757  EB00              jmp short 0x1759
00001759  B820000000        mov eax,0x20
0000175E  BA21000000        mov edx,0x21
00001763  EE                out dx,al
00001764  EB00              jmp short 0x1766
00001766  B870000000        mov eax,0x70
0000176B  BAA1000000        mov edx,0xa1
00001770  EE                out dx,al
00001771  EB00              jmp short 0x1773
00001773  B804000000        mov eax,0x4
00001778  BA21000000        mov edx,0x21
0000177D  EE                out dx,al
0000177E  EB00              jmp short 0x1780
00001780  B802000000        mov eax,0x2
00001785  BAA1000000        mov edx,0xa1
0000178A  EE                out dx,al
0000178B  EB00              jmp short 0x178d
0000178D  B801000000        mov eax,0x1
00001792  BA21000000        mov edx,0x21
00001797  EE                out dx,al
00001798  EB00              jmp short 0x179a
0000179A  B801000000        mov eax,0x1
0000179F  BAA1000000        mov edx,0xa1
000017A4  EE                out dx,al
000017A5  EB00              jmp short 0x17a7
000017A7  B800000000        mov eax,0x0
000017AC  BA21000000        mov edx,0x21
000017B1  EE                out dx,al
000017B2  EB00              jmp short 0x17b4
000017B4  B800000000        mov eax,0x0
000017B9  BAA1000000        mov edx,0xa1
000017BE  EE                out dx,al
000017BF  EB00              jmp short 0x17c1
000017C1  5D                pop ebp
000017C2  C3                ret
000017C3  005589            add [ebp-0x77],dl
000017C6  E581              in eax,0x81
000017C8  EC                in al,dx
000017C9  2801              sub [ecx],al
000017CB  0000              add [eax],al
000017CD  8D550C            lea edx,[ebp+0xc]
000017D0  8D85F0FEFFFF      lea eax,[ebp-0x110]
000017D6  8910              mov [eax],edx
000017D8  8B85F0FEFFFF      mov eax,[ebp-0x110]
000017DE  8944240C          mov [esp+0xc],eax
000017E2  8B4508            mov eax,[ebp+0x8]
000017E5  89442408          mov [esp+0x8],eax
000017E9  C7442404FF000000  mov dword [esp+0x4],0xff
000017F1  8D85F4FEFFFF      lea eax,[ebp-0x10c]
000017F7  890424            mov [esp],eax
000017FA  E841FDFFFF        call dword 0x1540
000017FF  8945F4            mov [ebp-0xc],eax
00001802  8D85F4FEFFFF      lea eax,[ebp-0x10c]
00001808  890424            mov [esp],eax
0000180B  E8AD0E0000        call dword 0x26bd
00001810  8B45F4            mov eax,[ebp-0xc]
00001813  C9                leave
00001814  C3                ret
00001815  0000              add [eax],al
00001817  005589            add [ebp-0x77],dl
0000181A  E583              in eax,0x83
0000181C  EC                in al,dx
0000181D  58                pop eax
0000181E  C745C001000000    mov dword [ebp-0x40],0x1
00001825  C745C40A000000    mov dword [ebp-0x3c],0xa
0000182C  C745C800000000    mov dword [ebp-0x38],0x0
00001833  C745CC01000000    mov dword [ebp-0x34],0x1
0000183A  A1608A0100        mov eax,[0x18a60]
0000183F  83F840            cmp eax,byte +0x40
00001842  0F84D4070000      jz dword 0x201c
00001848  C745F400000000    mov dword [ebp-0xc],0x0
0000184F  EB1C              jmp short 0x186d
00001851  8B45F4            mov eax,[ebp-0xc]
00001854  C1E007            shl eax,0x7
00001857  89C2              mov edx,eax
00001859  C1E204            shl edx,0x4
0000185C  01D0              add eax,edx
0000185E  05D08A0100        add eax,0x18ad0
00001863  8B00              mov eax,[eax]
00001865  85C0              test eax,eax
00001867  740C              jz 0x1875
00001869  8345F401          add dword [ebp-0xc],byte +0x1
0000186D  837DF43F          cmp dword [ebp-0xc],byte +0x3f
00001871  7EDE              jng 0x1851
00001873  EB01              jmp short 0x1876
00001875  90                nop
00001876  837DF440          cmp dword [ebp-0xc],byte +0x40
0000187A  752A              jnz 0x18a6
0000187C  FA                cli
0000187D  C74424083E200100  mov dword [esp+0x8],0x1203e
00001885  C744240403200100  mov dword [esp+0x4],0x12003
0000188D  C7042414200100    mov dword [esp],0x12014
00001894  E82BFFFFFF        call dword 0x17c4
00001899  C7042424200100    mov dword [esp],0x12024
000018A0  E81FFFFFFF        call dword 0x17c4
000018A5  F4                hlt
000018A6  E82B480000        call dword 0x60d6
000018AB  89C2              mov edx,eax
000018AD  8B45F4            mov eax,[ebp-0xc]
000018B0  C1E007            shl eax,0x7
000018B3  89C1              mov ecx,eax
000018B5  C1E104            shl ecx,0x4
000018B8  01C8              add eax,ecx
000018BA  05C08A0100        add eax,0x18ac0
000018BF  8910              mov [eax],edx
000018C1  8B45F4            mov eax,[ebp-0xc]
000018C4  C1E007            shl eax,0x7
000018C7  89C2              mov edx,eax
000018C9  C1E204            shl edx,0x4
000018CC  01D0              add eax,edx
000018CE  05C08A0100        add eax,0x18ac0
000018D3  8B00              mov eax,[eax]
000018D5  85C0              test eax,eax
000018D7  0F8442070000      jz dword 0x201f
000018DD  8B45F4            mov eax,[ebp-0xc]
000018E0  C1E007            shl eax,0x7
000018E3  89C2              mov edx,eax
000018E5  C1E204            shl edx,0x4
000018E8  01D0              add eax,edx
000018EA  8D90C08A0100      lea edx,[eax+0x18ac0]
000018F0  0F20D8            mov eax,cr3
000018F3  8945BC            mov [ebp-0x44],eax
000018F6  8B02              mov eax,[edx]
000018F8  0F22D8            mov cr3,eax
000018FB  8B4510            mov eax,[ebp+0x10]
000018FE  C1E80C            shr eax,0xc
00001901  8945F0            mov [ebp-0x10],eax
00001904  8B4510            mov eax,[ebp+0x10]
00001907  25FF0F0000        and eax,0xfff
0000190C  85C0              test eax,eax
0000190E  7404              jz 0x1914
00001910  8345F001          add dword [ebp-0x10],byte +0x1
00001914  C745EC00000400    mov dword [ebp-0x14],0x40000
0000191B  EB3C              jmp short 0x1959
0000191D  E80A430000        call dword 0x5c2c
00001922  8945E0            mov [ebp-0x20],eax
00001925  837DE000          cmp dword [ebp-0x20],byte +0x0
00001929  0F84C2060000      jz dword 0x1ff1
0000192F  8B45EC            mov eax,[ebp-0x14]
00001932  89442404          mov [esp+0x4],eax
00001936  8B45E0            mov eax,[ebp-0x20]
00001939  890424            mov [esp],eax
0000193C  E847440000        call dword 0x5d88
00001941  85C0              test eax,eax
00001943  7410              jz 0x1955
00001945  8B45E0            mov eax,[ebp-0x20]
00001948  890424            mov [esp],eax
0000194B  E811430000        call dword 0x5c61
00001950  E9A3060000        jmp dword 0x1ff8
00001955  8345EC01          add dword [ebp-0x14],byte +0x1
00001959  8B45F0            mov eax,[ebp-0x10]
0000195C  0500000400        add eax,0x40000
00001961  3B45EC            cmp eax,[ebp-0x14]
00001964  77B7              ja 0x191d
00001966  E8C1420000        call dword 0x5c2c
0000196B  8945DC            mov [ebp-0x24],eax
0000196E  837DDC00          cmp dword [ebp-0x24],byte +0x0
00001972  0F847C060000      jz dword 0x1ff4
00001978  C745D800000F00    mov dword [ebp-0x28],0xf0000
0000197F  8B45D8            mov eax,[ebp-0x28]
00001982  89442404          mov [esp+0x4],eax
00001986  8B45DC            mov eax,[ebp-0x24]
00001989  890424            mov [esp],eax
0000198C  E8F7430000        call dword 0x5d88
00001991  85C0              test eax,eax
00001993  7410              jz 0x19a5
00001995  8B45DC            mov eax,[ebp-0x24]
00001998  890424            mov [esp],eax
0000199B  E8C1420000        call dword 0x5c61
000019A0  E953060000        jmp dword 0x1ff8
000019A5  8D45D0            lea eax,[ebp-0x30]
000019A8  C744240401000000  mov dword [esp+0x4],0x1
000019B0  890424            mov [esp],eax
000019B3  E8D1420000        call dword 0x5c89
000019B8  83EC04            sub esp,byte +0x4
000019BB  8B45D4            mov eax,[ebp-0x2c]
000019BE  85C0              test eax,eax
000019C0  0F8431060000      jz dword 0x1ff7
000019C6  8B4510            mov eax,[ebp+0x10]
000019C9  89442408          mov [esp+0x8],eax
000019CD  8B450C            mov eax,[ebp+0xc]
000019D0  89442404          mov [esp+0x4],eax
000019D4  C7042400000040    mov dword [esp],0x40000000
000019DB  E830F9FFFF        call dword 0x1310
000019E0  8B45F4            mov eax,[ebp-0xc]
000019E3  C1E007            shl eax,0x7
000019E6  89C2              mov edx,eax
000019E8  C1E204            shl edx,0x4
000019EB  01D0              add eax,edx
000019ED  05808A0100        add eax,0x18a80
000019F2  C7400C2B000000    mov dword [eax+0xc],0x2b
000019F9  8B45F4            mov eax,[ebp-0xc]
000019FC  C1E007            shl eax,0x7
000019FF  89C2              mov edx,eax
00001A01  C1E204            shl edx,0x4
00001A04  01D0              add eax,edx
00001A06  05808A0100        add eax,0x18a80
00001A0B  8B500C            mov edx,[eax+0xc]
00001A0E  8B45F4            mov eax,[ebp-0xc]
00001A11  C1E007            shl eax,0x7
00001A14  89C1              mov ecx,eax
00001A16  C1E104            shl ecx,0x4
00001A19  01C8              add eax,ecx
00001A1B  05808A0100        add eax,0x18a80
00001A20  895008            mov [eax+0x8],edx
00001A23  8B45F4            mov eax,[ebp-0xc]
00001A26  C1E007            shl eax,0x7
00001A29  89C2              mov edx,eax
00001A2B  C1E204            shl edx,0x4
00001A2E  01D0              add eax,edx
00001A30  05808A0100        add eax,0x18a80
00001A35  8B5008            mov edx,[eax+0x8]
00001A38  8B45F4            mov eax,[ebp-0xc]
00001A3B  C1E007            shl eax,0x7
00001A3E  89C1              mov ecx,eax
00001A40  C1E104            shl ecx,0x4
00001A43  01C8              add eax,ecx
00001A45  05808A0100        add eax,0x18a80
00001A4A  895004            mov [eax+0x4],edx
00001A4D  8B45F4            mov eax,[ebp-0xc]
00001A50  C1E007            shl eax,0x7
00001A53  89C2              mov edx,eax
00001A55  C1E204            shl edx,0x4
00001A58  01D0              add eax,edx
00001A5A  05808A0100        add eax,0x18a80
00001A5F  8B5004            mov edx,[eax+0x4]
00001A62  8B45F4            mov eax,[ebp-0xc]
00001A65  C1E007            shl eax,0x7
00001A68  89C1              mov ecx,eax
00001A6A  C1E104            shl ecx,0x4
00001A6D  01C8              add eax,ecx
00001A6F  05808A0100        add eax,0x18a80
00001A74  8910              mov [eax],edx
00001A76  8B45F4            mov eax,[ebp-0xc]
00001A79  C1E007            shl eax,0x7
00001A7C  89C2              mov edx,eax
00001A7E  C1E204            shl edx,0x4
00001A81  01D0              add eax,edx
00001A83  05908A0100        add eax,0x18a90
00001A88  C7400400000000    mov dword [eax+0x4],0x0
00001A8F  8B45F4            mov eax,[ebp-0xc]
00001A92  C1E007            shl eax,0x7
00001A95  89C2              mov edx,eax
00001A97  C1E204            shl edx,0x4
00001A9A  01D0              add eax,edx
00001A9C  05908A0100        add eax,0x18a90
00001AA1  8B5004            mov edx,[eax+0x4]
00001AA4  8B45F4            mov eax,[ebp-0xc]
00001AA7  C1E007            shl eax,0x7
00001AAA  89C1              mov ecx,eax
00001AAC  C1E104            shl ecx,0x4
00001AAF  01C8              add eax,ecx
00001AB1  05908A0100        add eax,0x18a90
00001AB6  8910              mov [eax],edx
00001AB8  8B45F4            mov eax,[ebp-0xc]
00001ABB  C1E007            shl eax,0x7
00001ABE  89C2              mov edx,eax
00001AC0  C1E204            shl edx,0x4
00001AC3  01D0              add eax,edx
00001AC5  05908A0100        add eax,0x18a90
00001ACA  C7400800000000    mov dword [eax+0x8],0x0
00001AD1  8B45F4            mov eax,[ebp-0xc]
00001AD4  C1E007            shl eax,0x7
00001AD7  89C2              mov edx,eax
00001AD9  C1E204            shl edx,0x4
00001ADC  01D0              add eax,edx
00001ADE  05A08A0100        add eax,0x18aa0
00001AE3  C7400800000000    mov dword [eax+0x8],0x0
00001AEA  8B45F4            mov eax,[ebp-0xc]
00001AED  C1E007            shl eax,0x7
00001AF0  89C2              mov edx,eax
00001AF2  C1E204            shl edx,0x4
00001AF5  01D0              add eax,edx
00001AF7  05A08A0100        add eax,0x18aa0
00001AFC  8B5008            mov edx,[eax+0x8]
00001AFF  8B45F4            mov eax,[ebp-0xc]
00001B02  C1E007            shl eax,0x7
00001B05  89C1              mov ecx,eax
00001B07  C1E104            shl ecx,0x4
00001B0A  01C8              add eax,ecx
00001B0C  05A08A0100        add eax,0x18aa0
00001B11  895004            mov [eax+0x4],edx
00001B14  8B45F4            mov eax,[ebp-0xc]
00001B17  C1E007            shl eax,0x7
00001B1A  89C2              mov edx,eax
00001B1C  C1E204            shl edx,0x4
00001B1F  01D0              add eax,edx
00001B21  05A08A0100        add eax,0x18aa0
00001B26  8B5004            mov edx,[eax+0x4]
00001B29  8B45F4            mov eax,[ebp-0xc]
00001B2C  C1E007            shl eax,0x7
00001B2F  89C1              mov ecx,eax
00001B31  C1E104            shl ecx,0x4
00001B34  01C8              add eax,ecx
00001B36  05A08A0100        add eax,0x18aa0
00001B3B  8910              mov [eax],edx
00001B3D  8B45F4            mov eax,[ebp-0xc]
00001B40  C1E007            shl eax,0x7
00001B43  89C2              mov edx,eax
00001B45  C1E204            shl edx,0x4
00001B48  01D0              add eax,edx
00001B4A  05A08A0100        add eax,0x18aa0
00001B4F  8B10              mov edx,[eax]
00001B51  8B45F4            mov eax,[ebp-0xc]
00001B54  C1E007            shl eax,0x7
00001B57  89C1              mov ecx,eax
00001B59  C1E104            shl ecx,0x4
00001B5C  01C8              add eax,ecx
00001B5E  05908A0100        add eax,0x18a90
00001B63  89500C            mov [eax+0xc],edx
00001B66  8B45F4            mov eax,[ebp-0xc]
00001B69  C1E007            shl eax,0x7
00001B6C  89C2              mov edx,eax
00001B6E  C1E204            shl edx,0x4
00001B71  01D0              add eax,edx
00001B73  05A08A0100        add eax,0x18aa0
00001B78  C7400C00000040    mov dword [eax+0xc],0x40000000
00001B7F  8B45F4            mov eax,[ebp-0xc]
00001B82  C1E007            shl eax,0x7
00001B85  89C2              mov edx,eax
00001B87  C1E204            shl edx,0x4
00001B8A  01D0              add eax,edx
00001B8C  05B08A0100        add eax,0x18ab0
00001B91  C70023000000      mov dword [eax],0x23
00001B97  8B45F4            mov eax,[ebp-0xc]
00001B9A  C1E007            shl eax,0x7
00001B9D  89C2              mov edx,eax
00001B9F  C1E204            shl edx,0x4
00001BA2  01D0              add eax,edx
00001BA4  05B08A0100        add eax,0x18ab0
00001BA9  C7400402020000    mov dword [eax+0x4],0x202
00001BB0  8B45F4            mov eax,[ebp-0xc]
00001BB3  C1E007            shl eax,0x7
00001BB6  89C2              mov edx,eax
00001BB8  C1E204            shl edx,0x4
00001BBB  01D0              add eax,edx
00001BBD  05B08A0100        add eax,0x18ab0
00001BC2  C74008FC0F00F0    mov dword [eax+0x8],0xf0000ffc
00001BC9  8B45F4            mov eax,[ebp-0xc]
00001BCC  C1E007            shl eax,0x7
00001BCF  89C2              mov edx,eax
00001BD1  C1E204            shl edx,0x4
00001BD4  01D0              add eax,edx
00001BD6  05B08A0100        add eax,0x18ab0
00001BDB  C7400C33000000    mov dword [eax+0xc],0x33
00001BE2  8B45F4            mov eax,[ebp-0xc]
00001BE5  C1E007            shl eax,0x7
00001BE8  89C2              mov edx,eax
00001BEA  C1E204            shl edx,0x4
00001BED  01D0              add eax,edx
00001BEF  8D90C08A0100      lea edx,[eax+0x18ac0]
00001BF5  8B45F4            mov eax,[ebp-0xc]
00001BF8  894204            mov [edx+0x4],eax
00001BFB  8B45F4            mov eax,[ebp-0xc]
00001BFE  8D5002            lea edx,[eax+0x2]
00001C01  8B45F4            mov eax,[ebp-0xc]
00001C04  C1E007            shl eax,0x7
00001C07  89C1              mov ecx,eax
00001C09  C1E104            shl ecx,0x4
00001C0C  01C8              add eax,ecx
00001C0E  05C08A0100        add eax,0x18ac0
00001C13  895008            mov [eax+0x8],edx
00001C16  8B45F4            mov eax,[ebp-0xc]
00001C19  C1E007            shl eax,0x7
00001C1C  89C2              mov edx,eax
00001C1E  C1E204            shl edx,0x4
00001C21  01D0              add eax,edx
00001C23  05C08A0100        add eax,0x18ac0
00001C28  C7400C00000000    mov dword [eax+0xc],0x0
00001C2F  8B45F4            mov eax,[ebp-0xc]
00001C32  C1E007            shl eax,0x7
00001C35  89C2              mov edx,eax
00001C37  C1E204            shl edx,0x4
00001C3A  01D0              add eax,edx
00001C3C  05D08A0100        add eax,0x18ad0
00001C41  C70001000000      mov dword [eax],0x1
00001C47  8B45F4            mov eax,[ebp-0xc]
00001C4A  C1E007            shl eax,0x7
00001C4D  89C2              mov edx,eax
00001C4F  C1E204            shl edx,0x4
00001C52  01D0              add eax,edx
00001C54  8D88D08A0100      lea ecx,[eax+0x18ad0]
00001C5A  8B45D0            mov eax,[ebp-0x30]
00001C5D  8B55D4            mov edx,[ebp-0x2c]
00001C60  894104            mov [ecx+0x4],eax
00001C63  895108            mov [ecx+0x8],edx
00001C66  8B45D4            mov eax,[ebp-0x2c]
00001C69  C1E00C            shl eax,0xc
00001C6C  8D90FC0F0000      lea edx,[eax+0xffc]
00001C72  8B45F4            mov eax,[ebp-0xc]
00001C75  C1E007            shl eax,0x7
00001C78  89C1              mov ecx,eax
00001C7A  C1E104            shl ecx,0x4
00001C7D  01C8              add eax,ecx
00001C7F  05D08A0100        add eax,0x18ad0
00001C84  89500C            mov [eax+0xc],edx
00001C87  8B4510            mov eax,[ebp+0x10]
00001C8A  0504000040        add eax,0x40000004
00001C8F  83E0FC            and eax,byte -0x4
00001C92  89C2              mov edx,eax
00001C94  8B45F4            mov eax,[ebp-0xc]
00001C97  C1E007            shl eax,0x7
00001C9A  89C1              mov ecx,eax
00001C9C  C1E104            shl ecx,0x4
00001C9F  01C8              add eax,ecx
00001CA1  05E08A0100        add eax,0x18ae0
00001CA6  8910              mov [eax],edx
00001CA8  8B45F4            mov eax,[ebp-0xc]
00001CAB  C1E007            shl eax,0x7
00001CAE  89C2              mov edx,eax
00001CB0  C1E204            shl edx,0x4
00001CB3  01D0              add eax,edx
00001CB5  05E08A0100        add eax,0x18ae0
00001CBA  8B10              mov edx,[eax]
00001CBC  8B45F4            mov eax,[ebp-0xc]
00001CBF  C1E007            shl eax,0x7
00001CC2  89C1              mov ecx,eax
00001CC4  C1E104            shl ecx,0x4
00001CC7  01C8              add eax,ecx
00001CC9  05E08A0100        add eax,0x18ae0
00001CCE  895004            mov [eax+0x4],edx
00001CD1  8B45F4            mov eax,[ebp-0xc]
00001CD4  C1E007            shl eax,0x7
00001CD7  89C2              mov edx,eax
00001CD9  C1E204            shl edx,0x4
00001CDC  01D0              add eax,edx
00001CDE  8D90E08A0100      lea edx,[eax+0x18ae0]
00001CE4  8B4508            mov eax,[ebp+0x8]
00001CE7  894208            mov [edx+0x8],eax
00001CEA  8B45F4            mov eax,[ebp-0xc]
00001CED  C1E007            shl eax,0x7
00001CF0  89C2              mov edx,eax
00001CF2  C1E204            shl edx,0x4
00001CF5  01D0              add eax,edx
00001CF7  05E08A0100        add eax,0x18ae0
00001CFC  C7400C00000000    mov dword [eax+0xc],0x0
00001D03  C745E800000000    mov dword [ebp-0x18],0x0
00001D0A  EB26              jmp short 0x1d32
00001D0C  8B45F4            mov eax,[ebp-0xc]
00001D0F  C1E003            shl eax,0x3
00001D12  89C2              mov edx,eax
00001D14  C1E204            shl edx,0x4
00001D17  01D0              add eax,edx
00001D19  0345E8            add eax,[ebp-0x18]
00001D1C  83C007            add eax,byte +0x7
00001D1F  C1E004            shl eax,0x4
00001D22  05808A0100        add eax,0x18a80
00001D27  C7400800000000    mov dword [eax+0x8],0x0
00001D2E  8345E801          add dword [ebp-0x18],byte +0x1
00001D32  837DE81F          cmp dword [ebp-0x18],byte +0x1f
00001D36  7ED4              jng 0x1d0c
00001D38  8B45F4            mov eax,[ebp-0xc]
00001D3B  C1E007            shl eax,0x7
00001D3E  89C2              mov edx,eax
00001D40  C1E204            shl edx,0x4
00001D43  01D0              add eax,edx
00001D45  05108B0100        add eax,0x18b10
00001D4A  8B55C0            mov edx,[ebp-0x40]
00001D4D  895008            mov [eax+0x8],edx
00001D50  8B55C4            mov edx,[ebp-0x3c]
00001D53  89500C            mov [eax+0xc],edx
00001D56  8B55C8            mov edx,[ebp-0x38]
00001D59  895010            mov [eax+0x10],edx
00001D5C  8B55CC            mov edx,[ebp-0x34]
00001D5F  895014            mov [eax+0x14],edx
00001D62  8B45F4            mov eax,[ebp-0xc]
00001D65  C1E007            shl eax,0x7
00001D68  89C2              mov edx,eax
00001D6A  C1E204            shl edx,0x4
00001D6D  01D0              add eax,edx
00001D6F  8D90008B0100      lea edx,[eax+0x18b00]
00001D75  8B45F4            mov eax,[ebp-0xc]
00001D78  C1E007            shl eax,0x7
00001D7B  89C1              mov ecx,eax
00001D7D  C1E104            shl ecx,0x4
00001D80  01C8              add eax,ecx
00001D82  05108B0100        add eax,0x18b10
00001D87  8B4808            mov ecx,[eax+0x8]
00001D8A  894A08            mov [edx+0x8],ecx
00001D8D  8B480C            mov ecx,[eax+0xc]
00001D90  894A0C            mov [edx+0xc],ecx
00001D93  8B4810            mov ecx,[eax+0x10]
00001D96  894A10            mov [edx+0x10],ecx
00001D99  8B4014            mov eax,[eax+0x14]
00001D9C  894214            mov [edx+0x14],eax
00001D9F  8B45F4            mov eax,[ebp-0xc]
00001DA2  C1E007            shl eax,0x7
00001DA5  89C2              mov edx,eax
00001DA7  C1E204            shl edx,0x4
00001DAA  01D0              add eax,edx
00001DAC  8D90F08A0100      lea edx,[eax+0x18af0]
00001DB2  8B45F4            mov eax,[ebp-0xc]
00001DB5  C1E007            shl eax,0x7
00001DB8  89C1              mov ecx,eax
00001DBA  C1E104            shl ecx,0x4
00001DBD  01C8              add eax,ecx
00001DBF  05008B0100        add eax,0x18b00
00001DC4  8B4808            mov ecx,[eax+0x8]
00001DC7  894A08            mov [edx+0x8],ecx
00001DCA  8B480C            mov ecx,[eax+0xc]
00001DCD  894A0C            mov [edx+0xc],ecx
00001DD0  8B4810            mov ecx,[eax+0x10]
00001DD3  894A10            mov [edx+0x10],ecx
00001DD6  8B4014            mov eax,[eax+0x14]
00001DD9  894214            mov [edx+0x14],eax
00001DDC  8B45F4            mov eax,[ebp-0xc]
00001DDF  C1E007            shl eax,0x7
00001DE2  89C2              mov edx,eax
00001DE4  C1E204            shl edx,0x4
00001DE7  01D0              add eax,edx
00001DE9  0570020000        add eax,0x270
00001DEE  05808A0100        add eax,0x18a80
00001DF3  83C008            add eax,byte +0x8
00001DF6  C744240801040000  mov dword [esp+0x8],0x401
00001DFE  C74424043C200100  mov dword [esp+0x4],0x1203c
00001E06  890424            mov [esp],eax
00001E09  E8D7F5FFFF        call dword 0x13e5
00001E0E  8B45F4            mov eax,[ebp-0xc]
00001E11  C1E007            shl eax,0x7
00001E14  89C2              mov edx,eax
00001E16  C1E204            shl edx,0x4
00001E19  01D0              add eax,edx
00001E1B  05F0900100        add eax,0x190f0
00001E20  C7400C00000000    mov dword [eax+0xc],0x0
00001E27  8B45F4            mov eax,[ebp-0xc]
00001E2A  C1E007            shl eax,0x7
00001E2D  89C2              mov edx,eax
00001E2F  C1E204            shl edx,0x4
00001E32  01D0              add eax,edx
00001E34  0500910100        add eax,0x19100
00001E39  C70000000000      mov dword [eax],0x0
00001E3F  C745E401000000    mov dword [ebp-0x1c],0x1
00001E46  EB2B              jmp short 0x1e73
00001E48  8B45E4            mov eax,[ebp-0x1c]
00001E4B  8D50FF            lea edx,[eax-0x1]
00001E4E  8B45F4            mov eax,[ebp-0xc]
00001E51  C1E003            shl eax,0x3
00001E54  89C1              mov ecx,eax
00001E56  C1E104            shl ecx,0x4
00001E59  01C8              add eax,ecx
00001E5B  01D0              add eax,edx
00001E5D  83C068            add eax,byte +0x68
00001E60  C1E004            shl eax,0x4
00001E63  05808A0100        add eax,0x18a80
00001E68  C7400401000000    mov dword [eax+0x4],0x1
00001E6F  8345E401          add dword [ebp-0x1c],byte +0x1
00001E73  837DE41F          cmp dword [ebp-0x1c],byte +0x1f
00001E77  76CF              jna 0x1e48
00001E79  8B45F4            mov eax,[ebp-0xc]
00001E7C  C1E007            shl eax,0x7
00001E7F  89C2              mov edx,eax
00001E81  C1E204            shl edx,0x4
00001E84  01D0              add eax,edx
00001E86  05F0920100        add eax,0x192f0
00001E8B  C7400401000000    mov dword [eax+0x4],0x1
00001E92  8B45F4            mov eax,[ebp-0xc]
00001E95  C1E007            shl eax,0x7
00001E98  89C2              mov edx,eax
00001E9A  C1E204            shl edx,0x4
00001E9D  01D0              add eax,edx
00001E9F  05F0920100        add eax,0x192f0
00001EA4  C7400800000000    mov dword [eax+0x8],0x0
00001EAB  8B45F4            mov eax,[ebp-0xc]
00001EAE  C1E007            shl eax,0x7
00001EB1  89C2              mov edx,eax
00001EB3  C1E204            shl edx,0x4
00001EB6  01D0              add eax,edx
00001EB8  05F0920100        add eax,0x192f0
00001EBD  C7400C00000000    mov dword [eax+0xc],0x0
00001EC4  837D0800          cmp dword [ebp+0x8],byte +0x0
00001EC8  0F84E7000000      jz dword 0x1fb5
00001ECE  8B4508            mov eax,[ebp+0x8]
00001ED1  8B406C            mov eax,[eax+0x6c]
00001ED4  85C0              test eax,eax
00001ED6  756C              jnz 0x1f44
00001ED8  8B45F4            mov eax,[ebp-0xc]
00001EDB  C1E007            shl eax,0x7
00001EDE  89C2              mov edx,eax
00001EE0  C1E204            shl edx,0x4
00001EE3  01D0              add eax,edx
00001EE5  8D90808A0100      lea edx,[eax+0x18a80]
00001EEB  8B4508            mov eax,[ebp+0x8]
00001EEE  89506C            mov [eax+0x6c],edx
00001EF1  8B45F4            mov eax,[ebp-0xc]
00001EF4  C1E007            shl eax,0x7
00001EF7  89C2              mov edx,eax
00001EF9  C1E204            shl edx,0x4
00001EFC  01D0              add eax,edx
00001EFE  8D90808A0100      lea edx,[eax+0x18a80]
00001F04  8B45F4            mov eax,[ebp-0xc]
00001F07  C1E007            shl eax,0x7
00001F0A  89C1              mov ecx,eax
00001F0C  C1E104            shl ecx,0x4
00001F0F  01C8              add eax,ecx
00001F11  05F08A0100        add eax,0x18af0
00001F16  895004            mov [eax+0x4],edx
00001F19  8B45F4            mov eax,[ebp-0xc]
00001F1C  C1E007            shl eax,0x7
00001F1F  89C2              mov edx,eax
00001F21  C1E204            shl edx,0x4
00001F24  01D0              add eax,edx
00001F26  05F08A0100        add eax,0x18af0
00001F2B  8B5004            mov edx,[eax+0x4]
00001F2E  8B45F4            mov eax,[ebp-0xc]
00001F31  C1E007            shl eax,0x7
00001F34  89C1              mov ecx,eax
00001F36  C1E104            shl ecx,0x4
00001F39  01C8              add eax,ecx
00001F3B  05F08A0100        add eax,0x18af0
00001F40  8910              mov [eax],edx
00001F42  EB71              jmp short 0x1fb5
00001F44  8B4508            mov eax,[ebp+0x8]
00001F47  8B506C            mov edx,[eax+0x6c]
00001F4A  8B45F4            mov eax,[ebp-0xc]
00001F4D  C1E007            shl eax,0x7
00001F50  89C1              mov ecx,eax
00001F52  C1E104            shl ecx,0x4
00001F55  01C8              add eax,ecx
00001F57  05F08A0100        add eax,0x18af0
00001F5C  8910              mov [eax],edx
00001F5E  8B4508            mov eax,[ebp+0x8]
00001F61  8B406C            mov eax,[eax+0x6c]
00001F64  8B5074            mov edx,[eax+0x74]
00001F67  8B45F4            mov eax,[ebp-0xc]
00001F6A  C1E007            shl eax,0x7
00001F6D  89C1              mov ecx,eax
00001F6F  C1E104            shl ecx,0x4
00001F72  01C8              add eax,ecx
00001F74  05F08A0100        add eax,0x18af0
00001F79  895004            mov [eax+0x4],edx
00001F7C  8B4508            mov eax,[ebp+0x8]
00001F7F  8B406C            mov eax,[eax+0x6c]
00001F82  8B5074            mov edx,[eax+0x74]
00001F85  8B45F4            mov eax,[ebp-0xc]
00001F88  C1E007            shl eax,0x7
00001F8B  89C1              mov ecx,eax
00001F8D  C1E104            shl ecx,0x4
00001F90  01C8              add eax,ecx
00001F92  05808A0100        add eax,0x18a80
00001F97  894270            mov [edx+0x70],eax
00001F9A  8B4508            mov eax,[ebp+0x8]
00001F9D  8B506C            mov edx,[eax+0x6c]
00001FA0  8B45F4            mov eax,[ebp-0xc]
00001FA3  C1E007            shl eax,0x7
00001FA6  89C1              mov ecx,eax
00001FA8  C1E104            shl ecx,0x4
00001FAB  01C8              add eax,ecx
00001FAD  05808A0100        add eax,0x18a80
00001FB2  894274            mov [edx+0x74],eax
00001FB5  A1608A0100        mov eax,[0x18a60]
00001FBA  83C001            add eax,byte +0x1
00001FBD  A3608A0100        mov [0x18a60],eax
00001FC2  C7042401000000    mov dword [esp],0x1
00001FC9  E8926D0000        call dword 0x8d60
00001FCE  C7042401000000    mov dword [esp],0x1
00001FD5  E8866D0000        call dword 0x8d60
00001FDA  C7042401000000    mov dword [esp],0x1
00001FE1  E87A6D0000        call dword 0x8d60
00001FE6  8B45BC            mov eax,[ebp-0x44]
00001FE9  0F22D8            mov cr3,eax
00001FEC  8B45F4            mov eax,[ebp-0xc]
00001FEF  EB34              jmp short 0x2025
00001FF1  90                nop
00001FF2  EB04              jmp short 0x1ff8
00001FF4  90                nop
00001FF5  EB01              jmp short 0x1ff8
00001FF7  90                nop
00001FF8  8B45F4            mov eax,[ebp-0xc]
00001FFB  C1E007            shl eax,0x7
00001FFE  89C2              mov edx,eax
00002000  C1E204            shl edx,0x4
00002003  01D0              add eax,edx
00002005  05C08A0100        add eax,0x18ac0
0000200A  8B00              mov eax,[eax]
0000200C  890424            mov [esp],eax
0000200F  E8DA410000        call dword 0x61ee
00002014  8B45BC            mov eax,[ebp-0x44]
00002017  0F22D8            mov cr3,eax
0000201A  EB04              jmp short 0x2020
0000201C  90                nop
0000201D  EB01              jmp short 0x2020
0000201F  90                nop
00002020  B8FFFFFFFF        mov eax,0xffffffff
00002025  C9                leave
00002026  C3                ret
00002027  005589            add [ebp-0x77],dl
0000202A  E583              in eax,0x83
0000202C  EC                in al,dx
0000202D  288B45008945      sub [ebx+0x45890045],cl
00002033  F0A1608A0100      lock mov eax,[0x18a60]
00002039  85C0              test eax,eax
0000203B  7511              jnz 0x204e
0000203D  C704244D200100    mov dword [esp],0x1204d
00002044  E87BF7FFFF        call dword 0x17c4
00002049  E92C030000        jmp dword 0x237a
0000204E  A1608A0100        mov eax,[0x18a60]
00002053  83F801            cmp eax,byte +0x1
00002056  7511              jnz 0x2069
00002058  C7042459200100    mov dword [esp],0x12059
0000205F  E860F7FFFF        call dword 0x17c4
00002064  E911030000        jmp dword 0x237a
00002069  8B0D80AA0300      mov ecx,[dword 0x3aa80]
0000206F  8B45F0            mov eax,[ebp-0x10]
00002072  8B5008            mov edx,[eax+0x8]
00002075  89C8              mov eax,ecx
00002077  C1E007            shl eax,0x7
0000207A  89C1              mov ecx,eax
0000207C  C1E104            shl ecx,0x4
0000207F  01C8              add eax,ecx
00002081  05808A0100        add eax,0x18a80
00002086  8910              mov [eax],edx
00002088  8B0D80AA0300      mov ecx,[dword 0x3aa80]
0000208E  8B45F0            mov eax,[ebp-0x10]
00002091  8B500C            mov edx,[eax+0xc]
00002094  89C8              mov eax,ecx
00002096  C1E007            shl eax,0x7
00002099  89C1              mov ecx,eax
0000209B  C1E104            shl ecx,0x4
0000209E  01C8              add eax,ecx
000020A0  05848A0100        add eax,0x18a84
000020A5  8910              mov [eax],edx
000020A7  8B0D80AA0300      mov ecx,[dword 0x3aa80]
000020AD  8B45F0            mov eax,[ebp-0x10]
000020B0  8B5010            mov edx,[eax+0x10]
000020B3  89C8              mov eax,ecx
000020B5  C1E007            shl eax,0x7
000020B8  89C1              mov ecx,eax
000020BA  C1E104            shl ecx,0x4
000020BD  01C8              add eax,ecx
000020BF  05888A0100        add eax,0x18a88
000020C4  8910              mov [eax],edx
000020C6  8B0D80AA0300      mov ecx,[dword 0x3aa80]
000020CC  8B45F0            mov eax,[ebp-0x10]
000020CF  8B5014            mov edx,[eax+0x14]
000020D2  89C8              mov eax,ecx
000020D4  C1E007            shl eax,0x7
000020D7  89C1              mov ecx,eax
000020D9  C1E104            shl ecx,0x4
000020DC  01C8              add eax,ecx
000020DE  058C8A0100        add eax,0x18a8c
000020E3  8910              mov [eax],edx
000020E5  8B0D80AA0300      mov ecx,[dword 0x3aa80]
000020EB  8B45F0            mov eax,[ebp-0x10]
000020EE  8B5018            mov edx,[eax+0x18]
000020F1  89C8              mov eax,ecx
000020F3  C1E007            shl eax,0x7
000020F6  89C1              mov ecx,eax
000020F8  C1E104            shl ecx,0x4
000020FB  01C8              add eax,ecx
000020FD  05908A0100        add eax,0x18a90
00002102  8910              mov [eax],edx
00002104  8B0D80AA0300      mov ecx,[dword 0x3aa80]
0000210A  8B45F0            mov eax,[ebp-0x10]
0000210D  8B501C            mov edx,[eax+0x1c]
00002110  89C8              mov eax,ecx
00002112  C1E007            shl eax,0x7
00002115  89C1              mov ecx,eax
00002117  C1E104            shl ecx,0x4
0000211A  01C8              add eax,ecx
0000211C  05948A0100        add eax,0x18a94
00002121  8910              mov [eax],edx
00002123  8B0D80AA0300      mov ecx,[dword 0x3aa80]
00002129  8B45F0            mov eax,[ebp-0x10]
0000212C  8B5020            mov edx,[eax+0x20]
0000212F  89C8              mov eax,ecx
00002131  C1E007            shl eax,0x7
00002134  89C1              mov ecx,eax
00002136  C1E104            shl ecx,0x4
00002139  01C8              add eax,ecx
0000213B  05988A0100        add eax,0x18a98
00002140  8910              mov [eax],edx
00002142  8B0D80AA0300      mov ecx,[dword 0x3aa80]
00002148  8B45F0            mov eax,[ebp-0x10]
0000214B  8B5028            mov edx,[eax+0x28]
0000214E  89C8              mov eax,ecx
00002150  C1E007            shl eax,0x7
00002153  89C1              mov ecx,eax
00002155  C1E104            shl ecx,0x4
00002158  01C8              add eax,ecx
0000215A  059C8A0100        add eax,0x18a9c
0000215F  8910              mov [eax],edx
00002161  8B0D80AA0300      mov ecx,[dword 0x3aa80]
00002167  8B45F0            mov eax,[ebp-0x10]
0000216A  8B502C            mov edx,[eax+0x2c]
0000216D  89C8              mov eax,ecx
0000216F  C1E007            shl eax,0x7
00002172  89C1              mov ecx,eax
00002174  C1E104            shl ecx,0x4
00002177  01C8              add eax,ecx
00002179  05A08A0100        add eax,0x18aa0
0000217E  8910              mov [eax],edx
00002180  8B0D80AA0300      mov ecx,[dword 0x3aa80]
00002186  8B45F0            mov eax,[ebp-0x10]
00002189  8B5030            mov edx,[eax+0x30]
0000218C  89C8              mov eax,ecx
0000218E  C1E007            shl eax,0x7
00002191  89C1              mov ecx,eax
00002193  C1E104            shl ecx,0x4
00002196  01C8              add eax,ecx
00002198  05A48A0100        add eax,0x18aa4
0000219D  8910              mov [eax],edx
0000219F  8B0D80AA0300      mov ecx,[dword 0x3aa80]
000021A5  8B45F0            mov eax,[ebp-0x10]
000021A8  8B5034            mov edx,[eax+0x34]
000021AB  89C8              mov eax,ecx
000021AD  C1E007            shl eax,0x7
000021B0  89C1              mov ecx,eax
000021B2  C1E104            shl ecx,0x4
000021B5  01C8              add eax,ecx
000021B7  05A88A0100        add eax,0x18aa8
000021BC  8910              mov [eax],edx
000021BE  8B0D80AA0300      mov ecx,[dword 0x3aa80]
000021C4  8B45F0            mov eax,[ebp-0x10]
000021C7  8B5038            mov edx,[eax+0x38]
000021CA  89C8              mov eax,ecx
000021CC  C1E007            shl eax,0x7
000021CF  89C1              mov ecx,eax
000021D1  C1E104            shl ecx,0x4
000021D4  01C8              add eax,ecx
000021D6  05AC8A0100        add eax,0x18aac
000021DB  8910              mov [eax],edx
000021DD  8B0D80AA0300      mov ecx,[dword 0x3aa80]
000021E3  8B45F0            mov eax,[ebp-0x10]
000021E6  8B503C            mov edx,[eax+0x3c]
000021E9  89C8              mov eax,ecx
000021EB  C1E007            shl eax,0x7
000021EE  89C1              mov ecx,eax
000021F0  C1E104            shl ecx,0x4
000021F3  01C8              add eax,ecx
000021F5  05B08A0100        add eax,0x18ab0
000021FA  8910              mov [eax],edx
000021FC  8B0D80AA0300      mov ecx,[dword 0x3aa80]
00002202  8B45F0            mov eax,[ebp-0x10]
00002205  8B5040            mov edx,[eax+0x40]
00002208  89C8              mov eax,ecx
0000220A  C1E007            shl eax,0x7
0000220D  89C1              mov ecx,eax
0000220F  C1E104            shl ecx,0x4
00002212  01C8              add eax,ecx
00002214  05B48A0100        add eax,0x18ab4
00002219  8910              mov [eax],edx
0000221B  8B45F0            mov eax,[ebp-0x10]
0000221E  83C03C            add eax,byte +0x3c
00002221  8B00              mov eax,[eax]
00002223  83F808            cmp eax,byte +0x8
00002226  753D              jnz 0x2265
00002228  A180AA0300        mov eax,[0x3aa80]
0000222D  8B55F0            mov edx,[ebp-0x10]
00002230  83C224            add edx,byte +0x24
00002233  8B12              mov edx,[edx]
00002235  83C20C            add edx,byte +0xc
00002238  C1E007            shl eax,0x7
0000223B  89C1              mov ecx,eax
0000223D  C1E104            shl ecx,0x4
00002240  01C8              add eax,ecx
00002242  05B88A0100        add eax,0x18ab8
00002247  8910              mov [eax],edx
00002249  A180AA0300        mov eax,[0x3aa80]
0000224E  C1E007            shl eax,0x7
00002251  89C2              mov edx,eax
00002253  C1E204            shl edx,0x4
00002256  01D0              add eax,edx
00002258  05BC8A0100        add eax,0x18abc
0000225D  C70018000000      mov dword [eax],0x18
00002263  EB3E              jmp short 0x22a3
00002265  8B0D80AA0300      mov ecx,[dword 0x3aa80]
0000226B  8B45F0            mov eax,[ebp-0x10]
0000226E  8B5044            mov edx,[eax+0x44]
00002271  89C8              mov eax,ecx
00002273  C1E007            shl eax,0x7
00002276  89C1              mov ecx,eax
00002278  C1E104            shl ecx,0x4
0000227B  01C8              add eax,ecx
0000227D  05B88A0100        add eax,0x18ab8
00002282  8910              mov [eax],edx
00002284  8B0D80AA0300      mov ecx,[dword 0x3aa80]
0000228A  8B45F0            mov eax,[ebp-0x10]
0000228D  8B5048            mov edx,[eax+0x48]
00002290  89C8              mov eax,ecx
00002292  C1E007            shl eax,0x7
00002295  89C1              mov ecx,eax
00002297  C1E104            shl ecx,0x4
0000229A  01C8              add eax,ecx
0000229C  05BC8A0100        add eax,0x18abc
000022A1  8910              mov [eax],edx
000022A3  A180AA0300        mov eax,[0x3aa80]
000022A8  83C001            add eax,byte +0x1
000022AB  8945F4            mov [ebp-0xc],eax
000022AE  EB35              jmp short 0x22e5
000022B0  8B45F4            mov eax,[ebp-0xc]
000022B3  C1E007            shl eax,0x7
000022B6  89C2              mov edx,eax
000022B8  C1E204            shl edx,0x4
000022BB  01D0              add eax,edx
000022BD  05D08A0100        add eax,0x18ad0
000022C2  8B00              mov eax,[eax]
000022C4  85C0              test eax,eax
000022C6  7419              jz 0x22e1
000022C8  8B45F4            mov eax,[ebp-0xc]
000022CB  C1E007            shl eax,0x7
000022CE  89C2              mov edx,eax
000022D0  C1E204            shl edx,0x4
000022D3  01D0              add eax,edx
000022D5  05F4920100        add eax,0x192f4
000022DA  8B00              mov eax,[eax]
000022DC  83F801            cmp eax,byte +0x1
000022DF  740C              jz 0x22ed
000022E1  8345F401          add dword [ebp-0xc],byte +0x1
000022E5  837DF43F          cmp dword [ebp-0xc],byte +0x3f
000022E9  7EC5              jng 0x22b0
000022EB  EB01              jmp short 0x22ee
000022ED  90                nop
000022EE  837DF440          cmp dword [ebp-0xc],byte +0x40
000022F2  757B              jnz 0x236f
000022F4  C745F400000000    mov dword [ebp-0xc],0x0
000022FB  EB35              jmp short 0x2332
000022FD  8B45F4            mov eax,[ebp-0xc]
00002300  C1E007            shl eax,0x7
00002303  89C2              mov edx,eax
00002305  C1E204            shl edx,0x4
00002308  01D0              add eax,edx
0000230A  05D08A0100        add eax,0x18ad0
0000230F  8B00              mov eax,[eax]
00002311  85C0              test eax,eax
00002313  7419              jz 0x232e
00002315  8B45F4            mov eax,[ebp-0xc]
00002318  C1E007            shl eax,0x7
0000231B  89C2              mov edx,eax
0000231D  C1E204            shl edx,0x4
00002320  01D0              add eax,edx
00002322  05F4920100        add eax,0x192f4
00002327  8B00              mov eax,[eax]
00002329  83F801            cmp eax,byte +0x1
0000232C  7410              jz 0x233e
0000232E  8345F401          add dword [ebp-0xc],byte +0x1
00002332  A180AA0300        mov eax,[0x3aa80]
00002337  3945F4            cmp [ebp-0xc],eax
0000233A  7EC1              jng 0x22fd
0000233C  EB01              jmp short 0x233f
0000233E  90                nop
0000233F  837DF440          cmp dword [ebp-0xc],byte +0x40
00002343  752A              jnz 0x236f
00002345  FA                cli
00002346  C7442408BC200100  mov dword [esp+0x8],0x120bc
0000234E  C744240466200100  mov dword [esp+0x4],0x12066
00002356  C7042478200100    mov dword [esp],0x12078
0000235D  E862F4FFFF        call dword 0x17c4
00002362  C7042488200100    mov dword [esp],0x12088
00002369  E856F4FFFF        call dword 0x17c4
0000236E  F4                hlt
0000236F  8B45F4            mov eax,[ebp-0xc]
00002372  890424            mov [esp],eax
00002375  E802000000        call dword 0x237c
0000237A  C9                leave
0000237B  C3                ret
0000237C  55                push ebp
0000237D  89E5              mov ebp,esp
0000237F  83EC28            sub esp,byte +0x28
00002382  837D083F          cmp dword [ebp+0x8],byte +0x3f
00002386  7E31              jng 0x23b9
00002388  FA                cli
00002389  C7442408AC200100  mov dword [esp+0x8],0x120ac
00002391  C744240466200100  mov dword [esp+0x4],0x12066
00002399  C7042478200100    mov dword [esp],0x12078
000023A0  E81FF4FFFF        call dword 0x17c4
000023A5  8B4508            mov eax,[ebp+0x8]
000023A8  89442404          mov [esp+0x4],eax
000023AC  C704249D200100    mov dword [esp],0x1209d
000023B3  E80CF4FFFF        call dword 0x17c4
000023B8  F4                hlt
000023B9  8B4508            mov eax,[ebp+0x8]
000023BC  C1E007            shl eax,0x7
000023BF  89C2              mov edx,eax
000023C1  C1E204            shl edx,0x4
000023C4  01D0              add eax,edx
000023C6  05808A0100        add eax,0x18a80
000023CB  8945F0            mov [ebp-0x10],eax
000023CE  8B4508            mov eax,[ebp+0x8]
000023D1  A380AA0300        mov [0x3aa80],eax
000023D6  A180AA0300        mov eax,[0x3aa80]
000023DB  85C0              test eax,eax
000023DD  7432              jz 0x2411
000023DF  8B45F0            mov eax,[ebp-0x10]
000023E2  8B9080060000      mov edx,[eax+0x680]
000023E8  8B45F0            mov eax,[ebp-0x10]
000023EB  8B807C060000      mov eax,[eax+0x67c]
000023F1  89542404          mov [esp+0x4],edx
000023F5  890424            mov [esp],eax
000023F8  E823040000        call dword 0x2820
000023FD  8945F4            mov [ebp-0xc],eax
00002400  837DF400          cmp dword [ebp-0xc],byte +0x0
00002404  740B              jz 0x2411
00002406  8B45F4            mov eax,[ebp-0xc]
00002409  890424            mov [esp],eax
0000240C  E85F040000        call dword 0x2870
00002411  8B45F0            mov eax,[ebp-0x10]
00002414  8B4030            mov eax,[eax+0x30]
00002417  83F808            cmp eax,byte +0x8
0000241A  750B              jnz 0x2427
0000241C  8B45F0            mov eax,[ebp-0x10]
0000241F  8B4038            mov eax,[eax+0x38]
00002422  8945EC            mov [ebp-0x14],eax
00002425  EB09              jmp short 0x2430
00002427  8B45F0            mov eax,[ebp-0x10]
0000242A  8B405C            mov eax,[eax+0x5c]
0000242D  8945EC            mov [ebp-0x14],eax
00002430  8B45F0            mov eax,[ebp-0x10]
00002433  8B405C            mov eax,[eax+0x5c]
00002436  A304F00300        mov [0x3f004],eax
0000243B  66B81800          mov ax,0x18
0000243F  8ED0              mov ss,ax
00002441  8B65EC            mov esp,[ebp-0x14]
00002444  8B75F0            mov esi,[ebp-0x10]
00002447  8B4630            mov eax,[esi+0x30]
0000244A  83F808            cmp eax,byte +0x8
0000244D  7406              jz 0x2455
0000244F  FF763C            push dword [esi+0x3c]
00002452  FF7638            push dword [esi+0x38]
00002455  FF7634            push dword [esi+0x34]
00002458  FF7630            push dword [esi+0x30]
0000245B  FF762C            push dword [esi+0x2c]
0000245E  FF7628            push dword [esi+0x28]
00002461  FF7624            push dword [esi+0x24]
00002464  FF7620            push dword [esi+0x20]
00002467  FF761C            push dword [esi+0x1c]
0000246A  FF7618            push dword [esi+0x18]
0000246D  FF7614            push dword [esi+0x14]
00002470  FF7610            push dword [esi+0x10]
00002473  FF760C            push dword [esi+0xc]
00002476  FF7608            push dword [esi+0x8]
00002479  FF7604            push dword [esi+0x4]
0000247C  FF36              push dword [esi]
0000247E  FA                cli
0000247F  B020              mov al,0x20
00002481  E620              out 0x20,al
00002483  8B4640            mov eax,[esi+0x40]
00002486  0F22D8            mov cr3,eax
00002489  0FA9              pop gs
0000248B  0FA1              pop fs
0000248D  07                pop es
0000248E  1F                pop ds
0000248F  5F                pop edi
00002490  5E                pop esi
00002491  5D                pop ebp
00002492  5B                pop ebx
00002493  5A                pop edx
00002494  59                pop ecx
00002495  58                pop eax
00002496  CF                iretd
00002497  C9                leave
00002498  C3                ret
00002499  0000              add [eax],al
0000249B  005589            add [ebp-0x77],dl
0000249E  E583              in eax,0x83
000024A0  EC                in al,dx
000024A1  0C8B              or al,0x8b
000024A3  4D                dec ebp
000024A4  088B550C8B45      or [ebx+0x458b0c55],cl
000024AA  10884DFC8855      adc [eax+0x5588fc4d],cl
000024B0  F8                clc
000024B1  8845F4            mov [ebp-0xc],al
000024B4  8B0DA84C0100      mov ecx,[dword 0x14ca8]
000024BA  0FB655F4          movzx edx,byte [ebp-0xc]
000024BE  89D0              mov eax,edx
000024C0  C1E002            shl eax,0x2
000024C3  01D0              add eax,edx
000024C5  C1E004            shl eax,0x4
000024C8  89C2              mov edx,eax
000024CA  0FB645F8          movzx eax,byte [ebp-0x8]
000024CE  01D0              add eax,edx
000024D0  01C0              add eax,eax
000024D2  8D1401            lea edx,[ecx+eax]
000024D5  660FBE4DFC        movsx cx,[ebp-0x4]
000024DA  0FB605A44C0100    movzx eax,byte [dword 0x14ca4]
000024E1  0FB6C0            movzx eax,al
000024E4  C1E008            shl eax,0x8
000024E7  09C8              or eax,ecx
000024E9  668902            mov [edx],ax
000024EC  C9                leave
000024ED  C3                ret
000024EE  55                push ebp
000024EF  89E5              mov ebp,esp
000024F1  83EC14            sub esp,byte +0x14
000024F4  8B550C            mov edx,[ebp+0xc]
000024F7  8B4510            mov eax,[ebp+0x10]
000024FA  8855FC            mov [ebp-0x4],dl
000024FD  8845F8            mov [ebp-0x8],al
00002500  EB37              jmp short 0x2539
00002502  0FB64DF8          movzx ecx,byte [ebp-0x8]
00002506  0FB655FC          movzx edx,byte [ebp-0x4]
0000250A  8B4508            mov eax,[ebp+0x8]
0000250D  0FB600            movzx eax,byte [eax]
00002510  0FBEC0            movsx eax,al
00002513  83450801          add dword [ebp+0x8],byte +0x1
00002517  894C2408          mov [esp+0x8],ecx
0000251B  89542404          mov [esp+0x4],edx
0000251F  890424            mov [esp],eax
00002522  E875FFFFFF        call dword 0x249c
00002527  8045FC01          add byte [ebp-0x4],0x1
0000252B  807DFC4F          cmp byte [ebp-0x4],0x4f
0000252F  7608              jna 0x2539
00002531  C645FC00          mov byte [ebp-0x4],0x0
00002535  8045F801          add byte [ebp-0x8],0x1
00002539  8B4508            mov eax,[ebp+0x8]
0000253C  0FB600            movzx eax,byte [eax]
0000253F  84C0              test al,al
00002541  75BF              jnz 0x2502
00002543  C9                leave
00002544  C3                ret
00002545  55                push ebp
00002546  89E5              mov ebp,esp
00002548  83EC28            sub esp,byte +0x28
0000254B  8B4508            mov eax,[ebp+0x8]
0000254E  8845F4            mov [ebp-0xc],al
00002551  807DF40A          cmp byte [ebp-0xc],0xa
00002555  751B              jnz 0x2572
00002557  0FB605C0F00300    movzx eax,byte [dword 0x3f0c0]
0000255E  83C001            add eax,byte +0x1
00002561  A2C0F00300        mov [0x3f0c0],al
00002566  C605C1F0030000    mov byte [dword 0x3f0c1],0x0
0000256D  E900010000        jmp dword 0x2672
00002572  807DF40D          cmp byte [ebp-0xc],0xd
00002576  750C              jnz 0x2584
00002578  C605C1F0030000    mov byte [dword 0x3f0c1],0x0
0000257F  E9EE000000        jmp dword 0x2672
00002584  807DF408          cmp byte [ebp-0xc],0x8
00002588  757B              jnz 0x2605
0000258A  0FB605C1F00300    movzx eax,byte [dword 0x3f0c1]
00002591  84C0              test al,al
00002593  7411              jz 0x25a6
00002595  0FB605C1F00300    movzx eax,byte [dword 0x3f0c1]
0000259C  83E801            sub eax,byte +0x1
0000259F  A2C1F00300        mov [0x3f0c1],al
000025A4  EB21              jmp short 0x25c7
000025A6  0FB605C0F00300    movzx eax,byte [dword 0x3f0c0]
000025AD  84C0              test al,al
000025AF  7416              jz 0x25c7
000025B1  C605C1F003004F    mov byte [dword 0x3f0c1],0x4f
000025B8  0FB605C0F00300    movzx eax,byte [dword 0x3f0c0]
000025BF  83E801            sub eax,byte +0x1
000025C2  A2C0F00300        mov [0x3f0c0],al
000025C7  8B0DA84C0100      mov ecx,[dword 0x14ca8]
000025CD  0FB605C0F00300    movzx eax,byte [dword 0x3f0c0]
000025D4  0FB6D0            movzx edx,al
000025D7  89D0              mov eax,edx
000025D9  C1E002            shl eax,0x2
000025DC  01D0              add eax,edx
000025DE  C1E004            shl eax,0x4
000025E1  89C2              mov edx,eax
000025E3  0FB605C1F00300    movzx eax,byte [dword 0x3f0c1]
000025EA  0FB6C0            movzx eax,al
000025ED  01D0              add eax,edx
000025EF  01C0              add eax,eax
000025F1  01C8              add eax,ecx
000025F3  0FB615A44C0100    movzx edx,byte [dword 0x14ca4]
000025FA  0FB6D2            movzx edx,dl
000025FD  C1E208            shl edx,0x8
00002600  668910            mov [eax],dx
00002603  EB6D              jmp short 0x2672
00002605  807DF409          cmp byte [ebp-0xc],0x9
00002609  7514              jnz 0x261f
0000260B  0FB605C1F00300    movzx eax,byte [dword 0x3f0c1]
00002612  83E0F8            and eax,byte -0x8
00002615  83C008            add eax,byte +0x8
00002618  A2C1F00300        mov [0x3f0c1],al
0000261D  EB53              jmp short 0x2672
0000261F  8B0DA84C0100      mov ecx,[dword 0x14ca8]
00002625  0FB605C0F00300    movzx eax,byte [dword 0x3f0c0]
0000262C  0FB6D0            movzx edx,al
0000262F  89D0              mov eax,edx
00002631  C1E002            shl eax,0x2
00002634  01D0              add eax,edx
00002636  C1E004            shl eax,0x4
00002639  89C2              mov edx,eax
0000263B  0FB605C1F00300    movzx eax,byte [dword 0x3f0c1]
00002642  0FB6C0            movzx eax,al
00002645  01D0              add eax,edx
00002647  01C0              add eax,eax
00002649  8D1401            lea edx,[ecx+eax]
0000264C  660FBE4DF4        movsx cx,[ebp-0xc]
00002651  0FB605A44C0100    movzx eax,byte [dword 0x14ca4]
00002658  0FB6C0            movzx eax,al
0000265B  C1E008            shl eax,0x8
0000265E  09C8              or eax,ecx
00002660  668902            mov [edx],ax
00002663  0FB605C1F00300    movzx eax,byte [dword 0x3f0c1]
0000266A  83C001            add eax,byte +0x1
0000266D  A2C1F00300        mov [0x3f0c1],al
00002672  0FB645F4          movzx eax,byte [ebp-0xc]
00002676  BAE9000000        mov edx,0xe9
0000267B  EE                out dx,al
0000267C  0FB605C1F00300    movzx eax,byte [dword 0x3f0c1]
00002683  3C4F              cmp al,0x4f
00002685  7616              jna 0x269d
00002687  C605C1F0030000    mov byte [dword 0x3f0c1],0x0
0000268E  0FB605C0F00300    movzx eax,byte [dword 0x3f0c0]
00002695  83C001            add eax,byte +0x1
00002698  A2C0F00300        mov [0x3f0c0],al
0000269D  0FB605C0F00300    movzx eax,byte [dword 0x3f0c0]
000026A4  3C18              cmp al,0x18
000026A6  7613              jna 0x26bb
000026A8  C7042401000000    mov dword [esp],0x1
000026AF  E832000000        call dword 0x26e6
000026B4  C605C0F0030018    mov byte [dword 0x3f0c0],0x18
000026BB  C9                leave
000026BC  C3                ret
000026BD  55                push ebp
000026BE  89E5              mov ebp,esp
000026C0  83EC18            sub esp,byte +0x18
000026C3  EB15              jmp short 0x26da
000026C5  8B4508            mov eax,[ebp+0x8]
000026C8  0FB600            movzx eax,byte [eax]
000026CB  0FBEC0            movsx eax,al
000026CE  83450801          add dword [ebp+0x8],byte +0x1
000026D2  890424            mov [esp],eax
000026D5  E86BFEFFFF        call dword 0x2545
000026DA  8B4508            mov eax,[ebp+0x8]
000026DD  0FB600            movzx eax,byte [eax]
000026E0  84C0              test al,al
000026E2  75E1              jnz 0x26c5
000026E4  C9                leave
000026E5  C3                ret
000026E6  55                push ebp
000026E7  89E5              mov ebp,esp
000026E9  53                push ebx
000026EA  83EC10            sub esp,byte +0x10
000026ED  8B1DA84C0100      mov ebx,[dword 0x14ca8]
000026F3  8B4D08            mov ecx,[ebp+0x8]
000026F6  BA4FECC44E        mov edx,0x4ec4ec4f
000026FB  89C8              mov eax,ecx
000026FD  F7E2              mul edx
000026FF  C1EA03            shr edx,0x3
00002702  6BC21A            imul eax,edx,byte +0x1a
00002705  89CA              mov edx,ecx
00002707  29C2              sub edx,eax
00002709  89D0              mov eax,edx
0000270B  C1E002            shl eax,0x2
0000270E  01D0              add eax,edx
00002710  C1E005            shl eax,0x5
00002713  01D8              add eax,ebx
00002715  8945F8            mov [ebp-0x8],eax
00002718  A1A84C0100        mov eax,[0x14ca8]
0000271D  8945F4            mov [ebp-0xc],eax
00002720  A1A84C0100        mov eax,[0x14ca8]
00002725  05A00F0000        add eax,0xfa0
0000272A  8945F0            mov [ebp-0x10],eax
0000272D  EB14              jmp short 0x2743
0000272F  8B45F8            mov eax,[ebp-0x8]
00002732  0FB710            movzx edx,word [eax]
00002735  8B45F4            mov eax,[ebp-0xc]
00002738  668910            mov [eax],dx
0000273B  8345F402          add dword [ebp-0xc],byte +0x2
0000273F  8345F802          add dword [ebp-0x8],byte +0x2
00002743  8B45F8            mov eax,[ebp-0x8]
00002746  3B45F0            cmp eax,[ebp-0x10]
00002749  72E4              jc 0x272f
0000274B  EB19              jmp short 0x2766
0000274D  0FB605A44C0100    movzx eax,byte [dword 0x14ca4]
00002754  0FB6C0            movzx eax,al
00002757  89C2              mov edx,eax
00002759  C1E208            shl edx,0x8
0000275C  8B45F4            mov eax,[ebp-0xc]
0000275F  668910            mov [eax],dx
00002762  8345F402          add dword [ebp-0xc],byte +0x2
00002766  8B45F4            mov eax,[ebp-0xc]
00002769  3B45F0            cmp eax,[ebp-0x10]
0000276C  72DF              jc 0x274d
0000276E  83C410            add esp,byte +0x10
00002771  5B                pop ebx
00002772  5D                pop ebp
00002773  C3                ret
00002774  55                push ebp
00002775  89E5              mov ebp,esp
00002777  83EC04            sub esp,byte +0x4
0000277A  C7042419000000    mov dword [esp],0x19
00002781  E860FFFFFF        call dword 0x26e6
00002786  C605C0F0030000    mov byte [dword 0x3f0c0],0x0
0000278D  0FB605C0F00300    movzx eax,byte [dword 0x3f0c0]
00002794  A2C1F00300        mov [0x3f0c1],al
00002799  C9                leave
0000279A  C3                ret
0000279B  55                push ebp
0000279C  89E5              mov ebp,esp
0000279E  83EC18            sub esp,byte +0x18
000027A1  8B5508            mov edx,[ebp+0x8]
000027A4  8B450C            mov eax,[ebp+0xc]
000027A7  8855EC            mov [ebp-0x14],dl
000027AA  8845E8            mov [ebp-0x18],al
000027AD  0FB655E8          movzx edx,byte [ebp-0x18]
000027B1  89D0              mov eax,edx
000027B3  C1E002            shl eax,0x2
000027B6  01D0              add eax,edx
000027B8  C1E004            shl eax,0x4
000027BB  89C2              mov edx,eax
000027BD  0FB645EC          movzx eax,byte [ebp-0x14]
000027C1  01D0              add eax,edx
000027C3  668945FE          mov [ebp-0x2],ax
000027C7  B80F000000        mov eax,0xf
000027CC  BAD4030000        mov edx,0x3d4
000027D1  EE                out dx,al
000027D2  0FB745FE          movzx eax,word [ebp-0x2]
000027D6  BAD5030000        mov edx,0x3d5
000027DB  EE                out dx,al
000027DC  B80E000000        mov eax,0xe
000027E1  BAD4030000        mov edx,0x3d4
000027E6  EE                out dx,al
000027E7  0FB745FE          movzx eax,word [ebp-0x2]
000027EB  66C1E808          shr ax,0x8
000027EF  BAD5030000        mov edx,0x3d5
000027F4  EE                out dx,al
000027F5  C9                leave
000027F6  C3                ret
000027F7  55                push ebp
000027F8  89E5              mov ebp,esp
000027FA  83EC08            sub esp,byte +0x8
000027FD  0FB605C0F00300    movzx eax,byte [dword 0x3f0c0]
00002804  0FB6D0            movzx edx,al
00002807  0FB605C1F00300    movzx eax,byte [dword 0x3f0c1]
0000280E  0FB6C0            movzx eax,al
00002811  89542404          mov [esp+0x4],edx
00002815  890424            mov [esp],eax
00002818  E87EFFFFFF        call dword 0x279b
0000281D  C9                leave
0000281E  C3                ret
0000281F  005589            add [ebp-0x77],dl
00002822  E553              in eax,0x53
00002824  83EC10            sub esp,byte +0x10
00002827  83650CE4          and dword [ebp+0xc],byte -0x1c
0000282B  8B450C            mov eax,[ebp+0xc]
0000282E  F7D0              not eax
00002830  214508            and [ebp+0x8],eax
00002833  C745F801000000    mov dword [ebp-0x8],0x1
0000283A  EB23              jmp short 0x285f
0000283C  8B45F8            mov eax,[ebp-0x8]
0000283F  83E801            sub eax,byte +0x1
00002842  BA01000000        mov edx,0x1
00002847  89D3              mov ebx,edx
00002849  89C1              mov ecx,eax
0000284B  D3E3              shl ebx,cl
0000284D  89D8              mov eax,ebx
0000284F  234508            and eax,[ebp+0x8]
00002852  85C0              test eax,eax
00002854  7405              jz 0x285b
00002856  8B45F8            mov eax,[ebp-0x8]
00002859  EB0F              jmp short 0x286a
0000285B  8345F801          add dword [ebp-0x8],byte +0x1
0000285F  837DF816          cmp dword [ebp-0x8],byte +0x16
00002863  76D7              jna 0x283c
00002865  B800000000        mov eax,0x0
0000286A  83C410            add esp,byte +0x10
0000286D  5B                pop ebx
0000286E  5D                pop ebp
0000286F  C3                ret
00002870  55                push ebp
00002871  89E5              mov ebp,esp
00002873  57                push edi
00002874  56                push esi
00002875  53                push ebx
00002876  83EC2C            sub esp,byte +0x2c
00002879  A180AA0300        mov eax,[0x3aa80]
0000287E  8B5508            mov edx,[ebp+0x8]
00002881  83EA01            sub edx,byte +0x1
00002884  C1E003            shl eax,0x3
00002887  89C1              mov ecx,eax
00002889  C1E104            shl ecx,0x4
0000288C  01C8              add eax,ecx
0000288E  01D0              add eax,edx
00002890  83C068            add eax,byte +0x68
00002893  C1E004            shl eax,0x4
00002896  05848A0100        add eax,0x18a84
0000289B  8B00              mov eax,[eax]
0000289D  8945E4            mov [ebp-0x1c],eax
000028A0  A180AA0300        mov eax,[0x3aa80]
000028A5  8B5508            mov edx,[ebp+0x8]
000028A8  89542408          mov [esp+0x8],edx
000028AC  89442404          mov [esp+0x4],eax
000028B0  C70424C8200100    mov dword [esp],0x120c8
000028B7  E808EFFFFF        call dword 0x17c4
000028BC  C7042450C30000    mov dword [esp],0xc350
000028C3  E850EEFFFF        call dword 0x1718
000028C8  8B1D80AA0300      mov ebx,[dword 0x3aa80]
000028CE  A180AA0300        mov eax,[0x3aa80]
000028D3  C1E007            shl eax,0x7
000028D6  89C2              mov edx,eax
000028D8  C1E204            shl edx,0x4
000028DB  01D0              add eax,edx
000028DD  05FC900100        add eax,0x190fc
000028E2  8B10              mov edx,[eax]
000028E4  8B4508            mov eax,[ebp+0x8]
000028E7  83E801            sub eax,byte +0x1
000028EA  BE01000000        mov esi,0x1
000028EF  89F7              mov edi,esi
000028F1  89C1              mov ecx,eax
000028F3  D3E7              shl edi,cl
000028F5  89F8              mov eax,edi
000028F7  F7D0              not eax
000028F9  21C2              and edx,eax
000028FB  89D8              mov eax,ebx
000028FD  C1E007            shl eax,0x7
00002900  89C1              mov ecx,eax
00002902  C1E104            shl ecx,0x4
00002905  01C8              add eax,ecx
00002907  05FC900100        add eax,0x190fc
0000290C  8910              mov [eax],edx
0000290E  837DE400          cmp dword [ebp-0x1c],byte +0x0
00002912  7521              jnz 0x2935
00002914  A180AA0300        mov eax,[0x3aa80]
00002919  89442408          mov [esp+0x8],eax
0000291D  8B4508            mov eax,[ebp+0x8]
00002920  89442404          mov [esp+0x4],eax
00002924  C70424E0200100    mov dword [esp],0x120e0
0000292B  E894EEFFFF        call dword 0x17c4
00002930  E995030000        jmp dword 0x2cca
00002935  837DE401          cmp dword [ebp-0x1c],byte +0x1
00002939  0F8585000000      jnz dword 0x29c4
0000293F  837D0816          cmp dword [ebp+0x8],byte +0x16
00002943  775D              ja 0x29a2
00002945  8B4508            mov eax,[ebp+0x8]
00002948  BA01000000        mov edx,0x1
0000294D  89D3              mov ebx,edx
0000294F  89C1              mov ecx,eax
00002951  D3E3              shl ebx,cl
00002953  89D8              mov eax,ebx
00002955  89C2              mov edx,eax
00002957  81E20E080000      and edx,0x80e
0000295D  85D2              test edx,edx
0000295F  750B              jnz 0x296c
00002961  2500007000        and eax,0x700000
00002966  85C0              test eax,eax
00002968  7510              jnz 0x297a
0000296A  EB36              jmp short 0x29a2
0000296C  C7042401000000    mov dword [esp],0x1
00002973  E8D80E0000        call dword 0x3850
00002978  EB29              jmp short 0x29a3
0000297A  A180AA0300        mov eax,[0x3aa80]
0000297F  C1E007            shl eax,0x7
00002982  89C2              mov edx,eax
00002984  C1E204            shl edx,0x4
00002987  01D0              add eax,edx
00002989  05F4920100        add eax,0x192f4
0000298E  C70002000000      mov dword [eax],0x2
00002994  C7042400000000    mov dword [esp],0x0
0000299B  E8DCF9FFFF        call dword 0x237c
000029A0  EB01              jmp short 0x29a3
000029A2  90                nop
000029A3  A180AA0300        mov eax,[0x3aa80]
000029A8  89442408          mov [esp+0x8],eax
000029AC  8B4508            mov eax,[ebp+0x8]
000029AF  89442404          mov [esp+0x4],eax
000029B3  C7042404210100    mov dword [esp],0x12104
000029BA  E805EEFFFF        call dword 0x17c4
000029BF  E906030000        jmp dword 0x2cca
000029C4  A180AA0300        mov eax,[0x3aa80]
000029C9  C1E007            shl eax,0x7
000029CC  89C2              mov edx,eax
000029CE  C1E204            shl edx,0x4
000029D1  01D0              add eax,edx
000029D3  8D90C08A0100      lea edx,[eax+0x18ac0]
000029D9  8B02              mov eax,[edx]
000029DB  0F22D8            mov cr3,eax
000029DE  A180AA0300        mov eax,[0x3aa80]
000029E3  C1E007            shl eax,0x7
000029E6  89C2              mov edx,eax
000029E8  C1E204            shl edx,0x4
000029EB  01D0              add eax,edx
000029ED  05B88A0100        add eax,0x18ab8
000029F2  8B00              mov eax,[eax]
000029F4  8945E0            mov [ebp-0x20],eax
000029F7  836DE054          sub dword [ebp-0x20],byte +0x54
000029FB  8B45E0            mov eax,[ebp-0x20]
000029FE  8D5050            lea edx,[eax+0x50]
00002A01  A180AA0300        mov eax,[0x3aa80]
00002A06  C1E007            shl eax,0x7
00002A09  89C1              mov ecx,eax
00002A0B  C1E104            shl ecx,0x4
00002A0E  01C8              add eax,ecx
00002A10  0500910100        add eax,0x19100
00002A15  8B00              mov eax,[eax]
00002A17  8902              mov [edx],eax
00002A19  8B45E0            mov eax,[ebp-0x20]
00002A1C  8D504C            lea edx,[eax+0x4c]
00002A1F  A180AA0300        mov eax,[0x3aa80]
00002A24  C1E007            shl eax,0x7
00002A27  89C1              mov ecx,eax
00002A29  C1E104            shl ecx,0x4
00002A2C  01C8              add eax,ecx
00002A2E  05BC8A0100        add eax,0x18abc
00002A33  8B00              mov eax,[eax]
00002A35  8902              mov [edx],eax
00002A37  8B45E0            mov eax,[ebp-0x20]
00002A3A  8D5048            lea edx,[eax+0x48]
00002A3D  A180AA0300        mov eax,[0x3aa80]
00002A42  C1E007            shl eax,0x7
00002A45  89C1              mov ecx,eax
00002A47  C1E104            shl ecx,0x4
00002A4A  01C8              add eax,ecx
00002A4C  05B88A0100        add eax,0x18ab8
00002A51  8B00              mov eax,[eax]
00002A53  8902              mov [edx],eax
00002A55  8B45E0            mov eax,[ebp-0x20]
00002A58  8D5044            lea edx,[eax+0x44]
00002A5B  A180AA0300        mov eax,[0x3aa80]
00002A60  C1E007            shl eax,0x7
00002A63  89C1              mov ecx,eax
00002A65  C1E104            shl ecx,0x4
00002A68  01C8              add eax,ecx
00002A6A  05B48A0100        add eax,0x18ab4
00002A6F  8B00              mov eax,[eax]
00002A71  8902              mov [edx],eax
00002A73  8B45E0            mov eax,[ebp-0x20]
00002A76  8D5040            lea edx,[eax+0x40]
00002A79  A180AA0300        mov eax,[0x3aa80]
00002A7E  C1E007            shl eax,0x7
00002A81  89C1              mov ecx,eax
00002A83  C1E104            shl ecx,0x4
00002A86  01C8              add eax,ecx
00002A88  05B08A0100        add eax,0x18ab0
00002A8D  8B00              mov eax,[eax]
00002A8F  8902              mov [edx],eax
00002A91  8B45E0            mov eax,[ebp-0x20]
00002A94  8D503C            lea edx,[eax+0x3c]
00002A97  A180AA0300        mov eax,[0x3aa80]
00002A9C  C1E007            shl eax,0x7
00002A9F  89C1              mov ecx,eax
00002AA1  C1E104            shl ecx,0x4
00002AA4  01C8              add eax,ecx
00002AA6  05AC8A0100        add eax,0x18aac
00002AAB  8B00              mov eax,[eax]
00002AAD  8902              mov [edx],eax
00002AAF  8B45E0            mov eax,[ebp-0x20]
00002AB2  8D5038            lea edx,[eax+0x38]
00002AB5  A180AA0300        mov eax,[0x3aa80]
00002ABA  C1E007            shl eax,0x7
00002ABD  89C1              mov ecx,eax
00002ABF  C1E104            shl ecx,0x4
00002AC2  01C8              add eax,ecx
00002AC4  05A88A0100        add eax,0x18aa8
00002AC9  8B00              mov eax,[eax]
00002ACB  8902              mov [edx],eax
00002ACD  8B45E0            mov eax,[ebp-0x20]
00002AD0  8D5034            lea edx,[eax+0x34]
00002AD3  A180AA0300        mov eax,[0x3aa80]
00002AD8  C1E007            shl eax,0x7
00002ADB  89C1              mov ecx,eax
00002ADD  C1E104            shl ecx,0x4
00002AE0  01C8              add eax,ecx
00002AE2  05A48A0100        add eax,0x18aa4
00002AE7  8B00              mov eax,[eax]
00002AE9  8902              mov [edx],eax
00002AEB  8B45E0            mov eax,[ebp-0x20]
00002AEE  8D5030            lea edx,[eax+0x30]
00002AF1  A180AA0300        mov eax,[0x3aa80]
00002AF6  C1E007            shl eax,0x7
00002AF9  89C1              mov ecx,eax
00002AFB  C1E104            shl ecx,0x4
00002AFE  01C8              add eax,ecx
00002B00  05A08A0100        add eax,0x18aa0
00002B05  8B00              mov eax,[eax]
00002B07  8902              mov [edx],eax
00002B09  8B45E0            mov eax,[ebp-0x20]
00002B0C  8D502C            lea edx,[eax+0x2c]
00002B0F  A180AA0300        mov eax,[0x3aa80]
00002B14  C1E007            shl eax,0x7
00002B17  89C1              mov ecx,eax
00002B19  C1E104            shl ecx,0x4
00002B1C  01C8              add eax,ecx
00002B1E  059C8A0100        add eax,0x18a9c
00002B23  8B00              mov eax,[eax]
00002B25  8902              mov [edx],eax
00002B27  8B45E0            mov eax,[ebp-0x20]
00002B2A  8D5028            lea edx,[eax+0x28]
00002B2D  A180AA0300        mov eax,[0x3aa80]
00002B32  C1E007            shl eax,0x7
00002B35  89C1              mov ecx,eax
00002B37  C1E104            shl ecx,0x4
00002B3A  01C8              add eax,ecx
00002B3C  05988A0100        add eax,0x18a98
00002B41  8B00              mov eax,[eax]
00002B43  8902              mov [edx],eax
00002B45  8B45E0            mov eax,[ebp-0x20]
00002B48  8D5024            lea edx,[eax+0x24]
00002B4B  A180AA0300        mov eax,[0x3aa80]
00002B50  C1E007            shl eax,0x7
00002B53  89C1              mov ecx,eax
00002B55  C1E104            shl ecx,0x4
00002B58  01C8              add eax,ecx
00002B5A  05948A0100        add eax,0x18a94
00002B5F  8B00              mov eax,[eax]
00002B61  8902              mov [edx],eax
00002B63  8B45E0            mov eax,[ebp-0x20]
00002B66  8D5020            lea edx,[eax+0x20]
00002B69  A180AA0300        mov eax,[0x3aa80]
00002B6E  C1E007            shl eax,0x7
00002B71  89C1              mov ecx,eax
00002B73  C1E104            shl ecx,0x4
00002B76  01C8              add eax,ecx
00002B78  05908A0100        add eax,0x18a90
00002B7D  8B00              mov eax,[eax]
00002B7F  8902              mov [edx],eax
00002B81  8B45E0            mov eax,[ebp-0x20]
00002B84  8D501C            lea edx,[eax+0x1c]
00002B87  A180AA0300        mov eax,[0x3aa80]
00002B8C  C1E007            shl eax,0x7
00002B8F  89C1              mov ecx,eax
00002B91  C1E104            shl ecx,0x4
00002B94  01C8              add eax,ecx
00002B96  058C8A0100        add eax,0x18a8c
00002B9B  8B00              mov eax,[eax]
00002B9D  8902              mov [edx],eax
00002B9F  8B45E0            mov eax,[ebp-0x20]
00002BA2  8D5018            lea edx,[eax+0x18]
00002BA5  A180AA0300        mov eax,[0x3aa80]
00002BAA  C1E007            shl eax,0x7
00002BAD  89C1              mov ecx,eax
00002BAF  C1E104            shl ecx,0x4
00002BB2  01C8              add eax,ecx
00002BB4  05888A0100        add eax,0x18a88
00002BB9  8B00              mov eax,[eax]
00002BBB  8902              mov [edx],eax
00002BBD  8B45E0            mov eax,[ebp-0x20]
00002BC0  8D5014            lea edx,[eax+0x14]
00002BC3  A180AA0300        mov eax,[0x3aa80]
00002BC8  C1E007            shl eax,0x7
00002BCB  89C1              mov ecx,eax
00002BCD  C1E104            shl ecx,0x4
00002BD0  01C8              add eax,ecx
00002BD2  05848A0100        add eax,0x18a84
00002BD7  8B00              mov eax,[eax]
00002BD9  8902              mov [edx],eax
00002BDB  8B45E0            mov eax,[ebp-0x20]
00002BDE  8D5010            lea edx,[eax+0x10]
00002BE1  A180AA0300        mov eax,[0x3aa80]
00002BE6  C1E007            shl eax,0x7
00002BE9  89C1              mov ecx,eax
00002BEB  C1E104            shl ecx,0x4
00002BEE  01C8              add eax,ecx
00002BF0  05808A0100        add eax,0x18a80
00002BF5  8B00              mov eax,[eax]
00002BF7  8902              mov [edx],eax
00002BF9  8B45E0            mov eax,[ebp-0x20]
00002BFC  83C00C            add eax,byte +0xc
00002BFF  C70000CD8000      mov dword [eax],0x80cd00
00002C05  8B45E0            mov eax,[ebp-0x20]
00002C08  83C008            add eax,byte +0x8
00002C0B  C700B8210000      mov dword [eax],0x21b8
00002C11  8B45E0            mov eax,[ebp-0x20]
00002C14  8D5004            lea edx,[eax+0x4]
00002C17  8B4508            mov eax,[ebp+0x8]
00002C1A  8902              mov [edx],eax
00002C1C  8B45E0            mov eax,[ebp-0x20]
00002C1F  83C008            add eax,byte +0x8
00002C22  89C2              mov edx,eax
00002C24  8B45E0            mov eax,[ebp-0x20]
00002C27  8910              mov [eax],edx
00002C29  A180AA0300        mov eax,[0x3aa80]
00002C2E  8B55E0            mov edx,[ebp-0x20]
00002C31  C1E007            shl eax,0x7
00002C34  89C1              mov ecx,eax
00002C36  C1E104            shl ecx,0x4
00002C39  01C8              add eax,ecx
00002C3B  05B88A0100        add eax,0x18ab8
00002C40  8910              mov [eax],edx
00002C42  A180AA0300        mov eax,[0x3aa80]
00002C47  8B55E4            mov edx,[ebp-0x1c]
00002C4A  C1E007            shl eax,0x7
00002C4D  89C1              mov ecx,eax
00002C4F  C1E104            shl ecx,0x4
00002C52  01C8              add eax,ecx
00002C54  05AC8A0100        add eax,0x18aac
00002C59  8910              mov [eax],edx
00002C5B  A180AA0300        mov eax,[0x3aa80]
00002C60  8B5508            mov edx,[ebp+0x8]
00002C63  83EA01            sub edx,byte +0x1
00002C66  C1E003            shl eax,0x3
00002C69  89C1              mov ecx,eax
00002C6B  C1E104            shl ecx,0x4
00002C6E  01C8              add eax,ecx
00002C70  01D0              add eax,edx
00002C72  83C068            add eax,byte +0x68
00002C75  C1E004            shl eax,0x4
00002C78  058C8A0100        add eax,0x18a8c
00002C7D  8B00              mov eax,[eax]
00002C7F  83E004            and eax,byte +0x4
00002C82  85C0              test eax,eax
00002C84  7544              jnz 0x2cca
00002C86  8B1D80AA0300      mov ebx,[dword 0x3aa80]
00002C8C  A180AA0300        mov eax,[0x3aa80]
00002C91  C1E007            shl eax,0x7
00002C94  89C2              mov edx,eax
00002C96  C1E204            shl edx,0x4
00002C99  01D0              add eax,edx
00002C9B  0500910100        add eax,0x19100
00002CA0  8B10              mov edx,[eax]
00002CA2  8B4508            mov eax,[ebp+0x8]
00002CA5  83E801            sub eax,byte +0x1
00002CA8  BE01000000        mov esi,0x1
00002CAD  89F7              mov edi,esi
00002CAF  89C1              mov ecx,eax
00002CB1  D3E7              shl edi,cl
00002CB3  89F8              mov eax,edi
00002CB5  09C2              or edx,eax
00002CB7  89D8              mov eax,ebx
00002CB9  C1E007            shl eax,0x7
00002CBC  89C1              mov ecx,eax
00002CBE  C1E104            shl ecx,0x4
00002CC1  01C8              add eax,ecx
00002CC3  0500910100        add eax,0x19100
00002CC8  8910              mov [eax],edx
00002CCA  83C42C            add esp,byte +0x2c
00002CCD  5B                pop ebx
00002CCE  5E                pop esi
00002CCF  5F                pop edi
00002CD0  5D                pop ebp
00002CD1  C3                ret
00002CD2  0000              add [eax],al
00002CD4  55                push ebp
00002CD5  89E5              mov ebp,esp
00002CD7  83EC38            sub esp,byte +0x38
00002CDA  8945E8            mov [ebp-0x18],eax
00002CDD  8975E4            mov [ebp-0x1c],esi
00002CE0  8B1580AA0300      mov edx,[dword 0x3aa80]
00002CE6  8B45E8            mov eax,[ebp-0x18]
00002CE9  89542408          mov [esp+0x8],edx
00002CED  89442404          mov [esp+0x4],eax
00002CF1  C7042434210100    mov dword [esp],0x12134
00002CF8  E8C7EAFFFF        call dword 0x17c4
00002CFD  8B45E8            mov eax,[ebp-0x18]
00002D00  83F864            cmp eax,byte +0x64
00002D03  0F87B1050000      ja dword 0x32ba
00002D09  8B0485D4210100    mov eax,[eax*4+0x121d4]
00002D10  FFE0              jmp eax
00002D12  FA                cli
00002D13  8B45E4            mov eax,[ebp-0x1c]
00002D16  890424            mov [esp],eax
00002D19  E8A6EAFFFF        call dword 0x17c4
00002D1E  FB                sti
00002D1F  E9C8050000        jmp dword 0x32ec
00002D24  FA                cli
00002D25  8B45E4            mov eax,[ebp-0x1c]
00002D28  8B00              mov eax,[eax]
00002D2A  89442404          mov [esp+0x4],eax
00002D2E  C7042448210100    mov dword [esp],0x12148
00002D35  E88AEAFFFF        call dword 0x17c4
00002D3A  FB                sti
00002D3B  E9AC050000        jmp dword 0x32ec
00002D40  FA                cli
00002D41  E8760F0000        call dword 0x3cbc
00002D46  8945E0            mov [ebp-0x20],eax
00002D49  FB                sti
00002D4A  E99D050000        jmp dword 0x32ec
00002D4F  FA                cli
00002D50  E8FB220000        call dword 0x5050
00002D55  E992050000        jmp dword 0x32ec
00002D5A  FA                cli
00002D5B  8B45E4            mov eax,[ebp-0x1c]
00002D5E  83C004            add eax,byte +0x4
00002D61  8B10              mov edx,[eax]
00002D63  8B45E4            mov eax,[ebp-0x1c]
00002D66  8B00              mov eax,[eax]
00002D68  89542404          mov [esp+0x4],edx
00002D6C  890424            mov [esp],eax
00002D6F  E804170000        call dword 0x4478
00002D74  8945E0            mov [ebp-0x20],eax
00002D77  FB                sti
00002D78  E96F050000        jmp dword 0x32ec
00002D7D  FA                cli
00002D7E  8B45E4            mov eax,[ebp-0x1c]
00002D81  83C008            add eax,byte +0x8
00002D84  8B00              mov eax,[eax]
00002D86  89C1              mov ecx,eax
00002D88  8B45E4            mov eax,[ebp-0x1c]
00002D8B  83C004            add eax,byte +0x4
00002D8E  8B00              mov eax,[eax]
00002D90  89C2              mov edx,eax
00002D92  8B45E4            mov eax,[ebp-0x1c]
00002D95  8B00              mov eax,[eax]
00002D97  894C2408          mov [esp+0x8],ecx
00002D9B  89542404          mov [esp+0x4],edx
00002D9F  890424            mov [esp],eax
00002DA2  E80D210000        call dword 0x4eb4
00002DA7  8945E0            mov [ebp-0x20],eax
00002DAA  FB                sti
00002DAB  E93C050000        jmp dword 0x32ec
00002DB0  FA                cli
00002DB1  8B45E4            mov eax,[ebp-0x1c]
00002DB4  8B00              mov eax,[eax]
00002DB6  890424            mov [esp],eax
00002DB9  E8920A0000        call dword 0x3850
00002DBE  E929050000        jmp dword 0x32ec
00002DC3  FA                cli
00002DC4  8B45E4            mov eax,[ebp-0x1c]
00002DC7  890424            mov [esp],eax
00002DCA  E855280000        call dword 0x5624
00002DCF  8945E0            mov [ebp-0x20],eax
00002DD2  FB                sti
00002DD3  E914050000        jmp dword 0x32ec
00002DD8  FA                cli
00002DD9  8B45E4            mov eax,[ebp-0x1c]
00002DDC  83C008            add eax,byte +0x8
00002DDF  8B00              mov eax,[eax]
00002DE1  89C1              mov ecx,eax
00002DE3  8B45E4            mov eax,[ebp-0x1c]
00002DE6  83C004            add eax,byte +0x4
00002DE9  8B10              mov edx,[eax]
00002DEB  8B45E4            mov eax,[ebp-0x1c]
00002DEE  8B00              mov eax,[eax]
00002DF0  894C2408          mov [esp+0x8],ecx
00002DF4  89542404          mov [esp+0x4],edx
00002DF8  890424            mov [esp],eax
00002DFB  E88C280000        call dword 0x568c
00002E00  8945E0            mov [ebp-0x20],eax
00002E03  FB                sti
00002E04  E9E3040000        jmp dword 0x32ec
00002E09  FA                cli
00002E0A  8B45E4            mov eax,[ebp-0x1c]
00002E0D  8B00              mov eax,[eax]
00002E0F  8945F4            mov [ebp-0xc],eax
00002E12  8B45F4            mov eax,[ebp-0xc]
00002E15  C1E007            shl eax,0x7
00002E18  89C2              mov edx,eax
00002E1A  C1E204            shl edx,0x4
00002E1D  01D0              add eax,edx
00002E1F  05D08A0100        add eax,0x18ad0
00002E24  8B00              mov eax,[eax]
00002E26  85C0              test eax,eax
00002E28  742C              jz 0x2e56
00002E2A  8B45F4            mov eax,[ebp-0xc]
00002E2D  C1E007            shl eax,0x7
00002E30  89C2              mov edx,eax
00002E32  C1E204            shl edx,0x4
00002E35  01D0              add eax,edx
00002E37  05C88A0100        add eax,0x18ac8
00002E3C  8B00              mov eax,[eax]
00002E3E  8945E0            mov [ebp-0x20],eax
00002E41  8B45E0            mov eax,[ebp-0x20]
00002E44  89442404          mov [esp+0x4],eax
00002E48  C704244B210100    mov dword [esp],0x1214b
00002E4F  E870E9FFFF        call dword 0x17c4
00002E54  EB07              jmp short 0x2e5d
00002E56  C745E0FFFFFFFF    mov dword [ebp-0x20],0xffffffff
00002E5D  FB                sti
00002E5E  E989040000        jmp dword 0x32ec
00002E63  FA                cli
00002E64  8B45E4            mov eax,[ebp-0x1c]
00002E67  83C008            add eax,byte +0x8
00002E6A  8B00              mov eax,[eax]
00002E6C  89C1              mov ecx,eax
00002E6E  8B45E4            mov eax,[ebp-0x1c]
00002E71  83C004            add eax,byte +0x4
00002E74  8B00              mov eax,[eax]
00002E76  89C2              mov edx,eax
00002E78  8B45E4            mov eax,[ebp-0x1c]
00002E7B  8B00              mov eax,[eax]
00002E7D  894C2408          mov [esp+0x8],ecx
00002E81  89542404          mov [esp+0x4],edx
00002E85  890424            mov [esp],eax
00002E88  E85B060000        call dword 0x34e8
00002E8D  8945E0            mov [ebp-0x20],eax
00002E90  FB                sti
00002E91  E956040000        jmp dword 0x32ec
00002E96  A180AA0300        mov eax,[0x3aa80]
00002E9B  8945E0            mov [ebp-0x20],eax
00002E9E  E949040000        jmp dword 0x32ec
00002EA3  FA                cli
00002EA4  8B45E4            mov eax,[ebp-0x1c]
00002EA7  8B00              mov eax,[eax]
00002EA9  8945F0            mov [ebp-0x10],eax
00002EAC  8B45E4            mov eax,[ebp-0x1c]
00002EAF  83C004            add eax,byte +0x4
00002EB2  8B00              mov eax,[eax]
00002EB4  8945EC            mov [ebp-0x14],eax
00002EB7  837DF03F          cmp dword [ebp-0x10],byte +0x3f
00002EBB  7F18              jg 0x2ed5
00002EBD  8B45F0            mov eax,[ebp-0x10]
00002EC0  C1E007            shl eax,0x7
00002EC3  89C2              mov edx,eax
00002EC5  C1E204            shl edx,0x4
00002EC8  01D0              add eax,edx
00002ECA  05D08A0100        add eax,0x18ad0
00002ECF  8B00              mov eax,[eax]
00002ED1  85C0              test eax,eax
00002ED3  7509              jnz 0x2ede
00002ED5  C745E0FFFFFFFF    mov dword [ebp-0x20],0xffffffff
00002EDC  EB1F              jmp short 0x2efd
00002EDE  8B45F0            mov eax,[ebp-0x10]
00002EE1  C1E007            shl eax,0x7
00002EE4  89C2              mov edx,eax
00002EE6  C1E204            shl edx,0x4
00002EE9  01D0              add eax,edx
00002EEB  8D90C88A0100      lea edx,[eax+0x18ac8]
00002EF1  8B45EC            mov eax,[ebp-0x14]
00002EF4  8902              mov [edx],eax
00002EF6  C745E000000000    mov dword [ebp-0x20],0x0
00002EFD  FB                sti
00002EFE  E9E9030000        jmp dword 0x32ec
00002F03  FA                cli
00002F04  E81FF1FFFF        call dword 0x2028
00002F09  E9DE030000        jmp dword 0x32ec
00002F0E  FA                cli
00002F0F  8B45E4            mov eax,[ebp-0x1c]
00002F12  83C008            add eax,byte +0x8
00002F15  8B00              mov eax,[eax]
00002F17  89C1              mov ecx,eax
00002F19  8B45E4            mov eax,[ebp-0x1c]
00002F1C  83C004            add eax,byte +0x4
00002F1F  8B00              mov eax,[eax]
00002F21  89C2              mov edx,eax
00002F23  8B45E4            mov eax,[ebp-0x1c]
00002F26  8B00              mov eax,[eax]
00002F28  894C2408          mov [esp+0x8],ecx
00002F2C  89542404          mov [esp+0x4],edx
00002F30  890424            mov [esp],eax
00002F33  E830200000        call dword 0x4f68
00002F38  8945E0            mov [ebp-0x20],eax
00002F3B  FB                sti
00002F3C  E9AB030000        jmp dword 0x32ec
00002F41  FA                cli
00002F42  8B45E4            mov eax,[ebp-0x1c]
00002F45  83C004            add eax,byte +0x4
00002F48  8B10              mov edx,[eax]
00002F4A  8B45E4            mov eax,[ebp-0x1c]
00002F4D  8B00              mov eax,[eax]
00002F4F  89542404          mov [esp+0x4],edx
00002F53  890424            mov [esp],eax
00002F56  E849160000        call dword 0x45a4
00002F5B  8945E0            mov [ebp-0x20],eax
00002F5E  FB                sti
00002F5F  E988030000        jmp dword 0x32ec
00002F64  FA                cli
00002F65  A180AA0300        mov eax,[0x3aa80]
00002F6A  C1E007            shl eax,0x7
00002F6D  89C2              mov edx,eax
00002F6F  C1E204            shl edx,0x4
00002F72  01D0              add eax,edx
00002F74  05E88A0100        add eax,0x18ae8
00002F79  8B00              mov eax,[eax]
00002F7B  8B4044            mov eax,[eax+0x44]
00002F7E  8945E0            mov [ebp-0x20],eax
00002F81  FB                sti
00002F82  E965030000        jmp dword 0x32ec
00002F87  FA                cli
00002F88  8B45E4            mov eax,[ebp-0x1c]
00002F8B  890424            mov [esp],eax
00002F8E  E8B1200000        call dword 0x5044
00002F93  8945E0            mov [ebp-0x20],eax
00002F96  FB                sti
00002F97  E950030000        jmp dword 0x32ec
00002F9C  FA                cli
00002F9D  8B45E4            mov eax,[ebp-0x1c]
00002FA0  83C004            add eax,byte +0x4
00002FA3  8B10              mov edx,[eax]
00002FA5  8B45E4            mov eax,[ebp-0x1c]
00002FA8  8B00              mov eax,[eax]
00002FAA  89542404          mov [esp+0x4],edx
00002FAE  890424            mov [esp],eax
00002FB1  E8261A0000        call dword 0x49dc
00002FB6  8945E0            mov [ebp-0x20],eax
00002FB9  FB                sti
00002FBA  E92D030000        jmp dword 0x32ec
00002FBF  FA                cli
00002FC0  8B45E4            mov eax,[ebp-0x1c]
00002FC3  8B00              mov eax,[eax]
00002FC5  890424            mov [esp],eax
00002FC8  E8F7030000        call dword 0x33c4
00002FCD  8945E0            mov [ebp-0x20],eax
00002FD0  FB                sti
00002FD1  E916030000        jmp dword 0x32ec
00002FD6  FA                cli
00002FD7  8B45E4            mov eax,[ebp-0x1c]
00002FDA  83C008            add eax,byte +0x8
00002FDD  8B08              mov ecx,[eax]
00002FDF  8B45E4            mov eax,[ebp-0x1c]
00002FE2  83C004            add eax,byte +0x4
00002FE5  8B00              mov eax,[eax]
00002FE7  89C2              mov edx,eax
00002FE9  8B45E4            mov eax,[ebp-0x1c]
00002FEC  8B00              mov eax,[eax]
00002FEE  894C2408          mov [esp+0x8],ecx
00002FF2  89542404          mov [esp+0x4],edx
00002FF6  890424            mov [esp],eax
00002FF9  E8861C0000        call dword 0x4c84
00002FFE  8945E0            mov [ebp-0x20],eax
00003001  FB                sti
00003002  E9E5020000        jmp dword 0x32ec
00003007  FA                cli
00003008  8B45E4            mov eax,[ebp-0x1c]
0000300B  83C008            add eax,byte +0x8
0000300E  8B08              mov ecx,[eax]
00003010  8B45E4            mov eax,[ebp-0x1c]
00003013  83C004            add eax,byte +0x4
00003016  8B00              mov eax,[eax]
00003018  89C2              mov edx,eax
0000301A  8B45E4            mov eax,[ebp-0x1c]
0000301D  8B00              mov eax,[eax]
0000301F  894C2408          mov [esp+0x8],ecx
00003023  89542404          mov [esp+0x4],edx
00003027  890424            mov [esp],eax
0000302A  E8FD260000        call dword 0x572c
0000302F  8945E0            mov [ebp-0x20],eax
00003032  FB                sti
00003033  E9B4020000        jmp dword 0x32ec
00003038  FA                cli
00003039  8B45E4            mov eax,[ebp-0x1c]
0000303C  83C008            add eax,byte +0x8
0000303F  8B08              mov ecx,[eax]
00003041  8B45E4            mov eax,[ebp-0x1c]
00003044  83C004            add eax,byte +0x4
00003047  8B10              mov edx,[eax]
00003049  8B45E4            mov eax,[ebp-0x1c]
0000304C  8B00              mov eax,[eax]
0000304E  894C2408          mov [esp+0x8],ecx
00003052  89542404          mov [esp+0x4],edx
00003056  890424            mov [esp],eax
00003059  E802180000        call dword 0x4860
0000305E  8945E0            mov [ebp-0x20],eax
00003061  FB                sti
00003062  E985020000        jmp dword 0x32ec
00003067  FA                cli
00003068  8B45E4            mov eax,[ebp-0x1c]
0000306B  83C004            add eax,byte +0x4
0000306E  8B00              mov eax,[eax]
00003070  89C2              mov edx,eax
00003072  8B45E4            mov eax,[ebp-0x1c]
00003075  8B00              mov eax,[eax]
00003077  89542404          mov [esp+0x4],edx
0000307B  890424            mov [esp],eax
0000307E  E889160000        call dword 0x470c
00003083  8945E0            mov [ebp-0x20],eax
00003086  FB                sti
00003087  E960020000        jmp dword 0x32ec
0000308C  FA                cli
0000308D  8B45E4            mov eax,[ebp-0x1c]
00003090  890424            mov [esp],eax
00003093  E814250000        call dword 0x55ac
00003098  8945E0            mov [ebp-0x20],eax
0000309B  FB                sti
0000309C  E94B020000        jmp dword 0x32ec
000030A1  FA                cli
000030A2  8B45E4            mov eax,[ebp-0x1c]
000030A5  83C004            add eax,byte +0x4
000030A8  8B00              mov eax,[eax]
000030AA  89C2              mov edx,eax
000030AC  8B45E4            mov eax,[ebp-0x1c]
000030AF  8B00              mov eax,[eax]
000030B1  89542404          mov [esp+0x4],edx
000030B5  890424            mov [esp],eax
000030B8  E8EB100000        call dword 0x41a8
000030BD  8945E0            mov [ebp-0x20],eax
000030C0  FB                sti
000030C1  E926020000        jmp dword 0x32ec
000030C6  FA                cli
000030C7  8B45E4            mov eax,[ebp-0x1c]
000030CA  8B00              mov eax,[eax]
000030CC  890424            mov [esp],eax
000030CF  E848130000        call dword 0x441c
000030D4  8945E0            mov [ebp-0x20],eax
000030D7  FB                sti
000030D8  E90F020000        jmp dword 0x32ec
000030DD  FA                cli
000030DE  8B45E4            mov eax,[ebp-0x1c]
000030E1  83C008            add eax,byte +0x8
000030E4  8B00              mov eax,[eax]
000030E6  89C1              mov ecx,eax
000030E8  8B45E4            mov eax,[ebp-0x1c]
000030EB  83C004            add eax,byte +0x4
000030EE  8B10              mov edx,[eax]
000030F0  8B45E4            mov eax,[ebp-0x1c]
000030F3  8B00              mov eax,[eax]
000030F5  894C2408          mov [esp+0x8],ecx
000030F9  89542404          mov [esp+0x4],edx
000030FD  890424            mov [esp],eax
00003100  E8370A0000        call dword 0x3b3c
00003105  8945E0            mov [ebp-0x20],eax
00003108  FB                sti
00003109  E9DE010000        jmp dword 0x32ec
0000310E  FA                cli
0000310F  8B45E4            mov eax,[ebp-0x1c]
00003112  890424            mov [esp],eax
00003115  E8E6010000        call dword 0x3300
0000311A  8945E0            mov [ebp-0x20],eax
0000311D  FB                sti
0000311E  E9C9010000        jmp dword 0x32ec
00003123  FA                cli
00003124  8B45E4            mov eax,[ebp-0x1c]
00003127  83C004            add eax,byte +0x4
0000312A  8B10              mov edx,[eax]
0000312C  8B45E4            mov eax,[ebp-0x1c]
0000312F  8B00              mov eax,[eax]
00003131  89542404          mov [esp+0x4],edx
00003135  890424            mov [esp],eax
00003138  E853120000        call dword 0x4390
0000313D  8945E0            mov [ebp-0x20],eax
00003140  FB                sti
00003141  E9A6010000        jmp dword 0x32ec
00003146  FA                cli
00003147  8B45E4            mov eax,[ebp-0x1c]
0000314A  83C004            add eax,byte +0x4
0000314D  8B10              mov edx,[eax]
0000314F  8B45E4            mov eax,[ebp-0x1c]
00003152  8B00              mov eax,[eax]
00003154  89542404          mov [esp+0x4],edx
00003158  890424            mov [esp],eax
0000315B  E8CC020000        call dword 0x342c
00003160  8945E0            mov [ebp-0x20],eax
00003163  FB                sti
00003164  E983010000        jmp dword 0x32ec
00003169  FA                cli
0000316A  8B45E4            mov eax,[ebp-0x1c]
0000316D  83C004            add eax,byte +0x4
00003170  8B10              mov edx,[eax]
00003172  8B45E4            mov eax,[ebp-0x1c]
00003175  8B00              mov eax,[eax]
00003177  89542404          mov [esp+0x4],edx
0000317B  890424            mov [esp],eax
0000317E  E8D9170000        call dword 0x495c
00003183  8945E0            mov [ebp-0x20],eax
00003186  FB                sti
00003187  E960010000        jmp dword 0x32ec
0000318C  FA                cli
0000318D  8B45E4            mov eax,[ebp-0x1c]
00003190  890424            mov [esp],eax
00003193  E8781C0000        call dword 0x4e10
00003198  8945E0            mov [ebp-0x20],eax
0000319B  FB                sti
0000319C  E94B010000        jmp dword 0x32ec
000031A1  FA                cli
000031A2  E8A1400000        call dword 0x7248
000031A7  85C0              test eax,eax
000031A9  742A              jz 0x31d5
000031AB  FA                cli
000031AC  C744240868230100  mov dword [esp+0x8],0x12368
000031B4  C744240458210100  mov dword [esp+0x4],0x12158
000031BC  C7042469210100    mov dword [esp],0x12169
000031C3  E8FCE5FFFF        call dword 0x17c4
000031C8  C7042479210100    mov dword [esp],0x12179
000031CF  E8F0E5FFFF        call dword 0x17c4
000031D4  F4                hlt
000031D5  E8A63B0000        call dword 0x6d80
000031DA  85C0              test eax,eax
000031DC  742A              jz 0x3208
000031DE  FA                cli
000031DF  C744240868230100  mov dword [esp+0x8],0x12368
000031E7  C744240458210100  mov dword [esp+0x4],0x12158
000031EF  C7042469210100    mov dword [esp],0x12169
000031F6  E8C9E5FFFF        call dword 0x17c4
000031FB  C7042491210100    mov dword [esp],0x12191
00003202  E8BDE5FFFF        call dword 0x17c4
00003207  F4                hlt
00003208  FB                sti
00003209  E9DE000000        jmp dword 0x32ec
0000320E  FA                cli
0000320F  8B45E4            mov eax,[ebp-0x1c]
00003212  83C004            add eax,byte +0x4
00003215  8B00              mov eax,[eax]
00003217  89C2              mov edx,eax
00003219  8B45E4            mov eax,[ebp-0x1c]
0000321C  8B00              mov eax,[eax]
0000321E  89542404          mov [esp+0x4],edx
00003222  890424            mov [esp],eax
00003225  E802210000        call dword 0x532c
0000322A  8945E0            mov [ebp-0x20],eax
0000322D  FB                sti
0000322E  E9B9000000        jmp dword 0x32ec
00003233  FA                cli
00003234  8B45E4            mov eax,[ebp-0x1c]
00003237  83C008            add eax,byte +0x8
0000323A  8B00              mov eax,[eax]
0000323C  89C1              mov ecx,eax
0000323E  8B45E4            mov eax,[ebp-0x1c]
00003241  83C004            add eax,byte +0x4
00003244  8B10              mov edx,[eax]
00003246  8B45E4            mov eax,[ebp-0x1c]
00003249  8B00              mov eax,[eax]
0000324B  894C2408          mov [esp+0x8],ecx
0000324F  89542404          mov [esp+0x4],edx
00003253  890424            mov [esp],eax
00003256  E80D220000        call dword 0x5468
0000325B  8945E0            mov [ebp-0x20],eax
0000325E  FB                sti
0000325F  E988000000        jmp dword 0x32ec
00003264  FA                cli
00003265  8B45E4            mov eax,[ebp-0x1c]
00003268  83C004            add eax,byte +0x4
0000326B  8B10              mov edx,[eax]
0000326D  8B45E4            mov eax,[ebp-0x1c]
00003270  8B00              mov eax,[eax]
00003272  89542404          mov [esp+0x4],edx
00003276  890424            mov [esp],eax
00003279  E826200000        call dword 0x52a4
0000327E  8945E0            mov [ebp-0x20],eax
00003281  FB                sti
00003282  EB68              jmp short 0x32ec
00003284  FA                cli
00003285  8B45E4            mov eax,[ebp-0x1c]
00003288  8B00              mov eax,[eax]
0000328A  890424            mov [esp],eax
0000328D  E852210000        call dword 0x53e4
00003292  8945E0            mov [ebp-0x20],eax
00003295  FB                sti
00003296  EB54              jmp short 0x32ec
00003298  FA                cli
00003299  8B45E4            mov eax,[ebp-0x1c]
0000329C  83C004            add eax,byte +0x4
0000329F  8B00              mov eax,[eax]
000032A1  89C2              mov edx,eax
000032A3  8B45E4            mov eax,[ebp-0x1c]
000032A6  8B00              mov eax,[eax]
000032A8  89542404          mov [esp+0x4],edx
000032AC  890424            mov [esp],eax
000032AF  E88C220000        call dword 0x5540
000032B4  8945E0            mov [ebp-0x20],eax
000032B7  FB                sti
000032B8  EB32              jmp short 0x32ec
000032BA  FA                cli
000032BB  C744240868230100  mov dword [esp+0x8],0x12368
000032C3  C744240458210100  mov dword [esp+0x4],0x12158
000032CB  C7042469210100    mov dword [esp],0x12169
000032D2  E8EDE4FFFF        call dword 0x17c4
000032D7  8B45E8            mov eax,[ebp-0x18]
000032DA  89442404          mov [esp+0x4],eax
000032DE  C70424AB210100    mov dword [esp],0x121ab
000032E5  E8DAE4FFFF        call dword 0x17c4
000032EA  F4                hlt
000032EB  90                nop
000032EC  8B45E0            mov eax,[ebp-0x20]
000032EF  894534            mov [ebp+0x34],eax
000032F2  C70424C2210100    mov dword [esp],0x121c2
000032F9  E8C6E4FFFF        call dword 0x17c4
000032FE  C9                leave
000032FF  C3                ret
00003300  55                push ebp
00003301  89E5              mov ebp,esp
00003303  83EC48            sub esp,byte +0x48
00003306  8B4508            mov eax,[ebp+0x8]
00003309  890424            mov [esp],eax
0000330C  E831E1FFFF        call dword 0x1442
00003311  3D00040000        cmp eax,0x400
00003316  760A              jna 0x3322
00003318  B8FFFFFFFF        mov eax,0xffffffff
0000331D  E99E000000        jmp dword 0x33c0
00003322  C744240801040000  mov dword [esp+0x8],0x401
0000332A  8B4508            mov eax,[ebp+0x8]
0000332D  89442404          mov [esp+0x4],eax
00003331  C70424C0FB0300    mov dword [esp],0x3fbc0
00003338  E8A8E0FFFF        call dword 0x13e5
0000333D  C70424C0FB0300    mov dword [esp],0x3fbc0
00003344  E8BF5C0000        call dword 0x9008
00003349  85C0              test eax,eax
0000334B  7407              jz 0x3354
0000334D  B8FFFFFFFF        mov eax,0xffffffff
00003352  EB6C              jmp short 0x33c0
00003354  8D45D0            lea eax,[ebp-0x30]
00003357  89442404          mov [esp+0x4],eax
0000335B  C70424C0FB0300    mov dword [esp],0x3fbc0
00003362  E88D5F0000        call dword 0x92f4
00003367  85C0              test eax,eax
00003369  7407              jz 0x3372
0000336B  B8FFFFFFFF        mov eax,0xffffffff
00003370  EB4E              jmp short 0x33c0
00003372  0FB645E3          movzx eax,byte [ebp-0x1d]
00003376  0FB6C0            movzx eax,al
00003379  83E010            and eax,byte +0x10
0000337C  85C0              test eax,eax
0000337E  7507              jnz 0x3387
00003380  B8FFFFFFFF        mov eax,0xffffffff
00003385  EB39              jmp short 0x33c0
00003387  A180AA0300        mov eax,[0x3aa80]
0000338C  C1E007            shl eax,0x7
0000338F  89C2              mov edx,eax
00003391  C1E204            shl edx,0x4
00003394  01D0              add eax,edx
00003396  0570020000        add eax,0x270
0000339B  05808A0100        add eax,0x18a80
000033A0  83C008            add eax,byte +0x8
000033A3  C744240801040000  mov dword [esp+0x8],0x401
000033AB  C7442404C0FB0300  mov dword [esp+0x4],0x3fbc0
000033B3  890424            mov [esp],eax
000033B6  E82AE0FFFF        call dword 0x13e5
000033BB  B800000000        mov eax,0x0
000033C0  C9                leave
000033C1  C3                ret
000033C2  0000              add [eax],al
000033C4  55                push ebp
000033C5  89E5              mov ebp,esp
000033C7  83EC28            sub esp,byte +0x28
000033CA  837D081F          cmp dword [ebp+0x8],byte +0x1f
000033CE  7607              jna 0x33d7
000033D0  B8FFFFFFFF        mov eax,0xffffffff
000033D5  EB51              jmp short 0x3428
000033D7  A180AA0300        mov eax,[0x3aa80]
000033DC  C1E007            shl eax,0x7
000033DF  89C2              mov edx,eax
000033E1  C1E204            shl edx,0x4
000033E4  01D0              add eax,edx
000033E6  83C070            add eax,byte +0x70
000033E9  05808A0100        add eax,0x18a80
000033EE  8D5008            lea edx,[eax+0x8]
000033F1  8B4508            mov eax,[ebp+0x8]
000033F4  C1E004            shl eax,0x4
000033F7  01D0              add eax,edx
000033F9  8945F4            mov [ebp-0xc],eax
000033FC  8B45F4            mov eax,[ebp-0xc]
000033FF  8B00              mov eax,[eax]
00003401  85C0              test eax,eax
00003403  7507              jnz 0x340c
00003405  B8FFFFFFFF        mov eax,0xffffffff
0000340A  EB1C              jmp short 0x3428
0000340C  8B45F4            mov eax,[ebp-0xc]
0000340F  8B400C            mov eax,[eax+0xc]
00003412  890424            mov [esp],eax
00003415  E81B5A0000        call dword 0x8e35
0000341A  8B45F4            mov eax,[ebp-0xc]
0000341D  C70000000000      mov dword [eax],0x0
00003423  B800000000        mov eax,0x0
00003428  C9                leave
00003429  C3                ret
0000342A  0000              add [eax],al
0000342C  55                push ebp
0000342D  89E5              mov ebp,esp
0000342F  83EC28            sub esp,byte +0x28
00003432  837D081F          cmp dword [ebp+0x8],byte +0x1f
00003436  7706              ja 0x343e
00003438  837D0C1F          cmp dword [ebp+0xc],byte +0x1f
0000343C  760A              jna 0x3448
0000343E  B8FFFFFFFF        mov eax,0xffffffff
00003443  E99E000000        jmp dword 0x34e6
00003448  A180AA0300        mov eax,[0x3aa80]
0000344D  C1E007            shl eax,0x7
00003450  89C2              mov edx,eax
00003452  C1E204            shl edx,0x4
00003455  01D0              add eax,edx
00003457  83C070            add eax,byte +0x70
0000345A  05808A0100        add eax,0x18a80
0000345F  8D5008            lea edx,[eax+0x8]
00003462  8B4508            mov eax,[ebp+0x8]
00003465  C1E004            shl eax,0x4
00003468  01D0              add eax,edx
0000346A  8945F4            mov [ebp-0xc],eax
0000346D  A180AA0300        mov eax,[0x3aa80]
00003472  C1E007            shl eax,0x7
00003475  89C2              mov edx,eax
00003477  C1E204            shl edx,0x4
0000347A  01D0              add eax,edx
0000347C  83C070            add eax,byte +0x70
0000347F  05808A0100        add eax,0x18a80
00003484  8D5008            lea edx,[eax+0x8]
00003487  8B450C            mov eax,[ebp+0xc]
0000348A  C1E004            shl eax,0x4
0000348D  01D0              add eax,edx
0000348F  8945F0            mov [ebp-0x10],eax
00003492  8B45F4            mov eax,[ebp-0xc]
00003495  8B00              mov eax,[eax]
00003497  85C0              test eax,eax
00003499  7507              jnz 0x34a2
0000349B  B8FFFFFFFF        mov eax,0xffffffff
000034A0  EB44              jmp short 0x34e6
000034A2  8B45F0            mov eax,[ebp-0x10]
000034A5  8B00              mov eax,[eax]
000034A7  85C0              test eax,eax
000034A9  740E              jz 0x34b9
000034AB  8B45F0            mov eax,[ebp-0x10]
000034AE  8B400C            mov eax,[eax+0xc]
000034B1  890424            mov [esp],eax
000034B4  E87C590000        call dword 0x8e35
000034B9  8B45F4            mov eax,[ebp-0xc]
000034BC  8B400C            mov eax,[eax+0xc]
000034BF  890424            mov [esp],eax
000034C2  E899580000        call dword 0x8d60
000034C7  8B45F0            mov eax,[ebp-0x10]
000034CA  8B55F4            mov edx,[ebp-0xc]
000034CD  8B0A              mov ecx,[edx]
000034CF  8908              mov [eax],ecx
000034D1  8B4A04            mov ecx,[edx+0x4]
000034D4  894804            mov [eax+0x4],ecx
000034D7  8B4A08            mov ecx,[edx+0x8]
000034DA  894808            mov [eax+0x8],ecx
000034DD  8B520C            mov edx,[edx+0xc]
000034E0  89500C            mov [eax+0xc],edx
000034E3  8B450C            mov eax,[ebp+0xc]
000034E6  C9                leave
000034E7  C3                ret
000034E8  55                push ebp
000034E9  89E5              mov ebp,esp
000034EB  53                push ebx
000034EC  81ECC4000000      sub esp,0xc4
000034F2  C744240801040000  mov dword [esp+0x8],0x401
000034FA  8B4508            mov eax,[ebp+0x8]
000034FD  89442404          mov [esp+0x4],eax
00003501  C70424C0FB0300    mov dword [esp],0x3fbc0
00003508  E8D8DEFFFF        call dword 0x13e5
0000350D  C70424C0FB0300    mov dword [esp],0x3fbc0
00003514  E8EF5A0000        call dword 0x9008
00003519  85C0              test eax,eax
0000351B  740A              jz 0x3527
0000351D  B8FFFFFFFF        mov eax,0xffffffff
00003522  E91D030000        jmp dword 0x3844
00003527  8D45A8            lea eax,[ebp-0x58]
0000352A  89442404          mov [esp+0x4],eax
0000352E  C70424C0FB0300    mov dword [esp],0x3fbc0
00003535  E8BA5D0000        call dword 0x92f4
0000353A  85C0              test eax,eax
0000353C  740A              jz 0x3548
0000353E  B8FFFFFFFF        mov eax,0xffffffff
00003543  E9FC020000        jmp dword 0x3844
00003548  C744240C00000000  mov dword [esp+0xc],0x0
00003550  C744240834000000  mov dword [esp+0x8],0x34
00003558  8D8574FFFFFF      lea eax,[ebp-0x8c]
0000355E  89442404          mov [esp+0x4],eax
00003562  8D45A8            lea eax,[ebp-0x58]
00003565  890424            mov [esp],eax
00003568  E89E440000        call dword 0x7a0b
0000356D  85C0              test eax,eax
0000356F  790A              jns 0x357b
00003571  B8FFFFFFFF        mov eax,0xffffffff
00003576  E9C9020000        jmp dword 0x3844
0000357B  0FB68574FFFFFF    movzx eax,byte [ebp-0x8c]
00003582  3C7F              cmp al,0x7f
00003584  7521              jnz 0x35a7
00003586  0FB68575FFFFFF    movzx eax,byte [ebp-0x8b]
0000358D  3C45              cmp al,0x45
0000358F  7516              jnz 0x35a7
00003591  0FB68576FFFFFF    movzx eax,byte [ebp-0x8a]
00003598  3C4C              cmp al,0x4c
0000359A  750B              jnz 0x35a7
0000359C  0FB68577FFFFFF    movzx eax,byte [ebp-0x89]
000035A3  3C46              cmp al,0x46
000035A5  740A              jz 0x35b1
000035A7  B8FFFFFFFF        mov eax,0xffffffff
000035AC  E993020000        jmp dword 0x3844
000035B1  C745F400000000    mov dword [ebp-0xc],0x0
000035B8  E9BE000000        jmp dword 0x367b
000035BD  8B4590            mov eax,[ebp-0x70]
000035C0  8B55F4            mov edx,[ebp-0xc]
000035C3  C1E205            shl edx,0x5
000035C6  01D0              add eax,edx
000035C8  8944240C          mov [esp+0xc],eax
000035CC  C744240820000000  mov dword [esp+0x8],0x20
000035D4  8D8554FFFFFF      lea eax,[ebp-0xac]
000035DA  89442404          mov [esp+0x4],eax
000035DE  8D45A8            lea eax,[ebp-0x58]
000035E1  890424            mov [esp],eax
000035E4  E822440000        call dword 0x7a0b
000035E9  85C0              test eax,eax
000035EB  790C              jns 0x35f9
000035ED  C70424FFFFFFFF    mov dword [esp],0xffffffff
000035F4  E857020000        call dword 0x3850
000035F9  8B8554FFFFFF      mov eax,[ebp-0xac]
000035FF  83F801            cmp eax,byte +0x1
00003602  7573              jnz 0x3677
00003604  8B855CFFFFFF      mov eax,[ebp-0xa4]
0000360A  3DFFFFFF3F        cmp eax,0x3fffffff
0000360F  7666              jna 0x3677
00003611  8B855CFFFFFF      mov eax,[ebp-0xa4]
00003617  3DFFFFFFEF        cmp eax,0xefffffff
0000361C  7759              ja 0x3677
0000361E  8B9568FFFFFF      mov edx,[ebp-0x98]
00003624  8B855CFFFFFF      mov eax,[ebp-0xa4]
0000362A  89542408          mov [esp+0x8],edx
0000362E  C744240400000000  mov dword [esp+0x4],0x0
00003636  890424            mov [esp],eax
00003639  E873DDFFFF        call dword 0x13b1
0000363E  8B8D58FFFFFF      mov ecx,[ebp-0xa8]
00003644  8B9564FFFFFF      mov edx,[ebp-0x9c]
0000364A  8B855CFFFFFF      mov eax,[ebp-0xa4]
00003650  894C240C          mov [esp+0xc],ecx
00003654  89542408          mov [esp+0x8],edx
00003658  89442404          mov [esp+0x4],eax
0000365C  8D45A8            lea eax,[ebp-0x58]
0000365F  890424            mov [esp],eax
00003662  E8A4430000        call dword 0x7a0b
00003667  85C0              test eax,eax
00003669  790C              jns 0x3677
0000366B  C70424FFFFFFFF    mov dword [esp],0xffffffff
00003672  E8D9010000        call dword 0x3850
00003677  8345F401          add dword [ebp-0xc],byte +0x1
0000367B  0FB745A0          movzx eax,word [ebp-0x60]
0000367F  0FB7C0            movzx eax,ax
00003682  3B45F4            cmp eax,[ebp-0xc]
00003685  0F8732FFFFFF      ja dword 0x35bd
0000368B  837D0C00          cmp dword [ebp+0xc],byte +0x0
0000368F  0F84FC000000      jz dword 0x3791
00003695  C745F000000000    mov dword [ebp-0x10],0x0
0000369C  C745E800000000    mov dword [ebp-0x18],0x0
000036A3  EB20              jmp short 0x36c5
000036A5  8B45F0            mov eax,[ebp-0x10]
000036A8  C1E002            shl eax,0x2
000036AB  03450C            add eax,[ebp+0xc]
000036AE  8B00              mov eax,[eax]
000036B0  890424            mov [esp],eax
000036B3  E88ADDFFFF        call dword 0x1442
000036B8  0345E8            add eax,[ebp-0x18]
000036BB  83C001            add eax,byte +0x1
000036BE  8945E8            mov [ebp-0x18],eax
000036C1  8345F001          add dword [ebp-0x10],byte +0x1
000036C5  8B45F0            mov eax,[ebp-0x10]
000036C8  C1E002            shl eax,0x2
000036CB  03450C            add eax,[ebp+0xc]
000036CE  8B00              mov eax,[eax]
000036D0  85C0              test eax,eax
000036D2  75D1              jnz 0x36a5
000036D4  8B45E8            mov eax,[ebp-0x18]
000036D7  F7D8              neg eax
000036D9  2D00F0FF0F        sub eax,0xffff000
000036DE  8945D8            mov [ebp-0x28],eax
000036E1  8B45F0            mov eax,[ebp-0x10]
000036E4  C1E002            shl eax,0x2
000036E7  F7D8              neg eax
000036E9  0345D8            add eax,[ebp-0x28]
000036EC  8945D4            mov [ebp-0x2c],eax
000036EF  8B45D4            mov eax,[ebp-0x2c]
000036F2  83E003            and eax,byte +0x3
000036F5  F7D8              neg eax
000036F7  0145D4            add [ebp-0x2c],eax
000036FA  C745EC00000000    mov dword [ebp-0x14],0x0
00003701  C745E400000000    mov dword [ebp-0x1c],0x0
00003708  EB5E              jmp short 0x3768
0000370A  8B45E4            mov eax,[ebp-0x1c]
0000370D  8B55E8            mov edx,[ebp-0x18]
00003710  89D1              mov ecx,edx
00003712  29C1              sub ecx,eax
00003714  8B45EC            mov eax,[ebp-0x14]
00003717  C1E002            shl eax,0x2
0000371A  03450C            add eax,[ebp+0xc]
0000371D  8B00              mov eax,[eax]
0000371F  8B55E4            mov edx,[ebp-0x1c]
00003722  8B5DD8            mov ebx,[ebp-0x28]
00003725  01DA              add edx,ebx
00003727  894C2408          mov [esp+0x8],ecx
0000372B  89442404          mov [esp+0x4],eax
0000372F  891424            mov [esp],edx
00003732  E8AEDCFFFF        call dword 0x13e5
00003737  8B45EC            mov eax,[ebp-0x14]
0000373A  C1E002            shl eax,0x2
0000373D  0345D4            add eax,[ebp-0x2c]
00003740  8B55D8            mov edx,[ebp-0x28]
00003743  0355E4            add edx,[ebp-0x1c]
00003746  8910              mov [eax],edx
00003748  8B45EC            mov eax,[ebp-0x14]
0000374B  C1E002            shl eax,0x2
0000374E  03450C            add eax,[ebp+0xc]
00003751  8B00              mov eax,[eax]
00003753  890424            mov [esp],eax
00003756  E8E7DCFFFF        call dword 0x1442
0000375B  0345E4            add eax,[ebp-0x1c]
0000375E  83C001            add eax,byte +0x1
00003761  8945E4            mov [ebp-0x1c],eax
00003764  8345EC01          add dword [ebp-0x14],byte +0x1
00003768  8B45EC            mov eax,[ebp-0x14]
0000376B  3B45F0            cmp eax,[ebp-0x10]
0000376E  729A              jc 0x370a
00003770  8B45D4            mov eax,[ebp-0x2c]
00003773  8D50FC            lea edx,[eax-0x4]
00003776  8B45D4            mov eax,[ebp-0x2c]
00003779  8902              mov [edx],eax
0000377B  8B45D4            mov eax,[ebp-0x2c]
0000377E  8D50F8            lea edx,[eax-0x8]
00003781  8B45F0            mov eax,[ebp-0x10]
00003784  8902              mov [edx],eax
00003786  8B45D4            mov eax,[ebp-0x2c]
00003789  83E808            sub eax,byte +0x8
0000378C  8945E0            mov [ebp-0x20],eax
0000378F  EB07              jmp short 0x3798
00003791  C745E0FC0F00F0    mov dword [ebp-0x20],0xf0000ffc
00003798  A180AA0300        mov eax,[0x3aa80]
0000379D  8B558C            mov edx,[ebp-0x74]
000037A0  C1E007            shl eax,0x7
000037A3  89C1              mov ecx,eax
000037A5  C1E104            shl ecx,0x4
000037A8  01C8              add eax,ecx
000037AA  05AC8A0100        add eax,0x18aac
000037AF  8910              mov [eax],edx
000037B1  A180AA0300        mov eax,[0x3aa80]
000037B6  C1E007            shl eax,0x7
000037B9  89C2              mov edx,eax
000037BB  C1E204            shl edx,0x4
000037BE  01D0              add eax,edx
000037C0  8D90B88A0100      lea edx,[eax+0x18ab8]
000037C6  8B45E0            mov eax,[ebp-0x20]
000037C9  8902              mov [edx],eax
000037CB  C745DC00000000    mov dword [ebp-0x24],0x0
000037D2  EB58              jmp short 0x382c
000037D4  A180AA0300        mov eax,[0x3aa80]
000037D9  C1E007            shl eax,0x7
000037DC  89C2              mov edx,eax
000037DE  C1E204            shl edx,0x4
000037E1  01D0              add eax,edx
000037E3  83C070            add eax,byte +0x70
000037E6  05808A0100        add eax,0x18a80
000037EB  8D5008            lea edx,[eax+0x8]
000037EE  8B45DC            mov eax,[ebp-0x24]
000037F1  C1E004            shl eax,0x4
000037F4  01D0              add eax,edx
000037F6  8945D0            mov [ebp-0x30],eax
000037F9  8B45D0            mov eax,[ebp-0x30]
000037FC  8B00              mov eax,[eax]
000037FE  85C0              test eax,eax
00003800  7426              jz 0x3828
00003802  8B45D0            mov eax,[ebp-0x30]
00003805  8B4004            mov eax,[eax+0x4]
00003808  2500000400        and eax,0x40000
0000380D  85C0              test eax,eax
0000380F  7417              jz 0x3828
00003811  8B45D0            mov eax,[ebp-0x30]
00003814  8B400C            mov eax,[eax+0xc]
00003817  890424            mov [esp],eax
0000381A  E816560000        call dword 0x8e35
0000381F  8B45D0            mov eax,[ebp-0x30]
00003822  C70000000000      mov dword [eax],0x0
00003828  8345DC01          add dword [ebp-0x24],byte +0x1
0000382C  837DDC1F          cmp dword [ebp-0x24],byte +0x1f
00003830  76A2              jna 0x37d4
00003832  A180AA0300        mov eax,[0x3aa80]
00003837  890424            mov [esp],eax
0000383A  E83DEBFFFF        call dword 0x237c
0000383F  B8FFFFFFFF        mov eax,0xffffffff
00003844  81C4C4000000      add esp,0xc4
0000384A  5B                pop ebx
0000384B  5D                pop ebp
0000384C  C3                ret
0000384D  0000              add [eax],al
0000384F  005589            add [ebp-0x77],dl
00003852  E583              in eax,0x83
00003854  EC                in al,dx
00003855  28A180AA0300      sub [ecx+0x3aa80],ah
0000385B  C1E007            shl eax,0x7
0000385E  89C2              mov edx,eax
00003860  C1E204            shl edx,0x4
00003863  01D0              add eax,edx
00003865  05808A0100        add eax,0x18a80
0000386A  8945EC            mov [ebp-0x14],eax
0000386D  C745E8808A0100    mov dword [ebp-0x18],0x18a80
00003874  A180AA0300        mov eax,[0x3aa80]
00003879  85C0              test eax,eax
0000387B  752C              jnz 0x38a9
0000387D  FA                cli
0000387E  C7442408ED230100  mov dword [esp+0x8],0x123ed
00003886  C744240478230100  mov dword [esp+0x4],0x12378
0000388E  C704248F230100    mov dword [esp],0x1238f
00003895  E82ADFFFFF        call dword 0x17c4
0000389A  C70424A0230100    mov dword [esp],0x123a0
000038A1  E81EDFFFFF        call dword 0x17c4
000038A6  F4                hlt
000038A7  EB34              jmp short 0x38dd
000038A9  8B45EC            mov eax,[ebp-0x14]
000038AC  8B4068            mov eax,[eax+0x68]
000038AF  85C0              test eax,eax
000038B1  752A              jnz 0x38dd
000038B3  FA                cli
000038B4  C7442408ED230100  mov dword [esp+0x8],0x123ed
000038BC  C744240478230100  mov dword [esp+0x4],0x12378
000038C4  C704248F230100    mov dword [esp],0x1238f
000038CB  E8F4DEFFFF        call dword 0x17c4
000038D0  C70424BF230100    mov dword [esp],0x123bf
000038D7  E8E8DEFFFF        call dword 0x17c4
000038DC  F4                hlt
000038DD  8B45EC            mov eax,[ebp-0x14]
000038E0  8B406C            mov eax,[eax+0x6c]
000038E3  85C0              test eax,eax
000038E5  0F84F9000000      jz dword 0x39e4
000038EB  8B45E8            mov eax,[ebp-0x18]
000038EE  8B406C            mov eax,[eax+0x6c]
000038F1  85C0              test eax,eax
000038F3  752A              jnz 0x391f
000038F5  FA                cli
000038F6  C7442408ED230100  mov dword [esp+0x8],0x123ed
000038FE  C744240478230100  mov dword [esp+0x4],0x12378
00003906  C704248F230100    mov dword [esp],0x1238f
0000390D  E8B2DEFFFF        call dword 0x17c4
00003912  C70424D5230100    mov dword [esp],0x123d5
00003919  E8A6DEFFFF        call dword 0x17c4
0000391E  F4                hlt
0000391F  8B45EC            mov eax,[ebp-0x14]
00003922  8B406C            mov eax,[eax+0x6c]
00003925  8945F4            mov [ebp-0xc],eax
00003928  8B45F4            mov eax,[ebp-0xc]
0000392B  8B55E8            mov edx,[ebp-0x18]
0000392E  895068            mov [eax+0x68],edx
00003931  8B45F4            mov eax,[ebp-0xc]
00003934  8B4074            mov eax,[eax+0x74]
00003937  8945F4            mov [ebp-0xc],eax
0000393A  8B45EC            mov eax,[ebp-0x14]
0000393D  8B406C            mov eax,[eax+0x6c]
00003940  3B45F4            cmp eax,[ebp-0xc]
00003943  75E3              jnz 0x3928
00003945  8B45E8            mov eax,[ebp-0x18]
00003948  8B506C            mov edx,[eax+0x6c]
0000394B  8B45E8            mov eax,[ebp-0x18]
0000394E  8B406C            mov eax,[eax+0x6c]
00003951  8B4074            mov eax,[eax+0x74]
00003954  39C2              cmp edx,eax
00003956  7544              jnz 0x399c
00003958  8B45E8            mov eax,[ebp-0x18]
0000395B  8B406C            mov eax,[eax+0x6c]
0000395E  8B55EC            mov edx,[ebp-0x14]
00003961  8B526C            mov edx,[edx+0x6c]
00003964  895070            mov [eax+0x70],edx
00003967  8B45E8            mov eax,[ebp-0x18]
0000396A  8B406C            mov eax,[eax+0x6c]
0000396D  8B55EC            mov edx,[ebp-0x14]
00003970  8B526C            mov edx,[edx+0x6c]
00003973  8B5274            mov edx,[edx+0x74]
00003976  895074            mov [eax+0x74],edx
00003979  8B45EC            mov eax,[ebp-0x14]
0000397C  8B406C            mov eax,[eax+0x6c]
0000397F  8B4074            mov eax,[eax+0x74]
00003982  8B55E8            mov edx,[ebp-0x18]
00003985  8B526C            mov edx,[edx+0x6c]
00003988  895070            mov [eax+0x70],edx
0000398B  8B45EC            mov eax,[ebp-0x14]
0000398E  8B406C            mov eax,[eax+0x6c]
00003991  8B55E8            mov edx,[ebp-0x18]
00003994  8B526C            mov edx,[edx+0x6c]
00003997  895074            mov [eax+0x74],edx
0000399A  EB48              jmp short 0x39e4
0000399C  8B45E8            mov eax,[ebp-0x18]
0000399F  8B406C            mov eax,[eax+0x6c]
000039A2  8B4070            mov eax,[eax+0x70]
000039A5  8B55EC            mov edx,[ebp-0x14]
000039A8  8B526C            mov edx,[edx+0x6c]
000039AB  8B5274            mov edx,[edx+0x74]
000039AE  895074            mov [eax+0x74],edx
000039B1  8B45E8            mov eax,[ebp-0x18]
000039B4  8B406C            mov eax,[eax+0x6c]
000039B7  8B55EC            mov edx,[ebp-0x14]
000039BA  8B526C            mov edx,[edx+0x6c]
000039BD  895070            mov [eax+0x70],edx
000039C0  8B45EC            mov eax,[ebp-0x14]
000039C3  8B406C            mov eax,[eax+0x6c]
000039C6  8B4074            mov eax,[eax+0x74]
000039C9  8B55E8            mov edx,[ebp-0x18]
000039CC  8B526C            mov edx,[edx+0x6c]
000039CF  8B5274            mov edx,[edx+0x74]
000039D2  895070            mov [eax+0x70],edx
000039D5  8B45EC            mov eax,[ebp-0x14]
000039D8  8B406C            mov eax,[eax+0x6c]
000039DB  8B55E8            mov edx,[ebp-0x18]
000039DE  8B526C            mov edx,[edx+0x6c]
000039E1  895074            mov [eax+0x74],edx
000039E4  8B45EC            mov eax,[ebp-0x14]
000039E7  8B4068            mov eax,[eax+0x68]
000039EA  8B406C            mov eax,[eax+0x6c]
000039ED  3B45EC            cmp eax,[ebp-0x14]
000039F0  751A              jnz 0x3a0c
000039F2  8B45EC            mov eax,[ebp-0x14]
000039F5  8B4074            mov eax,[eax+0x74]
000039F8  3B45EC            cmp eax,[ebp-0x14]
000039FB  750F              jnz 0x3a0c
000039FD  8B45EC            mov eax,[ebp-0x14]
00003A00  8B4068            mov eax,[eax+0x68]
00003A03  C7406C00000000    mov dword [eax+0x6c],0x0
00003A0A  EB3B              jmp short 0x3a47
00003A0C  8B45EC            mov eax,[ebp-0x14]
00003A0F  8B4068            mov eax,[eax+0x68]
00003A12  8B406C            mov eax,[eax+0x6c]
00003A15  3B45EC            cmp eax,[ebp-0x14]
00003A18  750F              jnz 0x3a29
00003A1A  8B45EC            mov eax,[ebp-0x14]
00003A1D  8B4068            mov eax,[eax+0x68]
00003A20  8B55EC            mov edx,[ebp-0x14]
00003A23  8B5274            mov edx,[edx+0x74]
00003A26  89506C            mov [eax+0x6c],edx
00003A29  8B45EC            mov eax,[ebp-0x14]
00003A2C  8B4074            mov eax,[eax+0x74]
00003A2F  8B55EC            mov edx,[ebp-0x14]
00003A32  8B5270            mov edx,[edx+0x70]
00003A35  895070            mov [eax+0x70],edx
00003A38  8B45EC            mov eax,[ebp-0x14]
00003A3B  8B4070            mov eax,[eax+0x70]
00003A3E  8B55EC            mov edx,[ebp-0x14]
00003A41  8B5274            mov edx,[edx+0x74]
00003A44  895074            mov [eax+0x74],edx
00003A47  C745F000000000    mov dword [ebp-0x10],0x0
00003A4E  EB36              jmp short 0x3a86
00003A50  8B45EC            mov eax,[ebp-0x14]
00003A53  8B55F0            mov edx,[ebp-0x10]
00003A56  83C207            add edx,byte +0x7
00003A59  C1E204            shl edx,0x4
00003A5C  01D0              add eax,edx
00003A5E  83C008            add eax,byte +0x8
00003A61  8B00              mov eax,[eax]
00003A63  85C0              test eax,eax
00003A65  741B              jz 0x3a82
00003A67  8B45EC            mov eax,[ebp-0x14]
00003A6A  8B55F0            mov edx,[ebp-0x10]
00003A6D  83C207            add edx,byte +0x7
00003A70  C1E204            shl edx,0x4
00003A73  01D0              add eax,edx
00003A75  83C014            add eax,byte +0x14
00003A78  8B00              mov eax,[eax]
00003A7A  890424            mov [esp],eax
00003A7D  E8B3530000        call dword 0x8e35
00003A82  8345F001          add dword [ebp-0x10],byte +0x1
00003A86  837DF01F          cmp dword [ebp-0x10],byte +0x1f
00003A8A  76C4              jna 0x3a50
00003A8C  8B45EC            mov eax,[ebp-0x14]
00003A8F  8B4068            mov eax,[eax+0x68]
00003A92  8B1580AA0300      mov edx,[dword 0x3aa80]
00003A98  899078080000      mov [eax+0x878],edx
00003A9E  8B45EC            mov eax,[ebp-0x14]
00003AA1  8B4068            mov eax,[eax+0x68]
00003AA4  8B5508            mov edx,[ebp+0x8]
00003AA7  89907C080000      mov [eax+0x87c],edx
00003AAD  8B45EC            mov eax,[ebp-0x14]
00003AB0  8B4068            mov eax,[eax+0x68]
00003AB3  8B55EC            mov edx,[ebp-0x14]
00003AB6  8B5268            mov edx,[edx+0x68]
00003AB9  8B927C060000      mov edx,[edx+0x67c]
00003ABF  81CA00000100      or edx,0x10000
00003AC5  89907C060000      mov [eax+0x67c],edx
00003ACB  8B45EC            mov eax,[ebp-0x14]
00003ACE  C7405000000000    mov dword [eax+0x50],0x0
00003AD5  BCFC7F0000        mov esp,0x7ffc
00003ADA  66B81800          mov ax,0x18
00003ADE  8ED0              mov ss,ax
00003AE0  A180AA0300        mov eax,[0x3aa80]
00003AE5  C1E007            shl eax,0x7
00003AE8  89C2              mov edx,eax
00003AEA  C1E204            shl edx,0x4
00003AED  01D0              add eax,edx
00003AEF  05D08A0100        add eax,0x18ad0
00003AF4  8B5008            mov edx,[eax+0x8]
00003AF7  8B4004            mov eax,[eax+0x4]
00003AFA  890424            mov [esp],eax
00003AFD  89542404          mov [esp+0x4],edx
00003B01  E83F220000        call dword 0x5d45
00003B06  B800100000        mov eax,0x1000
00003B0B  0F22D8            mov cr3,eax
00003B0E  A180AA0300        mov eax,[0x3aa80]
00003B13  C1E007            shl eax,0x7
00003B16  89C2              mov edx,eax
00003B18  C1E204            shl edx,0x4
00003B1B  01D0              add eax,edx
00003B1D  05C08A0100        add eax,0x18ac0
00003B22  8B00              mov eax,[eax]
00003B24  890424            mov [esp],eax
00003B27  E8C2260000        call dword 0x61ee
00003B2C  C7042400000000    mov dword [esp],0x0
00003B33  E844E8FFFF        call dword 0x237c
00003B38  C9                leave
00003B39  C3                ret
00003B3A  0000              add [eax],al
00003B3C  55                push ebp
00003B3D  89E5              mov ebp,esp
00003B3F  83EC38            sub esp,byte +0x38
00003B42  837D081F          cmp dword [ebp+0x8],byte +0x1f
00003B46  760A              jna 0x3b52
00003B48  B8FFFFFFFF        mov eax,0xffffffff
00003B4D  E968010000        jmp dword 0x3cba
00003B52  A180AA0300        mov eax,[0x3aa80]
00003B57  C1E007            shl eax,0x7
00003B5A  89C2              mov edx,eax
00003B5C  C1E204            shl edx,0x4
00003B5F  01D0              add eax,edx
00003B61  83C070            add eax,byte +0x70
00003B64  05808A0100        add eax,0x18a80
00003B69  8D5008            lea edx,[eax+0x8]
00003B6C  8B4508            mov eax,[ebp+0x8]
00003B6F  C1E004            shl eax,0x4
00003B72  01D0              add eax,edx
00003B74  8945EC            mov [ebp-0x14],eax
00003B77  8B45EC            mov eax,[ebp-0x14]
00003B7A  8B00              mov eax,[eax]
00003B7C  85C0              test eax,eax
00003B7E  750A              jnz 0x3b8a
00003B80  B8FFFFFFFF        mov eax,0xffffffff
00003B85  E930010000        jmp dword 0x3cba
00003B8A  8B450C            mov eax,[ebp+0xc]
00003B8D  83F802            cmp eax,byte +0x2
00003B90  0F84B6000000      jz dword 0x3c4c
00003B96  83F802            cmp eax,byte +0x2
00003B99  7709              ja 0x3ba4
00003B9B  85C0              test eax,eax
00003B9D  741C              jz 0x3bbb
00003B9F  E9F6000000        jmp dword 0x3c9a
00003BA4  83F803            cmp eax,byte +0x3
00003BA7  0F84C9000000      jz dword 0x3c76
00003BAD  83F804            cmp eax,byte +0x4
00003BB0  0F84CB000000      jz dword 0x3c81
00003BB6  E9DF000000        jmp dword 0x3c9a
00003BBB  8B4510            mov eax,[ebp+0x10]
00003BBE  8D5004            lea edx,[eax+0x4]
00003BC1  895510            mov [ebp+0x10],edx
00003BC4  8B00              mov eax,[eax]
00003BC6  8945E8            mov [ebp-0x18],eax
00003BC9  8B45E8            mov eax,[ebp-0x18]
00003BCC  8945F0            mov [ebp-0x10],eax
00003BCF  EB5E              jmp short 0x3c2f
00003BD1  A180AA0300        mov eax,[0x3aa80]
00003BD6  C1E007            shl eax,0x7
00003BD9  89C2              mov edx,eax
00003BDB  C1E204            shl edx,0x4
00003BDE  01D0              add eax,edx
00003BE0  83C070            add eax,byte +0x70
00003BE3  05808A0100        add eax,0x18a80
00003BE8  8D5008            lea edx,[eax+0x8]
00003BEB  8B45F0            mov eax,[ebp-0x10]
00003BEE  C1E004            shl eax,0x4
00003BF1  01D0              add eax,edx
00003BF3  8945E4            mov [ebp-0x1c],eax
00003BF6  8B45E4            mov eax,[ebp-0x1c]
00003BF9  8B00              mov eax,[eax]
00003BFB  85C0              test eax,eax
00003BFD  752C              jnz 0x3c2b
00003BFF  8B45EC            mov eax,[ebp-0x14]
00003C02  8B400C            mov eax,[eax+0xc]
00003C05  890424            mov [esp],eax
00003C08  E853510000        call dword 0x8d60
00003C0D  8B45E4            mov eax,[ebp-0x1c]
00003C10  8B55EC            mov edx,[ebp-0x14]
00003C13  8B0A              mov ecx,[edx]
00003C15  8908              mov [eax],ecx
00003C17  8B4A04            mov ecx,[edx+0x4]
00003C1A  894804            mov [eax+0x4],ecx
00003C1D  8B4A08            mov ecx,[edx+0x8]
00003C20  894808            mov [eax+0x8],ecx
00003C23  8B520C            mov edx,[edx+0xc]
00003C26  89500C            mov [eax+0xc],edx
00003C29  EB0A              jmp short 0x3c35
00003C2B  8345F001          add dword [ebp-0x10],byte +0x1
00003C2F  837DF01F          cmp dword [ebp-0x10],byte +0x1f
00003C33  769C              jna 0x3bd1
00003C35  837DF020          cmp dword [ebp-0x10],byte +0x20
00003C39  7509              jnz 0x3c44
00003C3B  C745F4FFFFFFFF    mov dword [ebp-0xc],0xffffffff
00003C42  EB73              jmp short 0x3cb7
00003C44  8B45F0            mov eax,[ebp-0x10]
00003C47  8945F4            mov [ebp-0xc],eax
00003C4A  EB6B              jmp short 0x3cb7
00003C4C  8B4510            mov eax,[ebp+0x10]
00003C4F  8D5004            lea edx,[eax+0x4]
00003C52  895510            mov [ebp+0x10],edx
00003C55  8B00              mov eax,[eax]
00003C57  8945E0            mov [ebp-0x20],eax
00003C5A  837DE001          cmp dword [ebp-0x20],byte +0x1
00003C5E  7556              jnz 0x3cb6
00003C60  8B45EC            mov eax,[ebp-0x14]
00003C63  8B4004            mov eax,[eax+0x4]
00003C66  89C2              mov edx,eax
00003C68  81CA00000400      or edx,0x40000
00003C6E  8B45EC            mov eax,[ebp-0x14]
00003C71  895004            mov [eax+0x4],edx
00003C74  EB40              jmp short 0x3cb6
00003C76  8B45EC            mov eax,[ebp-0x14]
00003C79  8B4004            mov eax,[eax+0x4]
00003C7C  8945F4            mov [ebp-0xc],eax
00003C7F  EB36              jmp short 0x3cb7
00003C81  8B4510            mov eax,[ebp+0x10]
00003C84  8D5004            lea edx,[eax+0x4]
00003C87  895510            mov [ebp+0x10],edx
00003C8A  8B00              mov eax,[eax]
00003C8C  8945DC            mov [ebp-0x24],eax
00003C8F  8B45EC            mov eax,[ebp-0x14]
00003C92  8B55DC            mov edx,[ebp-0x24]
00003C95  895004            mov [eax+0x4],edx
00003C98  EB1D              jmp short 0x3cb7
00003C9A  8B450C            mov eax,[ebp+0xc]
00003C9D  89442404          mov [esp+0x4],eax
00003CA1  C70424F6230100    mov dword [esp],0x123f6
00003CA8  E817DBFFFF        call dword 0x17c4
00003CAD  C745F4FFFFFFFF    mov dword [ebp-0xc],0xffffffff
00003CB4  EB01              jmp short 0x3cb7
00003CB6  90                nop
00003CB7  8B45F4            mov eax,[ebp-0xc]
00003CBA  C9                leave
00003CBB  C3                ret
00003CBC  55                push ebp
00003CBD  89E5              mov ebp,esp
00003CBF  83EC28            sub esp,byte +0x28
00003CC2  8B4500            mov eax,[ebp+0x0]
00003CC5  8945E8            mov [ebp-0x18],eax
00003CC8  E8EE260000        call dword 0x63bb
00003CCD  8945F0            mov [ebp-0x10],eax
00003CD0  837DF000          cmp dword [ebp-0x10],byte +0x0
00003CD4  0F84C3040000      jz dword 0x419d
00003CDA  A180AA0300        mov eax,[0x3aa80]
00003CDF  C1E007            shl eax,0x7
00003CE2  89C2              mov edx,eax
00003CE4  C1E204            shl edx,0x4
00003CE7  01D0              add eax,edx
00003CE9  05808A0100        add eax,0x18a80
00003CEE  C744240800000000  mov dword [esp+0x8],0x0
00003CF6  C744240400000000  mov dword [esp+0x4],0x0
00003CFE  890424            mov [esp],eax
00003D01  E812DBFFFF        call dword 0x1818
00003D06  8945EC            mov [ebp-0x14],eax
00003D09  837DECFF          cmp dword [ebp-0x14],byte -0x1
00003D0D  0F847C040000      jz dword 0x418f
00003D13  8B45E8            mov eax,[ebp-0x18]
00003D16  8B5008            mov edx,[eax+0x8]
00003D19  8B45EC            mov eax,[ebp-0x14]
00003D1C  C1E007            shl eax,0x7
00003D1F  89C1              mov ecx,eax
00003D21  C1E104            shl ecx,0x4
00003D24  01C8              add eax,ecx
00003D26  05808A0100        add eax,0x18a80
00003D2B  8910              mov [eax],edx
00003D2D  8B45E8            mov eax,[ebp-0x18]
00003D30  8B500C            mov edx,[eax+0xc]
00003D33  8B45EC            mov eax,[ebp-0x14]
00003D36  C1E007            shl eax,0x7
00003D39  89C1              mov ecx,eax
00003D3B  C1E104            shl ecx,0x4
00003D3E  01C8              add eax,ecx
00003D40  05848A0100        add eax,0x18a84
00003D45  8910              mov [eax],edx
00003D47  8B45E8            mov eax,[ebp-0x18]
00003D4A  8B5010            mov edx,[eax+0x10]
00003D4D  8B45EC            mov eax,[ebp-0x14]
00003D50  C1E007            shl eax,0x7
00003D53  89C1              mov ecx,eax
00003D55  C1E104            shl ecx,0x4
00003D58  01C8              add eax,ecx
00003D5A  05888A0100        add eax,0x18a88
00003D5F  8910              mov [eax],edx
00003D61  8B45E8            mov eax,[ebp-0x18]
00003D64  8B5014            mov edx,[eax+0x14]
00003D67  8B45EC            mov eax,[ebp-0x14]
00003D6A  C1E007            shl eax,0x7
00003D6D  89C1              mov ecx,eax
00003D6F  C1E104            shl ecx,0x4
00003D72  01C8              add eax,ecx
00003D74  058C8A0100        add eax,0x18a8c
00003D79  8910              mov [eax],edx
00003D7B  8B45E8            mov eax,[ebp-0x18]
00003D7E  8B5018            mov edx,[eax+0x18]
00003D81  8B45EC            mov eax,[ebp-0x14]
00003D84  C1E007            shl eax,0x7
00003D87  89C1              mov ecx,eax
00003D89  C1E104            shl ecx,0x4
00003D8C  01C8              add eax,ecx
00003D8E  05908A0100        add eax,0x18a90
00003D93  8910              mov [eax],edx
00003D95  8B45E8            mov eax,[ebp-0x18]
00003D98  8B501C            mov edx,[eax+0x1c]
00003D9B  8B45EC            mov eax,[ebp-0x14]
00003D9E  C1E007            shl eax,0x7
00003DA1  89C1              mov ecx,eax
00003DA3  C1E104            shl ecx,0x4
00003DA6  01C8              add eax,ecx
00003DA8  05948A0100        add eax,0x18a94
00003DAD  8910              mov [eax],edx
00003DAF  8B45E8            mov eax,[ebp-0x18]
00003DB2  8B5020            mov edx,[eax+0x20]
00003DB5  8B45EC            mov eax,[ebp-0x14]
00003DB8  C1E007            shl eax,0x7
00003DBB  89C1              mov ecx,eax
00003DBD  C1E104            shl ecx,0x4
00003DC0  01C8              add eax,ecx
00003DC2  05988A0100        add eax,0x18a98
00003DC7  8910              mov [eax],edx
00003DC9  8B45E8            mov eax,[ebp-0x18]
00003DCC  8B5028            mov edx,[eax+0x28]
00003DCF  8B45EC            mov eax,[ebp-0x14]
00003DD2  C1E007            shl eax,0x7
00003DD5  89C1              mov ecx,eax
00003DD7  C1E104            shl ecx,0x4
00003DDA  01C8              add eax,ecx
00003DDC  059C8A0100        add eax,0x18a9c
00003DE1  8910              mov [eax],edx
00003DE3  8B45E8            mov eax,[ebp-0x18]
00003DE6  8B502C            mov edx,[eax+0x2c]
00003DE9  8B45EC            mov eax,[ebp-0x14]
00003DEC  C1E007            shl eax,0x7
00003DEF  89C1              mov ecx,eax
00003DF1  C1E104            shl ecx,0x4
00003DF4  01C8              add eax,ecx
00003DF6  05A08A0100        add eax,0x18aa0
00003DFB  8910              mov [eax],edx
00003DFD  8B45E8            mov eax,[ebp-0x18]
00003E00  8B5030            mov edx,[eax+0x30]
00003E03  8B45EC            mov eax,[ebp-0x14]
00003E06  C1E007            shl eax,0x7
00003E09  89C1              mov ecx,eax
00003E0B  C1E104            shl ecx,0x4
00003E0E  01C8              add eax,ecx
00003E10  05A48A0100        add eax,0x18aa4
00003E15  8910              mov [eax],edx
00003E17  8B45EC            mov eax,[ebp-0x14]
00003E1A  C1E007            shl eax,0x7
00003E1D  89C2              mov edx,eax
00003E1F  C1E204            shl edx,0x4
00003E22  01D0              add eax,edx
00003E24  05A88A0100        add eax,0x18aa8
00003E29  C70000000000      mov dword [eax],0x0
00003E2F  8B45E8            mov eax,[ebp-0x18]
00003E32  8B5038            mov edx,[eax+0x38]
00003E35  8B45EC            mov eax,[ebp-0x14]
00003E38  C1E007            shl eax,0x7
00003E3B  89C1              mov ecx,eax
00003E3D  C1E104            shl ecx,0x4
00003E40  01C8              add eax,ecx
00003E42  05AC8A0100        add eax,0x18aac
00003E47  8910              mov [eax],edx
00003E49  8B45E8            mov eax,[ebp-0x18]
00003E4C  8B503C            mov edx,[eax+0x3c]
00003E4F  8B45EC            mov eax,[ebp-0x14]
00003E52  C1E007            shl eax,0x7
00003E55  89C1              mov ecx,eax
00003E57  C1E104            shl ecx,0x4
00003E5A  01C8              add eax,ecx
00003E5C  05B08A0100        add eax,0x18ab0
00003E61  8910              mov [eax],edx
00003E63  8B45E8            mov eax,[ebp-0x18]
00003E66  8B5040            mov edx,[eax+0x40]
00003E69  8B45EC            mov eax,[ebp-0x14]
00003E6C  C1E007            shl eax,0x7
00003E6F  89C1              mov ecx,eax
00003E71  C1E104            shl ecx,0x4
00003E74  01C8              add eax,ecx
00003E76  05B48A0100        add eax,0x18ab4
00003E7B  8910              mov [eax],edx
00003E7D  8B45E8            mov eax,[ebp-0x18]
00003E80  83C03C            add eax,byte +0x3c
00003E83  8B00              mov eax,[eax]
00003E85  83F808            cmp eax,byte +0x8
00003E88  752C              jnz 0x3eb6
00003E8A  FA                cli
00003E8B  C744240858240100  mov dword [esp+0x8],0x12458
00003E93  C744240410240100  mov dword [esp+0x4],0x12410
00003E9B  C7042427240100    mov dword [esp],0x12427
00003EA2  E81DD9FFFF        call dword 0x17c4
00003EA7  C7042438240100    mov dword [esp],0x12438
00003EAE  E811D9FFFF        call dword 0x17c4
00003EB3  F4                hlt
00003EB4  EB34              jmp short 0x3eea
00003EB6  8B45E8            mov eax,[ebp-0x18]
00003EB9  8B5044            mov edx,[eax+0x44]
00003EBC  8B45EC            mov eax,[ebp-0x14]
00003EBF  C1E007            shl eax,0x7
00003EC2  89C1              mov ecx,eax
00003EC4  C1E104            shl ecx,0x4
00003EC7  01C8              add eax,ecx
00003EC9  05B88A0100        add eax,0x18ab8
00003ECE  8910              mov [eax],edx
00003ED0  8B45E8            mov eax,[ebp-0x18]
00003ED3  8B5048            mov edx,[eax+0x48]
00003ED6  8B45EC            mov eax,[ebp-0x14]
00003ED9  C1E007            shl eax,0x7
00003EDC  89C1              mov ecx,eax
00003EDE  C1E104            shl ecx,0x4
00003EE1  01C8              add eax,ecx
00003EE3  05BC8A0100        add eax,0x18abc
00003EE8  8910              mov [eax],edx
00003EEA  A180AA0300        mov eax,[0x3aa80]
00003EEF  C1E007            shl eax,0x7
00003EF2  89C2              mov edx,eax
00003EF4  C1E204            shl edx,0x4
00003EF7  01D0              add eax,edx
00003EF9  05C88A0100        add eax,0x18ac8
00003EFE  8B10              mov edx,[eax]
00003F00  8B45EC            mov eax,[ebp-0x14]
00003F03  C1E007            shl eax,0x7
00003F06  89C1              mov ecx,eax
00003F08  C1E104            shl ecx,0x4
00003F0B  01C8              add eax,ecx
00003F0D  05C88A0100        add eax,0x18ac8
00003F12  8910              mov [eax],edx
00003F14  A180AA0300        mov eax,[0x3aa80]
00003F19  C1E007            shl eax,0x7
00003F1C  89C2              mov edx,eax
00003F1E  C1E204            shl edx,0x4
00003F21  01D0              add eax,edx
00003F23  05CC8A0100        add eax,0x18acc
00003F28  8B10              mov edx,[eax]
00003F2A  8B45EC            mov eax,[ebp-0x14]
00003F2D  C1E007            shl eax,0x7
00003F30  89C1              mov ecx,eax
00003F32  C1E104            shl ecx,0x4
00003F35  01C8              add eax,ecx
00003F37  05CC8A0100        add eax,0x18acc
00003F3C  8910              mov [eax],edx
00003F3E  A180AA0300        mov eax,[0x3aa80]
00003F43  C1E007            shl eax,0x7
00003F46  89C2              mov edx,eax
00003F48  C1E204            shl edx,0x4
00003F4B  01D0              add eax,edx
00003F4D  05E08A0100        add eax,0x18ae0
00003F52  8B10              mov edx,[eax]
00003F54  8B45EC            mov eax,[ebp-0x14]
00003F57  C1E007            shl eax,0x7
00003F5A  89C1              mov ecx,eax
00003F5C  C1E104            shl ecx,0x4
00003F5F  01C8              add eax,ecx
00003F61  05E08A0100        add eax,0x18ae0
00003F66  8910              mov [eax],edx
00003F68  A180AA0300        mov eax,[0x3aa80]
00003F6D  C1E007            shl eax,0x7
00003F70  89C2              mov edx,eax
00003F72  C1E204            shl edx,0x4
00003F75  01D0              add eax,edx
00003F77  05E48A0100        add eax,0x18ae4
00003F7C  8B10              mov edx,[eax]
00003F7E  8B45EC            mov eax,[ebp-0x14]
00003F81  C1E007            shl eax,0x7
00003F84  89C1              mov ecx,eax
00003F86  C1E104            shl ecx,0x4
00003F89  01C8              add eax,ecx
00003F8B  05E48A0100        add eax,0x18ae4
00003F90  8910              mov [eax],edx
00003F92  C7042401000000    mov dword [esp],0x1
00003F99  E8974E0000        call dword 0x8e35
00003F9E  C7042401000000    mov dword [esp],0x1
00003FA5  E88B4E0000        call dword 0x8e35
00003FAA  C7042401000000    mov dword [esp],0x1
00003FB1  E87F4E0000        call dword 0x8e35
00003FB6  C745F400000000    mov dword [ebp-0xc],0x0
00003FBD  E9A2000000        jmp dword 0x4064
00003FC2  A180AA0300        mov eax,[0x3aa80]
00003FC7  C1E003            shl eax,0x3
00003FCA  89C2              mov edx,eax
00003FCC  C1E204            shl edx,0x4
00003FCF  01D0              add eax,edx
00003FD1  0345F4            add eax,[ebp-0xc]
00003FD4  83C007            add eax,byte +0x7
00003FD7  C1E004            shl eax,0x4
00003FDA  05888A0100        add eax,0x18a88
00003FDF  8B00              mov eax,[eax]
00003FE1  85C0              test eax,eax
00003FE3  7427              jz 0x400c
00003FE5  A180AA0300        mov eax,[0x3aa80]
00003FEA  C1E003            shl eax,0x3
00003FED  89C2              mov edx,eax
00003FEF  C1E204            shl edx,0x4
00003FF2  01D0              add eax,edx
00003FF4  0345F4            add eax,[ebp-0xc]
00003FF7  83C007            add eax,byte +0x7
00003FFA  C1E004            shl eax,0x4
00003FFD  05948A0100        add eax,0x18a94
00004002  8B00              mov eax,[eax]
00004004  890424            mov [esp],eax
00004007  E8544D0000        call dword 0x8d60
0000400C  8B0D80AA0300      mov ecx,[dword 0x3aa80]
00004012  8B45EC            mov eax,[ebp-0x14]
00004015  C1E003            shl eax,0x3
00004018  89C2              mov edx,eax
0000401A  C1E204            shl edx,0x4
0000401D  01D0              add eax,edx
0000401F  0345F4            add eax,[ebp-0xc]
00004022  83C007            add eax,byte +0x7
00004025  C1E004            shl eax,0x4
00004028  8D90808A0100      lea edx,[eax+0x18a80]
0000402E  89C8              mov eax,ecx
00004030  C1E003            shl eax,0x3
00004033  89C1              mov ecx,eax
00004035  C1E104            shl ecx,0x4
00004038  01C8              add eax,ecx
0000403A  0345F4            add eax,[ebp-0xc]
0000403D  83C007            add eax,byte +0x7
00004040  C1E004            shl eax,0x4
00004043  05808A0100        add eax,0x18a80
00004048  8B4808            mov ecx,[eax+0x8]
0000404B  894A08            mov [edx+0x8],ecx
0000404E  8B480C            mov ecx,[eax+0xc]
00004051  894A0C            mov [edx+0xc],ecx
00004054  8B4810            mov ecx,[eax+0x10]
00004057  894A10            mov [edx+0x10],ecx
0000405A  8B4014            mov eax,[eax+0x14]
0000405D  894214            mov [edx+0x14],eax
00004060  8345F401          add dword [ebp-0xc],byte +0x1
00004064  837DF41F          cmp dword [ebp-0xc],byte +0x1f
00004068  0F8E54FFFFFF      jng dword 0x3fc2
0000406E  A180AA0300        mov eax,[0x3aa80]
00004073  C1E007            shl eax,0x7
00004076  89C2              mov edx,eax
00004078  C1E204            shl edx,0x4
0000407B  01D0              add eax,edx
0000407D  0570020000        add eax,0x270
00004082  05808A0100        add eax,0x18a80
00004087  8D5008            lea edx,[eax+0x8]
0000408A  8B45EC            mov eax,[ebp-0x14]
0000408D  C1E007            shl eax,0x7
00004090  89C1              mov ecx,eax
00004092  C1E104            shl ecx,0x4
00004095  01C8              add eax,ecx
00004097  0570020000        add eax,0x270
0000409C  05808A0100        add eax,0x18a80
000040A1  83C008            add eax,byte +0x8
000040A4  C744240801040000  mov dword [esp+0x8],0x401
000040AC  89542404          mov [esp+0x4],edx
000040B0  890424            mov [esp],eax
000040B3  E82DD3FFFF        call dword 0x13e5
000040B8  A180AA0300        mov eax,[0x3aa80]
000040BD  C1E007            shl eax,0x7
000040C0  89C2              mov edx,eax
000040C2  C1E204            shl edx,0x4
000040C5  01D0              add eax,edx
000040C7  05FC900100        add eax,0x190fc
000040CC  8B10              mov edx,[eax]
000040CE  8B45EC            mov eax,[ebp-0x14]
000040D1  C1E007            shl eax,0x7
000040D4  89C1              mov ecx,eax
000040D6  C1E104            shl ecx,0x4
000040D9  01C8              add eax,ecx
000040DB  05FC900100        add eax,0x190fc
000040E0  8910              mov [eax],edx
000040E2  A180AA0300        mov eax,[0x3aa80]
000040E7  C1E007            shl eax,0x7
000040EA  89C2              mov edx,eax
000040EC  C1E204            shl edx,0x4
000040EF  01D0              add eax,edx
000040F1  0500910100        add eax,0x19100
000040F6  8B10              mov edx,[eax]
000040F8  8B45EC            mov eax,[ebp-0x14]
000040FB  C1E007            shl eax,0x7
000040FE  89C1              mov ecx,eax
00004100  C1E104            shl ecx,0x4
00004103  01C8              add eax,ecx
00004105  0500910100        add eax,0x19100
0000410A  8910              mov [eax],edx
0000410C  A180AA0300        mov eax,[0x3aa80]
00004111  C1E007            shl eax,0x7
00004114  89C2              mov edx,eax
00004116  C1E204            shl edx,0x4
00004119  01D0              add eax,edx
0000411B  0580060000        add eax,0x680
00004120  05808A0100        add eax,0x18a80
00004125  8D5004            lea edx,[eax+0x4]
00004128  8B45EC            mov eax,[ebp-0x14]
0000412B  C1E007            shl eax,0x7
0000412E  89C1              mov ecx,eax
00004130  C1E104            shl ecx,0x4
00004133  01C8              add eax,ecx
00004135  0580060000        add eax,0x680
0000413A  05808A0100        add eax,0x18a80
0000413F  83C004            add eax,byte +0x4
00004142  C7442408F0010000  mov dword [esp+0x8],0x1f0
0000414A  89542404          mov [esp+0x4],edx
0000414E  890424            mov [esp],eax
00004151  E8BAD1FFFF        call dword 0x1310
00004156  8B45EC            mov eax,[ebp-0x14]
00004159  C1E007            shl eax,0x7
0000415C  89C2              mov edx,eax
0000415E  C1E204            shl edx,0x4
00004161  01D0              add eax,edx
00004163  05C08A0100        add eax,0x18ac0
00004168  8B00              mov eax,[eax]
0000416A  890424            mov [esp],eax
0000416D  E87C200000        call dword 0x61ee
00004172  8B45EC            mov eax,[ebp-0x14]
00004175  C1E007            shl eax,0x7
00004178  89C2              mov edx,eax
0000417A  C1E204            shl edx,0x4
0000417D  01D0              add eax,edx
0000417F  8D90C08A0100      lea edx,[eax+0x18ac0]
00004185  8B45F0            mov eax,[ebp-0x10]
00004188  8902              mov [edx],eax
0000418A  8B45EC            mov eax,[ebp-0x14]
0000418D  EB14              jmp short 0x41a3
0000418F  90                nop
00004190  8B45F0            mov eax,[ebp-0x10]
00004193  890424            mov [esp],eax
00004196  E853200000        call dword 0x61ee
0000419B  EB01              jmp short 0x419e
0000419D  90                nop
0000419E  B8FFFFFFFF        mov eax,0xffffffff
000041A3  C9                leave
000041A4  C3                ret
000041A5  0000              add [eax],al
000041A7  005589            add [ebp-0x77],dl
000041AA  E583              in eax,0x83
000041AC  EC                in al,dx
000041AD  28837D081F76      sub [ebx+0x761f087d],al
000041B3  0AB8FFFFFFFF      or bh,[eax-0x1]
000041B9  E9CF010000        jmp dword 0x438d
000041BE  A180AA0300        mov eax,[0x3aa80]
000041C3  C1E007            shl eax,0x7
000041C6  89C2              mov edx,eax
000041C8  C1E204            shl edx,0x4
000041CB  01D0              add eax,edx
000041CD  83C070            add eax,byte +0x70
000041D0  05808A0100        add eax,0x18a80
000041D5  8D5008            lea edx,[eax+0x8]
000041D8  8B4508            mov eax,[ebp+0x8]
000041DB  C1E004            shl eax,0x4
000041DE  01D0              add eax,edx
000041E0  8945F4            mov [ebp-0xc],eax
000041E3  8B45F4            mov eax,[ebp-0xc]
000041E6  8B00              mov eax,[eax]
000041E8  85C0              test eax,eax
000041EA  750A              jnz 0x41f6
000041EC  B8FFFFFFFF        mov eax,0xffffffff
000041F1  E997010000        jmp dword 0x438d
000041F6  8B45F4            mov eax,[ebp-0xc]
000041F9  8B400C            mov eax,[eax+0xc]
000041FC  83E801            sub eax,byte +0x1
000041FF  69C094000000      imul eax,eax,dword 0x94
00004205  05E04C0100        add eax,0x14ce0
0000420A  8945F0            mov [ebp-0x10],eax
0000420D  8B45F0            mov eax,[ebp-0x10]
00004210  8B00              mov eax,[eax]
00004212  83F801            cmp eax,byte +0x1
00004215  7549              jnz 0x4260
00004217  8B45F0            mov eax,[ebp-0x10]
0000421A  0FB6401B          movzx eax,byte [eax+0x1b]
0000421E  0FB6C0            movzx eax,al
00004221  83E010            and eax,byte +0x10
00004224  85C0              test eax,eax
00004226  740C              jz 0x4234
00004228  8B450C            mov eax,[ebp+0xc]
0000422B  C7400400400000    mov dword [eax+0x4],0x4000
00004232  EB0A              jmp short 0x423e
00004234  8B450C            mov eax,[ebp+0xc]
00004237  C7400400800000    mov dword [eax+0x4],0x8000
0000423E  8B450C            mov eax,[ebp+0xc]
00004241  66C7000200        mov word [eax],0x2
00004246  8B450C            mov eax,[ebp+0xc]
00004249  66C7400E0000      mov word [eax+0xe],0x0
0000424F  8B45F0            mov eax,[ebp-0x10]
00004252  8B502C            mov edx,[eax+0x2c]
00004255  8B450C            mov eax,[ebp+0xc]
00004258  895010            mov [eax+0x10],edx
0000425B  E9CA000000        jmp dword 0x432a
00004260  8B45F4            mov eax,[ebp-0xc]
00004263  8B400C            mov eax,[eax+0xc]
00004266  83F802            cmp eax,byte +0x2
00004269  755B              jnz 0x42c6
0000426B  8B45F0            mov eax,[ebp-0x10]
0000426E  8B00              mov eax,[eax]
00004270  83F802            cmp eax,byte +0x2
00004273  742A              jz 0x429f
00004275  FA                cli
00004276  C7442408D2240100  mov dword [esp+0x8],0x124d2
0000427E  C744240464240100  mov dword [esp+0x4],0x12464
00004286  C704247C240100    mov dword [esp],0x1247c
0000428D  E832D5FFFF        call dword 0x17c4
00004292  C704248C240100    mov dword [esp],0x1248c
00004299  E826D5FFFF        call dword 0x17c4
0000429E  F4                hlt
0000429F  8B450C            mov eax,[ebp+0xc]
000042A2  C7400400600000    mov dword [eax+0x4],0x6000
000042A9  8B450C            mov eax,[ebp+0xc]
000042AC  66C7000000        mov word [eax],0x0
000042B1  8B450C            mov eax,[ebp+0xc]
000042B4  66C7400E0200      mov word [eax+0xe],0x2
000042BA  8B450C            mov eax,[ebp+0xc]
000042BD  C7401000E07D02    mov dword [eax+0x10],0x27de000
000042C4  EB64              jmp short 0x432a
000042C6  8B45F4            mov eax,[ebp-0xc]
000042C9  8B400C            mov eax,[eax+0xc]
000042CC  83F801            cmp eax,byte +0x1
000042CF  7559              jnz 0x432a
000042D1  8B45F0            mov eax,[ebp-0x10]
000042D4  8B00              mov eax,[eax]
000042D6  83F802            cmp eax,byte +0x2
000042D9  742A              jz 0x4305
000042DB  FA                cli
000042DC  C7442408D2240100  mov dword [esp+0x8],0x124d2
000042E4  C744240464240100  mov dword [esp+0x4],0x12464
000042EC  C704247C240100    mov dword [esp],0x1247c
000042F3  E8CCD4FFFF        call dword 0x17c4
000042F8  C70424B0240100    mov dword [esp],0x124b0
000042FF  E8C0D4FFFF        call dword 0x17c4
00004304  F4                hlt
00004305  8B450C            mov eax,[ebp+0xc]
00004308  C7400400200000    mov dword [eax+0x4],0x2000
0000430F  8B450C            mov eax,[ebp+0xc]
00004312  66C7000000        mov word [eax],0x0
00004317  8B450C            mov eax,[ebp+0xc]
0000431A  66C7400E0100      mov word [eax+0xe],0x1
00004320  8B450C            mov eax,[ebp+0xc]
00004323  C7401000000000    mov dword [eax+0x10],0x0
0000432A  8B45F4            mov eax,[ebp-0xc]
0000432D  8B400C            mov eax,[eax+0xc]
00004330  89C2              mov edx,eax
00004332  8B450C            mov eax,[ebp+0xc]
00004335  66895002          mov [eax+0x2],dx
00004339  8B450C            mov eax,[ebp+0xc]
0000433C  8B4004            mov eax,[eax+0x4]
0000433F  89C2              mov edx,eax
00004341  81CAFF010000      or edx,0x1ff
00004347  8B450C            mov eax,[ebp+0xc]
0000434A  895004            mov [eax+0x4],edx
0000434D  8B450C            mov eax,[ebp+0xc]
00004350  66C740080100      mov word [eax+0x8],0x1
00004356  8B450C            mov eax,[ebp+0xc]
00004359  66C7400A0000      mov word [eax+0xa],0x0
0000435F  8B450C            mov eax,[ebp+0xc]
00004362  66C7400C0000      mov word [eax+0xc],0x0
00004368  8B450C            mov eax,[ebp+0xc]
0000436B  C7402C00020000    mov dword [eax+0x2c],0x200
00004372  8B450C            mov eax,[ebp+0xc]
00004375  8B4010            mov eax,[eax+0x10]
00004378  05FF010000        add eax,0x1ff
0000437D  C1E809            shr eax,0x9
00004380  89C2              mov edx,eax
00004382  8B450C            mov eax,[ebp+0xc]
00004385  895030            mov [eax+0x30],edx
00004388  B800000000        mov eax,0x0
0000438D  C9                leave
0000438E  C3                ret
0000438F  005589            add [ebp-0x77],dl
00004392  E583              in eax,0x83
00004394  EC                in al,dx
00004395  28A180AA0300      sub [ecx+0x3aa80],ah
0000439B  C1E007            shl eax,0x7
0000439E  89C2              mov edx,eax
000043A0  C1E204            shl edx,0x4
000043A3  01D0              add eax,edx
000043A5  0570020000        add eax,0x270
000043AA  05808A0100        add eax,0x18a80
000043AF  83C008            add eax,byte +0x8
000043B2  8945F4            mov [ebp-0xc],eax
000043B5  837D0800          cmp dword [ebp+0x8],byte +0x0
000043B9  752A              jnz 0x43e5
000043BB  FA                cli
000043BC  C744240811250100  mov dword [esp+0x8],0x12511
000043C4  C7442404DC240100  mov dword [esp+0x4],0x124dc
000043CC  C70424F5240100    mov dword [esp],0x124f5
000043D3  E8ECD3FFFF        call dword 0x17c4
000043D8  C7042405250100    mov dword [esp],0x12505
000043DF  E8E0D3FFFF        call dword 0x17c4
000043E4  F4                hlt
000043E5  8B45F4            mov eax,[ebp-0xc]
000043E8  890424            mov [esp],eax
000043EB  E852D0FFFF        call dword 0x1442
000043F0  3B450C            cmp eax,[ebp+0xc]
000043F3  7207              jc 0x43fc
000043F5  B800000000        mov eax,0x0
000043FA  EB1C              jmp short 0x4418
000043FC  8B450C            mov eax,[ebp+0xc]
000043FF  89442408          mov [esp+0x8],eax
00004403  8B45F4            mov eax,[ebp-0xc]
00004406  89442404          mov [esp+0x4],eax
0000440A  8B4508            mov eax,[ebp+0x8]
0000440D  890424            mov [esp],eax
00004410  E8D0CFFFFF        call dword 0x13e5
00004415  8B4508            mov eax,[ebp+0x8]
00004418  C9                leave
00004419  C3                ret
0000441A  0000              add [eax],al
0000441C  55                push ebp
0000441D  89E5              mov ebp,esp
0000441F  83EC10            sub esp,byte +0x10
00004422  837D081F          cmp dword [ebp+0x8],byte +0x1f
00004426  7607              jna 0x442f
00004428  B800000000        mov eax,0x0
0000442D  EB44              jmp short 0x4473
0000442F  A180AA0300        mov eax,[0x3aa80]
00004434  C1E007            shl eax,0x7
00004437  89C2              mov edx,eax
00004439  C1E204            shl edx,0x4
0000443C  01D0              add eax,edx
0000443E  83C070            add eax,byte +0x70
00004441  05808A0100        add eax,0x18a80
00004446  8D5008            lea edx,[eax+0x8]
00004449  8B4508            mov eax,[ebp+0x8]
0000444C  C1E004            shl eax,0x4
0000444F  01D0              add eax,edx
00004451  8945FC            mov [ebp-0x4],eax
00004454  8B45FC            mov eax,[ebp-0x4]
00004457  8B00              mov eax,[eax]
00004459  85C0              test eax,eax
0000445B  7507              jnz 0x4464
0000445D  B800000000        mov eax,0x0
00004462  EB0F              jmp short 0x4473
00004464  8B45FC            mov eax,[ebp-0x4]
00004467  8B400C            mov eax,[eax+0xc]
0000446A  83F801            cmp eax,byte +0x1
0000446D  0F94C0            setz al
00004470  0FB6C0            movzx eax,al
00004473  C9                leave
00004474  C3                ret
00004475  0000              add [eax],al
00004477  005589            add [ebp-0x77],dl
0000447A  E556              in eax,0x56
0000447C  53                push ebx
0000447D  83EC20            sub esp,byte +0x20
00004480  8B450C            mov eax,[ebp+0xc]
00004483  89442408          mov [esp+0x8],eax
00004487  8B4508            mov eax,[ebp+0x8]
0000448A  89442404          mov [esp+0x4],eax
0000448E  C704241C250100    mov dword [esp],0x1251c
00004495  E82AD3FFFF        call dword 0x17c4
0000449A  C7042450C30000    mov dword [esp],0xc350
000044A1  E872D2FFFF        call dword 0x1718
000044A6  8B4508            mov eax,[ebp+0x8]
000044A9  C1E007            shl eax,0x7
000044AC  89C2              mov edx,eax
000044AE  C1E204            shl edx,0x4
000044B1  01D0              add eax,edx
000044B3  05D08A0100        add eax,0x18ad0
000044B8  8B00              mov eax,[eax]
000044BA  85C0              test eax,eax
000044BC  750A              jnz 0x44c8
000044BE  B8FFFFFFFF        mov eax,0xffffffff
000044C3  E9D5000000        jmp dword 0x459d
000044C8  837D0800          cmp dword [ebp+0x8],byte +0x0
000044CC  7513              jnz 0x44e1
000044CE  8B450C            mov eax,[ebp+0xc]
000044D1  89442404          mov [esp+0x4],eax
000044D5  C7042400000000    mov dword [esp],0x0
000044DC  E8C3000000        call dword 0x45a4
000044E1  837D0C00          cmp dword [ebp+0xc],byte +0x0
000044E5  750A              jnz 0x44f1
000044E7  B800000000        mov eax,0x0
000044EC  E9AC000000        jmp dword 0x459d
000044F1  8B4508            mov eax,[ebp+0x8]
000044F4  C1E007            shl eax,0x7
000044F7  89C2              mov edx,eax
000044F9  C1E204            shl edx,0x4
000044FC  01D0              add eax,edx
000044FE  05FC900100        add eax,0x190fc
00004503  8B10              mov edx,[eax]
00004505  8B450C            mov eax,[ebp+0xc]
00004508  83E801            sub eax,byte +0x1
0000450B  BB01000000        mov ebx,0x1
00004510  89DE              mov esi,ebx
00004512  89C1              mov ecx,eax
00004514  D3E6              shl esi,cl
00004516  89F0              mov eax,esi
00004518  09C2              or edx,eax
0000451A  8B4508            mov eax,[ebp+0x8]
0000451D  C1E007            shl eax,0x7
00004520  89C1              mov ecx,eax
00004522  C1E104            shl ecx,0x4
00004525  01C8              add eax,ecx
00004527  05FC900100        add eax,0x190fc
0000452C  8910              mov [eax],edx
0000452E  8B450C            mov eax,[ebp+0xc]
00004531  8D50FF            lea edx,[eax-0x1]
00004534  8B4508            mov eax,[ebp+0x8]
00004537  C1E003            shl eax,0x3
0000453A  89C1              mov ecx,eax
0000453C  C1E104            shl ecx,0x4
0000453F  01C8              add eax,ecx
00004541  01D0              add eax,edx
00004543  83C068            add eax,byte +0x68
00004546  C1E004            shl eax,0x4
00004549  05848A0100        add eax,0x18a84
0000454E  8B00              mov eax,[eax]
00004550  83F801            cmp eax,byte +0x1
00004553  751E              jnz 0x4573
00004555  837D0C12          cmp dword [ebp+0xc],byte +0x12
00004559  7518              jnz 0x4573
0000455B  8B4508            mov eax,[ebp+0x8]
0000455E  C1E007            shl eax,0x7
00004561  89C2              mov edx,eax
00004563  C1E204            shl edx,0x4
00004566  01D0              add eax,edx
00004568  05F4920100        add eax,0x192f4
0000456D  C70001000000      mov dword [eax],0x1
00004573  A180AA0300        mov eax,[0x3aa80]
00004578  394508            cmp [ebp+0x8],eax
0000457B  751B              jnz 0x4598
0000457D  C745F400000000    mov dword [ebp-0xc],0x0
00004584  C745F000000000    mov dword [ebp-0x10],0x0
0000458B  B829000000        mov eax,0x29
00004590  8B75F4            mov esi,[ebp-0xc]
00004593  CD80              int 0x80
00004595  8945F0            mov [ebp-0x10],eax
00004598  B800000000        mov eax,0x0
0000459D  83C420            add esp,byte +0x20
000045A0  5B                pop ebx
000045A1  5E                pop esi
000045A2  5D                pop ebp
000045A3  C3                ret
000045A4  55                push ebp
000045A5  89E5              mov ebp,esp
000045A7  56                push esi
000045A8  53                push ebx
000045A9  83EC30            sub esp,byte +0x30
000045AC  C745EC00000000    mov dword [ebp-0x14],0x0
000045B3  8B450C            mov eax,[ebp+0xc]
000045B6  89442408          mov [esp+0x8],eax
000045BA  8B4508            mov eax,[ebp+0x8]
000045BD  89442404          mov [esp+0x4],eax
000045C1  C704242E250100    mov dword [esp],0x1252e
000045C8  E8F7D1FFFF        call dword 0x17c4
000045CD  C7042450C30000    mov dword [esp],0xc350
000045D4  E83FD1FFFF        call dword 0x1718
000045D9  837D0800          cmp dword [ebp+0x8],byte +0x0
000045DD  751B              jnz 0x45fa
000045DF  A180AA0300        mov eax,[0x3aa80]
000045E4  C1E007            shl eax,0x7
000045E7  89C2              mov edx,eax
000045E9  C1E204            shl edx,0x4
000045EC  01D0              add eax,edx
000045EE  05C88A0100        add eax,0x18ac8
000045F3  8B00              mov eax,[eax]
000045F5  8945F0            mov [ebp-0x10],eax
000045F8  EB06              jmp short 0x4600
000045FA  8B4508            mov eax,[ebp+0x8]
000045FD  8945F0            mov [ebp-0x10],eax
00004600  C745F400000000    mov dword [ebp-0xc],0x0
00004607  E9A7000000        jmp dword 0x46b3
0000460C  8B45F4            mov eax,[ebp-0xc]
0000460F  C1E007            shl eax,0x7
00004612  89C2              mov edx,eax
00004614  C1E204            shl edx,0x4
00004617  01D0              add eax,edx
00004619  05C88A0100        add eax,0x18ac8
0000461E  8B00              mov eax,[eax]
00004620  3B45F0            cmp eax,[ebp-0x10]
00004623  0F8586000000      jnz dword 0x46af
00004629  8B45F4            mov eax,[ebp-0xc]
0000462C  C1E007            shl eax,0x7
0000462F  89C2              mov edx,eax
00004631  C1E204            shl edx,0x4
00004634  01D0              add eax,edx
00004636  05FC900100        add eax,0x190fc
0000463B  8B10              mov edx,[eax]
0000463D  8B450C            mov eax,[ebp+0xc]
00004640  83E801            sub eax,byte +0x1
00004643  BB01000000        mov ebx,0x1
00004648  89DE              mov esi,ebx
0000464A  89C1              mov ecx,eax
0000464C  D3E6              shl esi,cl
0000464E  89F0              mov eax,esi
00004650  09C2              or edx,eax
00004652  8B45F4            mov eax,[ebp-0xc]
00004655  C1E007            shl eax,0x7
00004658  89C1              mov ecx,eax
0000465A  C1E104            shl ecx,0x4
0000465D  01C8              add eax,ecx
0000465F  05FC900100        add eax,0x190fc
00004664  8910              mov [eax],edx
00004666  8B450C            mov eax,[ebp+0xc]
00004669  8D50FF            lea edx,[eax-0x1]
0000466C  8B45F4            mov eax,[ebp-0xc]
0000466F  C1E003            shl eax,0x3
00004672  89C1              mov ecx,eax
00004674  C1E104            shl ecx,0x4
00004677  01C8              add eax,ecx
00004679  01D0              add eax,edx
0000467B  83C068            add eax,byte +0x68
0000467E  C1E004            shl eax,0x4
00004681  05848A0100        add eax,0x18a84
00004686  8B00              mov eax,[eax]
00004688  83F801            cmp eax,byte +0x1
0000468B  751E              jnz 0x46ab
0000468D  837D0C12          cmp dword [ebp+0xc],byte +0x12
00004691  7518              jnz 0x46ab
00004693  8B45F4            mov eax,[ebp-0xc]
00004696  C1E007            shl eax,0x7
00004699  89C2              mov edx,eax
0000469B  C1E204            shl edx,0x4
0000469E  01D0              add eax,edx
000046A0  05F4920100        add eax,0x192f4
000046A5  C70001000000      mov dword [eax],0x1
000046AB  8345EC01          add dword [ebp-0x14],byte +0x1
000046AF  8345F401          add dword [ebp-0xc],byte +0x1
000046B3  837DF43F          cmp dword [ebp-0xc],byte +0x3f
000046B7  0F8E4FFFFFFF      jng dword 0x460c
000046BD  837DEC00          cmp dword [ebp-0x14],byte +0x0
000046C1  7507              jnz 0x46ca
000046C3  B8FFFFFFFF        mov eax,0xffffffff
000046C8  EB3B              jmp short 0x4705
000046CA  A180AA0300        mov eax,[0x3aa80]
000046CF  C1E007            shl eax,0x7
000046D2  89C2              mov edx,eax
000046D4  C1E204            shl edx,0x4
000046D7  01D0              add eax,edx
000046D9  05C88A0100        add eax,0x18ac8
000046DE  8B00              mov eax,[eax]
000046E0  3B45F0            cmp eax,[ebp-0x10]
000046E3  751B              jnz 0x4700
000046E5  C745E800000000    mov dword [ebp-0x18],0x0
000046EC  C745E400000000    mov dword [ebp-0x1c],0x0
000046F3  B829000000        mov eax,0x29
000046F8  8B75E8            mov esi,[ebp-0x18]
000046FB  CD80              int 0x80
000046FD  8945E4            mov [ebp-0x1c],eax
00004700  B800000000        mov eax,0x0
00004705  83C430            add esp,byte +0x30
00004708  5B                pop ebx
00004709  5E                pop esi
0000470A  5D                pop ebp
0000470B  C3                ret
0000470C  55                push ebp
0000470D  89E5              mov ebp,esp
0000470F  83EC68            sub esp,byte +0x68
00004712  8B4508            mov eax,[ebp+0x8]
00004715  890424            mov [esp],eax
00004718  E825CDFFFF        call dword 0x1442
0000471D  3D00040000        cmp eax,0x400
00004722  0F872F010000      ja dword 0x4857
00004728  8B450C            mov eax,[ebp+0xc]
0000472B  890424            mov [esp],eax
0000472E  E80FCDFFFF        call dword 0x1442
00004733  3D00040000        cmp eax,0x400
00004738  0F8719010000      ja dword 0x4857
0000473E  C744240801040000  mov dword [esp+0x8],0x401
00004746  8B4508            mov eax,[ebp+0x8]
00004749  89442404          mov [esp+0x4],eax
0000474D  C70424C0FB0300    mov dword [esp],0x3fbc0
00004754  E88CCCFFFF        call dword 0x13e5
00004759  C70424C0FB0300    mov dword [esp],0x3fbc0
00004760  E8A3480000        call dword 0x9008
00004765  85C0              test eax,eax
00004767  0F85DD000000      jnz dword 0x484a
0000476D  8D45D0            lea eax,[ebp-0x30]
00004770  89442404          mov [esp+0x4],eax
00004774  C70424C0FB0300    mov dword [esp],0x3fbc0
0000477B  E8744B0000        call dword 0x92f4
00004780  85C0              test eax,eax
00004782  0F85C5000000      jnz dword 0x484d
00004788  C744240801040000  mov dword [esp+0x8],0x401
00004790  8B450C            mov eax,[ebp+0xc]
00004793  89442404          mov [esp+0x4],eax
00004797  C70424C0FB0300    mov dword [esp],0x3fbc0
0000479E  E842CCFFFF        call dword 0x13e5
000047A3  C70424C0FB0300    mov dword [esp],0x3fbc0
000047AA  E859480000        call dword 0x9008
000047AF  85C0              test eax,eax
000047B1  0F8599000000      jnz dword 0x4850
000047B7  8D45A8            lea eax,[ebp-0x58]
000047BA  89442404          mov [esp+0x4],eax
000047BE  C70424C0FB0300    mov dword [esp],0x3fbc0
000047C5  E82A4B0000        call dword 0x92f4
000047CA  85C0              test eax,eax
000047CC  0F8481000000      jz dword 0x4853
000047D2  8D45A8            lea eax,[ebp-0x58]
000047D5  89442408          mov [esp+0x8],eax
000047D9  C744240400000000  mov dword [esp+0x4],0x0
000047E1  C70424C0FB0300    mov dword [esp],0x3fbc0
000047E8  E8974C0000        call dword 0x9484
000047ED  85C0              test eax,eax
000047EF  7565              jnz 0x4856
000047F1  8D45A8            lea eax,[ebp-0x58]
000047F4  89442404          mov [esp+0x4],eax
000047F8  8D45D0            lea eax,[ebp-0x30]
000047FB  890424            mov [esp],eax
000047FE  E830420000        call dword 0x8a33
00004803  85C0              test eax,eax
00004805  7507              jnz 0x480e
00004807  B800000000        mov eax,0x0
0000480C  EB4E              jmp short 0x485c
0000480E  90                nop
0000480F  8D45D0            lea eax,[ebp-0x30]
00004812  890424            mov [esp],eax
00004815  E854410000        call dword 0x896e
0000481A  85C0              test eax,eax
0000481C  7439              jz 0x4857
0000481E  FA                cli
0000481F  C74424087E250100  mov dword [esp+0x8],0x1257e
00004827  C744240442250100  mov dword [esp+0x4],0x12542
0000482F  C7042459250100    mov dword [esp],0x12559
00004836  E889CFFFFF        call dword 0x17c4
0000483B  C7042469250100    mov dword [esp],0x12569
00004842  E87DCFFFFF        call dword 0x17c4
00004847  F4                hlt
00004848  EB0D              jmp short 0x4857
0000484A  90                nop
0000484B  EB0A              jmp short 0x4857
0000484D  90                nop
0000484E  EB07              jmp short 0x4857
00004850  90                nop
00004851  EB04              jmp short 0x4857
00004853  90                nop
00004854  EB01              jmp short 0x4857
00004856  90                nop
00004857  B8FFFFFFFF        mov eax,0xffffffff
0000485C  C9                leave
0000485D  C3                ret
0000485E  0000              add [eax],al
00004860  55                push ebp
00004861  89E5              mov ebp,esp
00004863  83EC28            sub esp,byte +0x28
00004866  837D081F          cmp dword [ebp+0x8],byte +0x1f
0000486A  760A              jna 0x4876
0000486C  B8FFFFFFFF        mov eax,0xffffffff
00004871  E9E2000000        jmp dword 0x4958
00004876  A180AA0300        mov eax,[0x3aa80]
0000487B  C1E007            shl eax,0x7
0000487E  89C2              mov edx,eax
00004880  C1E204            shl edx,0x4
00004883  01D0              add eax,edx
00004885  83C070            add eax,byte +0x70
00004888  05808A0100        add eax,0x18a80
0000488D  8D5008            lea edx,[eax+0x8]
00004890  8B4508            mov eax,[ebp+0x8]
00004893  C1E004            shl eax,0x4
00004896  01D0              add eax,edx
00004898  8945F4            mov [ebp-0xc],eax
0000489B  8B45F4            mov eax,[ebp-0xc]
0000489E  8B00              mov eax,[eax]
000048A0  85C0              test eax,eax
000048A2  750A              jnz 0x48ae
000048A4  B8FFFFFFFF        mov eax,0xffffffff
000048A9  E9AA000000        jmp dword 0x4958
000048AE  8B45F4            mov eax,[ebp-0xc]
000048B1  8B400C            mov eax,[eax+0xc]
000048B4  83E801            sub eax,byte +0x1
000048B7  69C094000000      imul eax,eax,dword 0x94
000048BD  05E04C0100        add eax,0x14ce0
000048C2  8945F0            mov [ebp-0x10],eax
000048C5  8B45F0            mov eax,[ebp-0x10]
000048C8  8B00              mov eax,[eax]
000048CA  83F801            cmp eax,byte +0x1
000048CD  7412              jz 0x48e1
000048CF  8B45F4            mov eax,[ebp-0xc]
000048D2  8B400C            mov eax,[eax+0xc]
000048D5  83F802            cmp eax,byte +0x2
000048D8  7407              jz 0x48e1
000048DA  B8FFFFFFFF        mov eax,0xffffffff
000048DF  EB77              jmp short 0x4958
000048E1  837D1000          cmp dword [ebp+0x10],byte +0x0
000048E5  750B              jnz 0x48f2
000048E7  8B45F4            mov eax,[ebp-0xc]
000048EA  8B550C            mov edx,[ebp+0xc]
000048ED  895008            mov [eax+0x8],edx
000048F0  EB60              jmp short 0x4952
000048F2  837D1001          cmp dword [ebp+0x10],byte +0x1
000048F6  7513              jnz 0x490b
000048F8  8B45F4            mov eax,[ebp-0xc]
000048FB  8B4008            mov eax,[eax+0x8]
000048FE  89C2              mov edx,eax
00004900  03550C            add edx,[ebp+0xc]
00004903  8B45F4            mov eax,[ebp-0xc]
00004906  895008            mov [eax+0x8],edx
00004909  EB47              jmp short 0x4952
0000490B  837D1002          cmp dword [ebp+0x10],byte +0x2
0000490F  753A              jnz 0x494b
00004911  8B45F0            mov eax,[ebp-0x10]
00004914  8B00              mov eax,[eax]
00004916  83F801            cmp eax,byte +0x1
00004919  7407              jz 0x4922
0000491B  B8FFFFFFFF        mov eax,0xffffffff
00004920  EB36              jmp short 0x4958
00004922  8B45F0            mov eax,[ebp-0x10]
00004925  8B402C            mov eax,[eax+0x2c]
00004928  89442404          mov [esp+0x4],eax
0000492C  C7042487250100    mov dword [esp],0x12587
00004933  E88CCEFFFF        call dword 0x17c4
00004938  8B45F0            mov eax,[ebp-0x10]
0000493B  8B402C            mov eax,[eax+0x2c]
0000493E  89C2              mov edx,eax
00004940  03550C            add edx,[ebp+0xc]
00004943  8B45F4            mov eax,[ebp-0xc]
00004946  895008            mov [eax+0x8],edx
00004949  EB07              jmp short 0x4952
0000494B  B8FFFFFFFF        mov eax,0xffffffff
00004950  EB06              jmp short 0x4958
00004952  8B45F4            mov eax,[ebp-0xc]
00004955  8B4008            mov eax,[eax+0x8]
00004958  C9                leave
00004959  C3                ret
0000495A  0000              add [eax],al
0000495C  55                push ebp
0000495D  89E5              mov ebp,esp
0000495F  83EC48            sub esp,byte +0x48
00004962  8B4508            mov eax,[ebp+0x8]
00004965  890424            mov [esp],eax
00004968  E8D5CAFFFF        call dword 0x1442
0000496D  3D00040000        cmp eax,0x400
00004972  7607              jna 0x497b
00004974  B8FFFFFFFF        mov eax,0xffffffff
00004979  EB5D              jmp short 0x49d8
0000497B  C744240801040000  mov dword [esp+0x8],0x401
00004983  8B4508            mov eax,[ebp+0x8]
00004986  89442404          mov [esp+0x4],eax
0000498A  C70424C0FB0300    mov dword [esp],0x3fbc0
00004991  E84FCAFFFF        call dword 0x13e5
00004996  C70424C0FB0300    mov dword [esp],0x3fbc0
0000499D  E866460000        call dword 0x9008
000049A2  85C0              test eax,eax
000049A4  7407              jz 0x49ad
000049A6  B8FFFFFFFF        mov eax,0xffffffff
000049AB  EB2B              jmp short 0x49d8
000049AD  8D45D0            lea eax,[ebp-0x30]
000049B0  89442408          mov [esp+0x8],eax
000049B4  C744240401000000  mov dword [esp+0x4],0x1
000049BC  C70424C0FB0300    mov dword [esp],0x3fbc0
000049C3  E8BC4A0000        call dword 0x9484
000049C8  85C0              test eax,eax
000049CA  7407              jz 0x49d3
000049CC  B8FFFFFFFF        mov eax,0xffffffff
000049D1  EB05              jmp short 0x49d8
000049D3  B800000000        mov eax,0x0
000049D8  C9                leave
000049D9  C3                ret
000049DA  0000              add [eax],al
000049DC  55                push ebp
000049DD  89E5              mov ebp,esp
000049DF  83EC58            sub esp,byte +0x58
000049E2  C745F000000000    mov dword [ebp-0x10],0x0
000049E9  8B450C            mov eax,[ebp+0xc]
000049EC  89442408          mov [esp+0x8],eax
000049F0  8B4508            mov eax,[ebp+0x8]
000049F3  89442404          mov [esp+0x4],eax
000049F7  C7042496250100    mov dword [esp],0x12596
000049FE  E8C1CDFFFF        call dword 0x17c4
00004A03  8B4508            mov eax,[ebp+0x8]
00004A06  890424            mov [esp],eax
00004A09  E834CAFFFF        call dword 0x1442
00004A0E  3D00040000        cmp eax,0x400
00004A13  760A              jna 0x4a1f
00004A15  B8FFFFFFFF        mov eax,0xffffffff
00004A1A  E963020000        jmp dword 0x4c82
00004A1F  C744240801040000  mov dword [esp+0x8],0x401
00004A27  8B4508            mov eax,[ebp+0x8]
00004A2A  89442404          mov [esp+0x4],eax
00004A2E  C70424C0FB0300    mov dword [esp],0x3fbc0
00004A35  E8ABC9FFFF        call dword 0x13e5
00004A3A  C70424C0FB0300    mov dword [esp],0x3fbc0
00004A41  E8C2450000        call dword 0x9008
00004A46  85C0              test eax,eax
00004A48  740A              jz 0x4a54
00004A4A  B8FFFFFFFF        mov eax,0xffffffff
00004A4F  E92E020000        jmp dword 0x4c82
00004A54  C744240809000000  mov dword [esp+0x8],0x9
00004A5C  C7442404A6250100  mov dword [esp+0x4],0x125a6
00004A64  C70424C0FB0300    mov dword [esp],0x3fbc0
00004A6B  E8FDC9FFFF        call dword 0x146d
00004A70  85C0              test eax,eax
00004A72  750C              jnz 0x4a80
00004A74  C745F401000000    mov dword [ebp-0xc],0x1
00004A7B  E99F010000        jmp dword 0x4c1f
00004A80  8D45BC            lea eax,[ebp-0x44]
00004A83  89442404          mov [esp+0x4],eax
00004A87  C70424C0FB0300    mov dword [esp],0x3fbc0
00004A8E  E861480000        call dword 0x92f4
00004A93  8945EC            mov [ebp-0x14],eax
00004A96  837DEC00          cmp dword [ebp-0x14],byte +0x0
00004A9A  7416              jz 0x4ab2
00004A9C  8B450C            mov eax,[ebp+0xc]
00004A9F  2500020000        and eax,0x200
00004AA4  85C0              test eax,eax
00004AA6  750A              jnz 0x4ab2
00004AA8  B8FFFFFFFF        mov eax,0xffffffff
00004AAD  E9D0010000        jmp dword 0x4c82
00004AB2  8B450C            mov eax,[ebp+0xc]
00004AB5  2500020000        and eax,0x200
00004ABA  85C0              test eax,eax
00004ABC  7445              jz 0x4b03
00004ABE  837DEC00          cmp dword [ebp-0x14],byte +0x0
00004AC2  7429              jz 0x4aed
00004AC4  8D45BC            lea eax,[ebp-0x44]
00004AC7  89442408          mov [esp+0x8],eax
00004ACB  C744240400000000  mov dword [esp+0x4],0x0
00004AD3  C70424C0FB0300    mov dword [esp],0x3fbc0
00004ADA  E8A5490000        call dword 0x9484
00004ADF  85C0              test eax,eax
00004AE1  7420              jz 0x4b03
00004AE3  B8FFFFFFFF        mov eax,0xffffffff
00004AE8  E995010000        jmp dword 0x4c82
00004AED  8B450C            mov eax,[ebp+0xc]
00004AF0  2500080000        and eax,0x800
00004AF5  85C0              test eax,eax
00004AF7  740A              jz 0x4b03
00004AF9  B8FFFFFFFF        mov eax,0xffffffff
00004AFE  E97F010000        jmp dword 0x4c82
00004B03  8B450C            mov eax,[ebp+0xc]
00004B06  2500040000        and eax,0x400
00004B0B  85C0              test eax,eax
00004B0D  7421              jz 0x4b30
00004B0F  C744240400000000  mov dword [esp+0x4],0x0
00004B17  8D45BC            lea eax,[ebp-0x44]
00004B1A  890424            mov [esp],eax
00004B1D  E85F310000        call dword 0x7c81
00004B22  85C0              test eax,eax
00004B24  740A              jz 0x4b30
00004B26  B8FFFFFFFF        mov eax,0xffffffff
00004B2B  E952010000        jmp dword 0x4c82
00004B30  8B450C            mov eax,[ebp+0xc]
00004B33  83E008            and eax,byte +0x8
00004B36  85C0              test eax,eax
00004B38  7406              jz 0x4b40
00004B3A  8B45E0            mov eax,[ebp-0x20]
00004B3D  8945F0            mov [ebp-0x10],eax
00004B40  C745F401000000    mov dword [ebp-0xc],0x1
00004B47  EB4B              jmp short 0x4b94
00004B49  8B45F4            mov eax,[ebp-0xc]
00004B4C  83E801            sub eax,byte +0x1
00004B4F  69C094000000      imul eax,eax,dword 0x94
00004B55  05E04C0100        add eax,0x14ce0
00004B5A  8B00              mov eax,[eax]
00004B5C  83F801            cmp eax,byte +0x1
00004B5F  752F              jnz 0x4b90
00004B61  8B45F4            mov eax,[ebp-0xc]
00004B64  83E801            sub eax,byte +0x1
00004B67  69C094000000      imul eax,eax,dword 0x94
00004B6D  05E04C0100        add eax,0x14ce0
00004B72  8D5008            lea edx,[eax+0x8]
00004B75  C744240820000000  mov dword [esp+0x8],0x20
00004B7D  8D45BC            lea eax,[ebp-0x44]
00004B80  89442404          mov [esp+0x4],eax
00004B84  891424            mov [esp],edx
00004B87  E8B9C7FFFF        call dword 0x1345
00004B8C  85C0              test eax,eax
00004B8E  740C              jz 0x4b9c
00004B90  8345F401          add dword [ebp-0xc],byte +0x1
00004B94  837DF440          cmp dword [ebp-0xc],byte +0x40
00004B98  76AF              jna 0x4b49
00004B9A  EB01              jmp short 0x4b9d
00004B9C  90                nop
00004B9D  837DF440          cmp dword [ebp-0xc],byte +0x40
00004BA1  767C              jna 0x4c1f
00004BA3  E868410000        call dword 0x8d10
00004BA8  8945F4            mov [ebp-0xc],eax
00004BAB  837DF400          cmp dword [ebp-0xc],byte +0x0
00004BAF  750A              jnz 0x4bbb
00004BB1  B8FFFFFFFF        mov eax,0xffffffff
00004BB6  E9C7000000        jmp dword 0x4c82
00004BBB  8B45F4            mov eax,[ebp-0xc]
00004BBE  83E801            sub eax,byte +0x1
00004BC1  69C094000000      imul eax,eax,dword 0x94
00004BC7  05E04C0100        add eax,0x14ce0
00004BCC  C70001000000      mov dword [eax],0x1
00004BD2  8B45F4            mov eax,[ebp-0xc]
00004BD5  83E801            sub eax,byte +0x1
00004BD8  69C094000000      imul eax,eax,dword 0x94
00004BDE  05E04C0100        add eax,0x14ce0
00004BE3  8B55BC            mov edx,[ebp-0x44]
00004BE6  895008            mov [eax+0x8],edx
00004BE9  8B55C0            mov edx,[ebp-0x40]
00004BEC  89500C            mov [eax+0xc],edx
00004BEF  8B55C4            mov edx,[ebp-0x3c]
00004BF2  895010            mov [eax+0x10],edx
00004BF5  8B55C8            mov edx,[ebp-0x38]
00004BF8  895014            mov [eax+0x14],edx
00004BFB  8B55CC            mov edx,[ebp-0x34]
00004BFE  895018            mov [eax+0x18],edx
00004C01  8B55D0            mov edx,[ebp-0x30]
00004C04  89501C            mov [eax+0x1c],edx
00004C07  8B55D4            mov edx,[ebp-0x2c]
00004C0A  895020            mov [eax+0x20],edx
00004C0D  8B55D8            mov edx,[ebp-0x28]
00004C10  895024            mov [eax+0x24],edx
00004C13  8B55DC            mov edx,[ebp-0x24]
00004C16  895028            mov [eax+0x28],edx
00004C19  8B55E0            mov edx,[ebp-0x20]
00004C1C  89502C            mov [eax+0x2c],edx
00004C1F  E810430000        call dword 0x8f34
00004C24  8945E8            mov [ebp-0x18],eax
00004C27  837DE8FF          cmp dword [ebp-0x18],byte -0x1
00004C2B  7507              jnz 0x4c34
00004C2D  B8FFFFFFFF        mov eax,0xffffffff
00004C32  EB4E              jmp short 0x4c82
00004C34  A180AA0300        mov eax,[0x3aa80]
00004C39  C1E007            shl eax,0x7
00004C3C  89C2              mov edx,eax
00004C3E  C1E204            shl edx,0x4
00004C41  01D0              add eax,edx
00004C43  83C070            add eax,byte +0x70
00004C46  05808A0100        add eax,0x18a80
00004C4B  8D5008            lea edx,[eax+0x8]
00004C4E  8B45E8            mov eax,[ebp-0x18]
00004C51  C1E004            shl eax,0x4
00004C54  01D0              add eax,edx
00004C56  8945E4            mov [ebp-0x1c],eax
00004C59  8B45E4            mov eax,[ebp-0x1c]
00004C5C  8B550C            mov edx,[ebp+0xc]
00004C5F  895004            mov [eax+0x4],edx
00004C62  8B45E4            mov eax,[ebp-0x1c]
00004C65  8B55F0            mov edx,[ebp-0x10]
00004C68  895008            mov [eax+0x8],edx
00004C6B  8B45E4            mov eax,[ebp-0x1c]
00004C6E  8B55F4            mov edx,[ebp-0xc]
00004C71  89500C            mov [eax+0xc],edx
00004C74  8B45F4            mov eax,[ebp-0xc]
00004C77  890424            mov [esp],eax
00004C7A  E8E1400000        call dword 0x8d60
00004C7F  8B45E8            mov eax,[ebp-0x18]
00004C82  C9                leave
00004C83  C3                ret
00004C84  55                push ebp
00004C85  89E5              mov ebp,esp
00004C87  83EC28            sub esp,byte +0x28
00004C8A  837D081F          cmp dword [ebp+0x8],byte +0x1f
00004C8E  760A              jna 0x4c9a
00004C90  B8FFFFFFFF        mov eax,0xffffffff
00004C95  E974010000        jmp dword 0x4e0e
00004C9A  A180AA0300        mov eax,[0x3aa80]
00004C9F  C1E007            shl eax,0x7
00004CA2  89C2              mov edx,eax
00004CA4  C1E204            shl edx,0x4
00004CA7  01D0              add eax,edx
00004CA9  83C070            add eax,byte +0x70
00004CAC  05808A0100        add eax,0x18a80
00004CB1  8D5008            lea edx,[eax+0x8]
00004CB4  8B4508            mov eax,[ebp+0x8]
00004CB7  C1E004            shl eax,0x4
00004CBA  01D0              add eax,edx
00004CBC  8945F0            mov [ebp-0x10],eax
00004CBF  8B45F0            mov eax,[ebp-0x10]
00004CC2  8B00              mov eax,[eax]
00004CC4  85C0              test eax,eax
00004CC6  750A              jnz 0x4cd2
00004CC8  B8FFFFFFFF        mov eax,0xffffffff
00004CCD  E93C010000        jmp dword 0x4e0e
00004CD2  8B45F0            mov eax,[ebp-0x10]
00004CD5  8B400C            mov eax,[eax+0xc]
00004CD8  83E801            sub eax,byte +0x1
00004CDB  69C094000000      imul eax,eax,dword 0x94
00004CE1  05E04C0100        add eax,0x14ce0
00004CE6  8945EC            mov [ebp-0x14],eax
00004CE9  8B45EC            mov eax,[ebp-0x14]
00004CEC  8B4004            mov eax,[eax+0x4]
00004CEF  85C0              test eax,eax
00004CF1  7516              jnz 0x4d09
00004CF3  C70424B0250100    mov dword [esp],0x125b0
00004CFA  E8C5CAFFFF        call dword 0x17c4
00004CFF  B8FFFFFFFF        mov eax,0xffffffff
00004D04  E905010000        jmp dword 0x4e0e
00004D09  8B45EC            mov eax,[ebp-0x14]
00004D0C  8B00              mov eax,[eax]
00004D0E  83F801            cmp eax,byte +0x1
00004D11  0F85C1000000      jnz dword 0x4dd8
00004D17  8B45EC            mov eax,[ebp-0x14]
00004D1A  83C010            add eax,byte +0x10
00004D1D  8945E8            mov [ebp-0x18],eax
00004D20  8B45E8            mov eax,[ebp-0x18]
00004D23  0FB6400B          movzx eax,byte [eax+0xb]
00004D27  0FB6C0            movzx eax,al
00004D2A  83E010            and eax,byte +0x10
00004D2D  85C0              test eax,eax
00004D2F  755E              jnz 0x4d8f
00004D31  8B45F0            mov eax,[ebp-0x10]
00004D34  8B5008            mov edx,[eax+0x8]
00004D37  8B45E8            mov eax,[ebp-0x18]
00004D3A  8B401C            mov eax,[eax+0x1c]
00004D3D  39C2              cmp edx,eax
00004D3F  750A              jnz 0x4d4b
00004D41  B800000000        mov eax,0x0
00004D46  E9C3000000        jmp dword 0x4e0e
00004D4B  8B45F0            mov eax,[ebp-0x10]
00004D4E  8B5008            mov edx,[eax+0x8]
00004D51  8B45E8            mov eax,[ebp-0x18]
00004D54  8B401C            mov eax,[eax+0x1c]
00004D57  39C2              cmp edx,eax
00004D59  760A              jna 0x4d65
00004D5B  B8FFFFFFFF        mov eax,0xffffffff
00004D60  E9A9000000        jmp dword 0x4e0e
00004D65  8B45F0            mov eax,[ebp-0x10]
00004D68  8B4008            mov eax,[eax+0x8]
00004D6B  89C2              mov edx,eax
00004D6D  035510            add edx,[ebp+0x10]
00004D70  8B45E8            mov eax,[ebp-0x18]
00004D73  8B401C            mov eax,[eax+0x1c]
00004D76  39C2              cmp edx,eax
00004D78  7615              jna 0x4d8f
00004D7A  8B45E8            mov eax,[ebp-0x18]
00004D7D  8B501C            mov edx,[eax+0x1c]
00004D80  8B45F0            mov eax,[ebp-0x10]
00004D83  8B4008            mov eax,[eax+0x8]
00004D86  89D1              mov ecx,edx
00004D88  29C1              sub ecx,eax
00004D8A  89C8              mov eax,ecx
00004D8C  894510            mov [ebp+0x10],eax
00004D8F  8B45F0            mov eax,[ebp-0x10]
00004D92  8B4008            mov eax,[eax+0x8]
00004D95  8B55EC            mov edx,[ebp-0x14]
00004D98  83C208            add edx,byte +0x8
00004D9B  8944240C          mov [esp+0xc],eax
00004D9F  8B4510            mov eax,[ebp+0x10]
00004DA2  89442408          mov [esp+0x8],eax
00004DA6  8B450C            mov eax,[ebp+0xc]
00004DA9  89442404          mov [esp+0x4],eax
00004DAD  891424            mov [esp],edx
00004DB0  E8562C0000        call dword 0x7a0b
00004DB5  8945F4            mov [ebp-0xc],eax
00004DB8  837DF4FF          cmp dword [ebp-0xc],byte -0x1
00004DBC  7507              jnz 0x4dc5
00004DBE  B8FFFFFFFF        mov eax,0xffffffff
00004DC3  EB49              jmp short 0x4e0e
00004DC5  8B45F0            mov eax,[ebp-0x10]
00004DC8  8B5008            mov edx,[eax+0x8]
00004DCB  8B45F4            mov eax,[ebp-0xc]
00004DCE  01C2              add edx,eax
00004DD0  8B45F0            mov eax,[ebp-0x10]
00004DD3  895008            mov [eax+0x8],edx
00004DD6  EB33              jmp short 0x4e0b
00004DD8  8B45EC            mov eax,[ebp-0x14]
00004DDB  8B00              mov eax,[eax]
00004DDD  83F802            cmp eax,byte +0x2
00004DE0  7529              jnz 0x4e0b
00004DE2  8B45F0            mov eax,[ebp-0x10]
00004DE5  8B400C            mov eax,[eax+0xc]
00004DE8  83F801            cmp eax,byte +0x1
00004DEB  7517              jnz 0x4e04
00004DED  8B4510            mov eax,[ebp+0x10]
00004DF0  89442404          mov [esp+0x4],eax
00004DF4  8B450C            mov eax,[ebp+0xc]
00004DF7  890424            mov [esp],eax
00004DFA  E8F1480000        call dword 0x96f0
00004DFF  8945F4            mov [ebp-0xc],eax
00004E02  EB07              jmp short 0x4e0b
00004E04  B8FFFFFFFF        mov eax,0xffffffff
00004E09  EB03              jmp short 0x4e0e
00004E0B  8B45F4            mov eax,[ebp-0xc]
00004E0E  C9                leave
00004E0F  C3                ret
00004E10  55                push ebp
00004E11  89E5              mov ebp,esp
00004E13  83EC48            sub esp,byte +0x48
00004E16  8B4508            mov eax,[ebp+0x8]
00004E19  890424            mov [esp],eax
00004E1C  E821C6FFFF        call dword 0x1442
00004E21  3D00040000        cmp eax,0x400
00004E26  760A              jna 0x4e32
00004E28  B8FFFFFFFF        mov eax,0xffffffff
00004E2D  E980000000        jmp dword 0x4eb2
00004E32  C744240801040000  mov dword [esp+0x8],0x401
00004E3A  8B4508            mov eax,[ebp+0x8]
00004E3D  89442404          mov [esp+0x4],eax
00004E41  C70424C0FB0300    mov dword [esp],0x3fbc0
00004E48  E898C5FFFF        call dword 0x13e5
00004E4D  C70424C0FB0300    mov dword [esp],0x3fbc0
00004E54  E8AF410000        call dword 0x9008
00004E59  85C0              test eax,eax
00004E5B  7407              jz 0x4e64
00004E5D  B8FFFFFFFF        mov eax,0xffffffff
00004E62  EB4E              jmp short 0x4eb2
00004E64  8D45D0            lea eax,[ebp-0x30]
00004E67  89442404          mov [esp+0x4],eax
00004E6B  C70424C0FB0300    mov dword [esp],0x3fbc0
00004E72  E87D440000        call dword 0x92f4
00004E77  85C0              test eax,eax
00004E79  7407              jz 0x4e82
00004E7B  B8FFFFFFFF        mov eax,0xffffffff
00004E80  EB30              jmp short 0x4eb2
00004E82  0FB645E3          movzx eax,byte [ebp-0x1d]
00004E86  0FB6C0            movzx eax,al
00004E89  83E010            and eax,byte +0x10
00004E8C  85C0              test eax,eax
00004E8E  7507              jnz 0x4e97
00004E90  B8FFFFFFFF        mov eax,0xffffffff
00004E95  EB1B              jmp short 0x4eb2
00004E97  8D45D0            lea eax,[ebp-0x30]
00004E9A  890424            mov [esp],eax
00004E9D  E8CC3A0000        call dword 0x896e
00004EA2  85C0              test eax,eax
00004EA4  7407              jz 0x4ead
00004EA6  B8FFFFFFFF        mov eax,0xffffffff
00004EAB  EB05              jmp short 0x4eb2
00004EAD  B800000000        mov eax,0x0
00004EB2  C9                leave
00004EB3  C3                ret
00004EB4  55                push ebp
00004EB5  89E5              mov ebp,esp
00004EB7  53                push ebx
00004EB8  837D0800          cmp dword [ebp+0x8],byte +0x0
00004EBC  7412              jz 0x4ed0
00004EBE  837D0816          cmp dword [ebp+0x8],byte +0x16
00004EC2  770C              ja 0x4ed0
00004EC4  837D0809          cmp dword [ebp+0x8],byte +0x9
00004EC8  7406              jz 0x4ed0
00004ECA  837D0813          cmp dword [ebp+0x8],byte +0x13
00004ECE  750A              jnz 0x4eda
00004ED0  B8FFFFFFFF        mov eax,0xffffffff
00004ED5  E98A000000        jmp dword 0x4f64
00004EDA  837D1000          cmp dword [ebp+0x10],byte +0x0
00004EDE  743C              jz 0x4f1c
00004EE0  A180AA0300        mov eax,[0x3aa80]
00004EE5  8B5508            mov edx,[ebp+0x8]
00004EE8  8D4AFF            lea ecx,[edx-0x1]
00004EEB  8B5510            mov edx,[ebp+0x10]
00004EEE  C1E003            shl eax,0x3
00004EF1  89C3              mov ebx,eax
00004EF3  C1E304            shl ebx,0x4
00004EF6  01D8              add eax,ebx
00004EF8  01C8              add eax,ecx
00004EFA  83C068            add eax,byte +0x68
00004EFD  C1E004            shl eax,0x4
00004F00  05808A0100        add eax,0x18a80
00004F05  8B4804            mov ecx,[eax+0x4]
00004F08  890A              mov [edx],ecx
00004F0A  8B4808            mov ecx,[eax+0x8]
00004F0D  894A04            mov [edx+0x4],ecx
00004F10  8B480C            mov ecx,[eax+0xc]
00004F13  894A08            mov [edx+0x8],ecx
00004F16  8B4010            mov eax,[eax+0x10]
00004F19  89420C            mov [edx+0xc],eax
00004F1C  837D0C00          cmp dword [ebp+0xc],byte +0x0
00004F20  743D              jz 0x4f5f
00004F22  A180AA0300        mov eax,[0x3aa80]
00004F27  8B5508            mov edx,[ebp+0x8]
00004F2A  83EA01            sub edx,byte +0x1
00004F2D  C1E003            shl eax,0x3
00004F30  89C1              mov ecx,eax
00004F32  C1E104            shl ecx,0x4
00004F35  01C8              add eax,ecx
00004F37  01D0              add eax,edx
00004F39  83C068            add eax,byte +0x68
00004F3C  C1E004            shl eax,0x4
00004F3F  8D90808A0100      lea edx,[eax+0x18a80]
00004F45  8B450C            mov eax,[ebp+0xc]
00004F48  8B08              mov ecx,[eax]
00004F4A  894A04            mov [edx+0x4],ecx
00004F4D  8B4804            mov ecx,[eax+0x4]
00004F50  894A08            mov [edx+0x8],ecx
00004F53  8B4808            mov ecx,[eax+0x8]
00004F56  894A0C            mov [edx+0xc],ecx
00004F59  8B400C            mov eax,[eax+0xc]
00004F5C  894210            mov [edx+0x10],eax
00004F5F  B800000000        mov eax,0x0
00004F64  5B                pop ebx
00004F65  5D                pop ebp
00004F66  C3                ret
00004F67  005589            add [ebp-0x77],dl
00004F6A  E583              in eax,0x83
00004F6C  7D10              jnl 0x4f7e
00004F6E  00741BA1          add [ebx+ebx-0x5f],dh
00004F72  80AA0300C1E007    sub byte [edx-0x1f3efffd],0x7
00004F79  89C2              mov edx,eax
00004F7B  C1E204            shl edx,0x4
00004F7E  01D0              add eax,edx
00004F80  0500910100        add eax,0x19100
00004F85  8B10              mov edx,[eax]
00004F87  8B4510            mov eax,[ebp+0x10]
00004F8A  8910              mov [eax],edx
00004F8C  8B4508            mov eax,[ebp+0x8]
00004F8F  83F802            cmp eax,byte +0x2
00004F92  7446              jz 0x4fda
00004F94  83F803            cmp eax,byte +0x3
00004F97  747B              jz 0x5014
00004F99  83F801            cmp eax,byte +0x1
00004F9C  0F8592000000      jnz dword 0x5034
00004FA2  8B0D80AA0300      mov ecx,[dword 0x3aa80]
00004FA8  A180AA0300        mov eax,[0x3aa80]
00004FAD  C1E007            shl eax,0x7
00004FB0  89C2              mov edx,eax
00004FB2  C1E204            shl edx,0x4
00004FB5  01D0              add eax,edx
00004FB7  0500910100        add eax,0x19100
00004FBC  8B10              mov edx,[eax]
00004FBE  8B450C            mov eax,[ebp+0xc]
00004FC1  8B00              mov eax,[eax]
00004FC3  09C2              or edx,eax
00004FC5  89C8              mov eax,ecx
00004FC7  C1E007            shl eax,0x7
00004FCA  89C1              mov ecx,eax
00004FCC  C1E104            shl ecx,0x4
00004FCF  01C8              add eax,ecx
00004FD1  0500910100        add eax,0x19100
00004FD6  8910              mov [eax],edx
00004FD8  EB61              jmp short 0x503b
00004FDA  8B0D80AA0300      mov ecx,[dword 0x3aa80]
00004FE0  A180AA0300        mov eax,[0x3aa80]
00004FE5  C1E007            shl eax,0x7
00004FE8  89C2              mov edx,eax
00004FEA  C1E204            shl edx,0x4
00004FED  01D0              add eax,edx
00004FEF  0500910100        add eax,0x19100
00004FF4  8B10              mov edx,[eax]
00004FF6  8B450C            mov eax,[ebp+0xc]
00004FF9  8B00              mov eax,[eax]
00004FFB  F7D0              not eax
00004FFD  21C2              and edx,eax
00004FFF  89C8              mov eax,ecx
00005001  C1E007            shl eax,0x7
00005004  89C1              mov ecx,eax
00005006  C1E104            shl ecx,0x4
00005009  01C8              add eax,ecx
0000500B  0500910100        add eax,0x19100
00005010  8910              mov [eax],edx
00005012  EB27              jmp short 0x503b
00005014  8B0D80AA0300      mov ecx,[dword 0x3aa80]
0000501A  8B450C            mov eax,[ebp+0xc]
0000501D  8B10              mov edx,[eax]
0000501F  89C8              mov eax,ecx
00005021  C1E007            shl eax,0x7
00005024  89C1              mov ecx,eax
00005026  C1E104            shl ecx,0x4
00005029  01C8              add eax,ecx
0000502B  0500910100        add eax,0x19100
00005030  8910              mov [eax],edx
00005032  EB07              jmp short 0x503b
00005034  B8FFFFFFFF        mov eax,0xffffffff
00005039  EB05              jmp short 0x5040
0000503B  B800000000        mov eax,0x0
00005040  5D                pop ebp
00005041  C3                ret
00005042  0000              add [eax],al
00005044  55                push ebp
00005045  89E5              mov ebp,esp
00005047  B8FFFFFFFF        mov eax,0xffffffff
0000504C  5D                pop ebp
0000504D  C3                ret
0000504E  0000              add [eax],al
00005050  55                push ebp
00005051  89E5              mov ebp,esp
00005053  83EC28            sub esp,byte +0x28
00005056  8B4500            mov eax,[ebp+0x0]
00005059  8945F0            mov [ebp-0x10],eax
0000505C  8B45F0            mov eax,[ebp-0x10]
0000505F  83C03C            add eax,byte +0x3c
00005062  8B00              mov eax,[eax]
00005064  83F808            cmp eax,byte +0x8
00005067  7510              jnz 0x5079
00005069  8B45F0            mov eax,[ebp-0x10]
0000506C  83C024            add eax,byte +0x24
0000506F  8B00              mov eax,[eax]
00005071  83C00C            add eax,byte +0xc
00005074  8945F4            mov [ebp-0xc],eax
00005077  EB0B              jmp short 0x5084
00005079  8B45F0            mov eax,[ebp-0x10]
0000507C  83C044            add eax,byte +0x44
0000507F  8B00              mov eax,[eax]
00005081  8945F4            mov [ebp-0xc],eax
00005084  8B0D80AA0300      mov ecx,[dword 0x3aa80]
0000508A  8B45F4            mov eax,[ebp-0xc]
0000508D  8B500C            mov edx,[eax+0xc]
00005090  89C8              mov eax,ecx
00005092  C1E007            shl eax,0x7
00005095  89C1              mov ecx,eax
00005097  C1E104            shl ecx,0x4
0000509A  01C8              add eax,ecx
0000509C  05808A0100        add eax,0x18a80
000050A1  8910              mov [eax],edx
000050A3  8B0D80AA0300      mov ecx,[dword 0x3aa80]
000050A9  8B45F4            mov eax,[ebp-0xc]
000050AC  8B5010            mov edx,[eax+0x10]
000050AF  89C8              mov eax,ecx
000050B1  C1E007            shl eax,0x7
000050B4  89C1              mov ecx,eax
000050B6  C1E104            shl ecx,0x4
000050B9  01C8              add eax,ecx
000050BB  05848A0100        add eax,0x18a84
000050C0  8910              mov [eax],edx
000050C2  8B0D80AA0300      mov ecx,[dword 0x3aa80]
000050C8  8B45F4            mov eax,[ebp-0xc]
000050CB  8B5014            mov edx,[eax+0x14]
000050CE  89C8              mov eax,ecx
000050D0  C1E007            shl eax,0x7
000050D3  89C1              mov ecx,eax
000050D5  C1E104            shl ecx,0x4
000050D8  01C8              add eax,ecx
000050DA  05888A0100        add eax,0x18a88
000050DF  8910              mov [eax],edx
000050E1  8B0D80AA0300      mov ecx,[dword 0x3aa80]
000050E7  8B45F4            mov eax,[ebp-0xc]
000050EA  8B5018            mov edx,[eax+0x18]
000050ED  89C8              mov eax,ecx
000050EF  C1E007            shl eax,0x7
000050F2  89C1              mov ecx,eax
000050F4  C1E104            shl ecx,0x4
000050F7  01C8              add eax,ecx
000050F9  058C8A0100        add eax,0x18a8c
000050FE  8910              mov [eax],edx
00005100  8B0D80AA0300      mov ecx,[dword 0x3aa80]
00005106  8B45F4            mov eax,[ebp-0xc]
00005109  8B501C            mov edx,[eax+0x1c]
0000510C  89C8              mov eax,ecx
0000510E  C1E007            shl eax,0x7
00005111  89C1              mov ecx,eax
00005113  C1E104            shl ecx,0x4
00005116  01C8              add eax,ecx
00005118  05908A0100        add eax,0x18a90
0000511D  8910              mov [eax],edx
0000511F  8B0D80AA0300      mov ecx,[dword 0x3aa80]
00005125  8B45F4            mov eax,[ebp-0xc]
00005128  8B5020            mov edx,[eax+0x20]
0000512B  89C8              mov eax,ecx
0000512D  C1E007            shl eax,0x7
00005130  89C1              mov ecx,eax
00005132  C1E104            shl ecx,0x4
00005135  01C8              add eax,ecx
00005137  05948A0100        add eax,0x18a94
0000513C  8910              mov [eax],edx
0000513E  8B0D80AA0300      mov ecx,[dword 0x3aa80]
00005144  8B45F4            mov eax,[ebp-0xc]
00005147  8B5024            mov edx,[eax+0x24]
0000514A  89C8              mov eax,ecx
0000514C  C1E007            shl eax,0x7
0000514F  89C1              mov ecx,eax
00005151  C1E104            shl ecx,0x4
00005154  01C8              add eax,ecx
00005156  05988A0100        add eax,0x18a98
0000515B  8910              mov [eax],edx
0000515D  8B0D80AA0300      mov ecx,[dword 0x3aa80]
00005163  8B45F4            mov eax,[ebp-0xc]
00005166  8B5028            mov edx,[eax+0x28]
00005169  89C8              mov eax,ecx
0000516B  C1E007            shl eax,0x7
0000516E  89C1              mov ecx,eax
00005170  C1E104            shl ecx,0x4
00005173  01C8              add eax,ecx
00005175  059C8A0100        add eax,0x18a9c
0000517A  8910              mov [eax],edx
0000517C  8B0D80AA0300      mov ecx,[dword 0x3aa80]
00005182  8B45F4            mov eax,[ebp-0xc]
00005185  8B502C            mov edx,[eax+0x2c]
00005188  89C8              mov eax,ecx
0000518A  C1E007            shl eax,0x7
0000518D  89C1              mov ecx,eax
0000518F  C1E104            shl ecx,0x4
00005192  01C8              add eax,ecx
00005194  05A08A0100        add eax,0x18aa0
00005199  8910              mov [eax],edx
0000519B  8B0D80AA0300      mov ecx,[dword 0x3aa80]
000051A1  8B45F4            mov eax,[ebp-0xc]
000051A4  8B5030            mov edx,[eax+0x30]
000051A7  89C8              mov eax,ecx
000051A9  C1E007            shl eax,0x7
000051AC  89C1              mov ecx,eax
000051AE  C1E104            shl ecx,0x4
000051B1  01C8              add eax,ecx
000051B3  05A48A0100        add eax,0x18aa4
000051B8  8910              mov [eax],edx
000051BA  8B0D80AA0300      mov ecx,[dword 0x3aa80]
000051C0  8B45F4            mov eax,[ebp-0xc]
000051C3  8B5034            mov edx,[eax+0x34]
000051C6  89C8              mov eax,ecx
000051C8  C1E007            shl eax,0x7
000051CB  89C1              mov ecx,eax
000051CD  C1E104            shl ecx,0x4
000051D0  01C8              add eax,ecx
000051D2  05A88A0100        add eax,0x18aa8
000051D7  8910              mov [eax],edx
000051D9  8B0D80AA0300      mov ecx,[dword 0x3aa80]
000051DF  8B45F4            mov eax,[ebp-0xc]
000051E2  8B5038            mov edx,[eax+0x38]
000051E5  89C8              mov eax,ecx
000051E7  C1E007            shl eax,0x7
000051EA  89C1              mov ecx,eax
000051EC  C1E104            shl ecx,0x4
000051EF  01C8              add eax,ecx
000051F1  05AC8A0100        add eax,0x18aac
000051F6  8910              mov [eax],edx
000051F8  8B0D80AA0300      mov ecx,[dword 0x3aa80]
000051FE  8B45F4            mov eax,[ebp-0xc]
00005201  8B503C            mov edx,[eax+0x3c]
00005204  89C8              mov eax,ecx
00005206  C1E007            shl eax,0x7
00005209  89C1              mov ecx,eax
0000520B  C1E104            shl ecx,0x4
0000520E  01C8              add eax,ecx
00005210  05B08A0100        add eax,0x18ab0
00005215  8910              mov [eax],edx
00005217  8B0D80AA0300      mov ecx,[dword 0x3aa80]
0000521D  8B45F4            mov eax,[ebp-0xc]
00005220  8B5040            mov edx,[eax+0x40]
00005223  89C8              mov eax,ecx
00005225  C1E007            shl eax,0x7
00005228  89C1              mov ecx,eax
0000522A  C1E104            shl ecx,0x4
0000522D  01C8              add eax,ecx
0000522F  05B48A0100        add eax,0x18ab4
00005234  8910              mov [eax],edx
00005236  8B0D80AA0300      mov ecx,[dword 0x3aa80]
0000523C  8B45F4            mov eax,[ebp-0xc]
0000523F  8B5044            mov edx,[eax+0x44]
00005242  89C8              mov eax,ecx
00005244  C1E007            shl eax,0x7
00005247  89C1              mov ecx,eax
00005249  C1E104            shl ecx,0x4
0000524C  01C8              add eax,ecx
0000524E  05B88A0100        add eax,0x18ab8
00005253  8910              mov [eax],edx
00005255  8B0D80AA0300      mov ecx,[dword 0x3aa80]
0000525B  8B45F4            mov eax,[ebp-0xc]
0000525E  8B5048            mov edx,[eax+0x48]
00005261  89C8              mov eax,ecx
00005263  C1E007            shl eax,0x7
00005266  89C1              mov ecx,eax
00005268  C1E104            shl ecx,0x4
0000526B  01C8              add eax,ecx
0000526D  05BC8A0100        add eax,0x18abc
00005272  8910              mov [eax],edx
00005274  8B0D80AA0300      mov ecx,[dword 0x3aa80]
0000527A  8B45F4            mov eax,[ebp-0xc]
0000527D  8B504C            mov edx,[eax+0x4c]
00005280  89C8              mov eax,ecx
00005282  C1E007            shl eax,0x7
00005285  89C1              mov ecx,eax
00005287  C1E104            shl ecx,0x4
0000528A  01C8              add eax,ecx
0000528C  0500910100        add eax,0x19100
00005291  8910              mov [eax],edx
00005293  C7042400000000    mov dword [esp],0x0
0000529A  E8DDD0FFFF        call dword 0x237c
0000529F  C9                leave
000052A0  C3                ret
000052A1  0000              add [eax],al
000052A3  005589            add [ebp-0x77],dl
000052A6  E583              in eax,0x83
000052A8  EC                in al,dx
000052A9  28837D081F76      sub [ebx+0x761f087d],al
000052AF  07                pop es
000052B0  B8FFFFFFFF        mov eax,0xffffffff
000052B5  EB70              jmp short 0x5327
000052B7  A180AA0300        mov eax,[0x3aa80]
000052BC  C1E007            shl eax,0x7
000052BF  89C2              mov edx,eax
000052C1  C1E204            shl edx,0x4
000052C4  01D0              add eax,edx
000052C6  83C070            add eax,byte +0x70
000052C9  05808A0100        add eax,0x18a80
000052CE  8D5008            lea edx,[eax+0x8]
000052D1  8B4508            mov eax,[ebp+0x8]
000052D4  C1E004            shl eax,0x4
000052D7  01D0              add eax,edx
000052D9  8945F4            mov [ebp-0xc],eax
000052DC  8B45F4            mov eax,[ebp-0xc]
000052DF  8B00              mov eax,[eax]
000052E1  85C0              test eax,eax
000052E3  7507              jnz 0x52ec
000052E5  B8FFFFFFFF        mov eax,0xffffffff
000052EA  EB3B              jmp short 0x5327
000052EC  8B45F4            mov eax,[ebp-0xc]
000052EF  8B400C            mov eax,[eax+0xc]
000052F2  83F801            cmp eax,byte +0x1
000052F5  7407              jz 0x52fe
000052F7  B8FFFFFFFF        mov eax,0xffffffff
000052FC  EB29              jmp short 0x5327
000052FE  837D0C01          cmp dword [ebp+0xc],byte +0x1
00005302  7406              jz 0x530a
00005304  837D0C03          cmp dword [ebp+0xc],byte +0x3
00005308  7518              jnz 0x5322
0000530A  C70424C0EE0300    mov dword [esp],0x3eec0
00005311  E8D1390000        call dword 0x8ce7
00005316  C7042460EF0300    mov dword [esp],0x3ef60
0000531D  E8C5390000        call dword 0x8ce7
00005322  B800000000        mov eax,0x0
00005327  C9                leave
00005328  C3                ret
00005329  0000              add [eax],al
0000532B  005589            add [ebp-0x77],dl
0000532E  E583              in eax,0x83
00005330  EC                in al,dx
00005331  10837D081F76      adc [ebx+0x761f087d],al
00005337  0AB8FFFFFFFF      or bh,[eax-0x1]
0000533D  E99F000000        jmp dword 0x53e1
00005342  A180AA0300        mov eax,[0x3aa80]
00005347  C1E007            shl eax,0x7
0000534A  89C2              mov edx,eax
0000534C  C1E204            shl edx,0x4
0000534F  01D0              add eax,edx
00005351  83C070            add eax,byte +0x70
00005354  05808A0100        add eax,0x18a80
00005359  8D5008            lea edx,[eax+0x8]
0000535C  8B4508            mov eax,[ebp+0x8]
0000535F  C1E004            shl eax,0x4
00005362  01D0              add eax,edx
00005364  8945FC            mov [ebp-0x4],eax
00005367  8B45FC            mov eax,[ebp-0x4]
0000536A  8B00              mov eax,[eax]
0000536C  85C0              test eax,eax
0000536E  7507              jnz 0x5377
00005370  B8FFFFFFFF        mov eax,0xffffffff
00005375  EB6A              jmp short 0x53e1
00005377  8B45FC            mov eax,[ebp-0x4]
0000537A  8B400C            mov eax,[eax+0xc]
0000537D  83F801            cmp eax,byte +0x1
00005380  7407              jz 0x5389
00005382  B8FFFFFFFF        mov eax,0xffffffff
00005387  EB58              jmp short 0x53e1
00005389  8B450C            mov eax,[ebp+0xc]
0000538C  8B15E0710100      mov edx,[dword 0x171e0]
00005392  8910              mov [eax],edx
00005394  8B15E4710100      mov edx,[dword 0x171e4]
0000539A  895004            mov [eax+0x4],edx
0000539D  8B15E8710100      mov edx,[dword 0x171e8]
000053A3  895008            mov [eax+0x8],edx
000053A6  8B15EC710100      mov edx,[dword 0x171ec]
000053AC  89500C            mov [eax+0xc],edx
000053AF  8B15F0710100      mov edx,[dword 0x171f0]
000053B5  895010            mov [eax+0x10],edx
000053B8  8B15F4710100      mov edx,[dword 0x171f4]
000053BE  895014            mov [eax+0x14],edx
000053C1  8B15F8710100      mov edx,[dword 0x171f8]
000053C7  895018            mov [eax+0x18],edx
000053CA  8B15FC710100      mov edx,[dword 0x171fc]
000053D0  89501C            mov [eax+0x1c],edx
000053D3  8B1500720100      mov edx,[dword 0x17200]
000053D9  895020            mov [eax+0x20],edx
000053DC  B800000000        mov eax,0x0
000053E1  C9                leave
000053E2  C3                ret
000053E3  005589            add [ebp-0x77],dl
000053E6  E583              in eax,0x83
000053E8  EC                in al,dx
000053E9  28837D081F76      sub [ebx+0x761f087d],al
000053EF  07                pop es
000053F0  B8FFFFFFFF        mov eax,0xffffffff
000053F5  EB6D              jmp short 0x5464
000053F7  A180AA0300        mov eax,[0x3aa80]
000053FC  C1E007            shl eax,0x7
000053FF  89C2              mov edx,eax
00005401  C1E204            shl edx,0x4
00005404  01D0              add eax,edx
00005406  83C070            add eax,byte +0x70
00005409  05808A0100        add eax,0x18a80
0000540E  8D5008            lea edx,[eax+0x8]
00005411  8B4508            mov eax,[ebp+0x8]
00005414  C1E004            shl eax,0x4
00005417  01D0              add eax,edx
00005419  8945F4            mov [ebp-0xc],eax
0000541C  8B45F4            mov eax,[ebp-0xc]
0000541F  8B00              mov eax,[eax]
00005421  85C0              test eax,eax
00005423  7507              jnz 0x542c
00005425  B8FFFFFFFF        mov eax,0xffffffff
0000542A  EB38              jmp short 0x5464
0000542C  8B45F4            mov eax,[ebp-0xc]
0000542F  8B400C            mov eax,[eax+0xc]
00005432  83F801            cmp eax,byte +0x1
00005435  7413              jz 0x544a
00005437  C70424D0250100    mov dword [esp],0x125d0
0000543E  E881C3FFFF        call dword 0x17c4
00005443  B8FFFFFFFF        mov eax,0xffffffff
00005448  EB1A              jmp short 0x5464
0000544A  A104720100        mov eax,[0x17204]
0000544F  89442404          mov [esp+0x4],eax
00005453  C70424D9250100    mov dword [esp],0x125d9
0000545A  E865C3FFFF        call dword 0x17c4
0000545F  A104720100        mov eax,[0x17204]
00005464  C9                leave
00005465  C3                ret
00005466  0000              add [eax],al
00005468  55                push ebp
00005469  89E5              mov ebp,esp
0000546B  83EC28            sub esp,byte +0x28
0000546E  837D081F          cmp dword [ebp+0x8],byte +0x1f
00005472  760A              jna 0x547e
00005474  B8FFFFFFFF        mov eax,0xffffffff
00005479  E9BF000000        jmp dword 0x553d
0000547E  A180AA0300        mov eax,[0x3aa80]
00005483  C1E007            shl eax,0x7
00005486  89C2              mov edx,eax
00005488  C1E204            shl edx,0x4
0000548B  01D0              add eax,edx
0000548D  83C070            add eax,byte +0x70
00005490  05808A0100        add eax,0x18a80
00005495  8D5008            lea edx,[eax+0x8]
00005498  8B4508            mov eax,[ebp+0x8]
0000549B  C1E004            shl eax,0x4
0000549E  01D0              add eax,edx
000054A0  8945F4            mov [ebp-0xc],eax
000054A3  8B45F4            mov eax,[ebp-0xc]
000054A6  8B00              mov eax,[eax]
000054A8  85C0              test eax,eax
000054AA  750A              jnz 0x54b6
000054AC  B8FFFFFFFF        mov eax,0xffffffff
000054B1  E987000000        jmp dword 0x553d
000054B6  8B45F4            mov eax,[ebp-0xc]
000054B9  8B400C            mov eax,[eax+0xc]
000054BC  83F801            cmp eax,byte +0x1
000054BF  7407              jz 0x54c8
000054C1  B8FFFFFFFF        mov eax,0xffffffff
000054C6  EB75              jmp short 0x553d
000054C8  8B4510            mov eax,[ebp+0x10]
000054CB  8B10              mov edx,[eax]
000054CD  8915E0710100      mov [dword 0x171e0],edx
000054D3  8B5004            mov edx,[eax+0x4]
000054D6  8915E4710100      mov [dword 0x171e4],edx
000054DC  8B5008            mov edx,[eax+0x8]
000054DF  8915E8710100      mov [dword 0x171e8],edx
000054E5  8B500C            mov edx,[eax+0xc]
000054E8  8915EC710100      mov [dword 0x171ec],edx
000054EE  8B5010            mov edx,[eax+0x10]
000054F1  8915F0710100      mov [dword 0x171f0],edx
000054F7  8B5014            mov edx,[eax+0x14]
000054FA  8915F4710100      mov [dword 0x171f4],edx
00005500  8B5018            mov edx,[eax+0x18]
00005503  8915F8710100      mov [dword 0x171f8],edx
00005509  8B501C            mov edx,[eax+0x1c]
0000550C  8915FC710100      mov [dword 0x171fc],edx
00005512  8B4020            mov eax,[eax+0x20]
00005515  A300720100        mov [0x17200],eax
0000551A  837D0C03          cmp dword [ebp+0xc],byte +0x3
0000551E  7518              jnz 0x5538
00005520  C70424C0EE0300    mov dword [esp],0x3eec0
00005527  E8BB370000        call dword 0x8ce7
0000552C  C7042460EF0300    mov dword [esp],0x3ef60
00005533  E8AF370000        call dword 0x8ce7
00005538  B800000000        mov eax,0x0
0000553D  C9                leave
0000553E  C3                ret
0000553F  005589            add [ebp-0x77],dl
00005542  E583              in eax,0x83
00005544  EC                in al,dx
00005545  10837D081F76      adc [ebx+0x761f087d],al
0000554B  07                pop es
0000554C  B8FFFFFFFF        mov eax,0xffffffff
00005551  EB54              jmp short 0x55a7
00005553  A180AA0300        mov eax,[0x3aa80]
00005558  C1E007            shl eax,0x7
0000555B  89C2              mov edx,eax
0000555D  C1E204            shl edx,0x4
00005560  01D0              add eax,edx
00005562  83C070            add eax,byte +0x70
00005565  05808A0100        add eax,0x18a80
0000556A  8D5008            lea edx,[eax+0x8]
0000556D  8B4508            mov eax,[ebp+0x8]
00005570  C1E004            shl eax,0x4
00005573  01D0              add eax,edx
00005575  8945FC            mov [ebp-0x4],eax
00005578  8B45FC            mov eax,[ebp-0x4]
0000557B  8B00              mov eax,[eax]
0000557D  85C0              test eax,eax
0000557F  7507              jnz 0x5588
00005581  B8FFFFFFFF        mov eax,0xffffffff
00005586  EB1F              jmp short 0x55a7
00005588  8B45FC            mov eax,[ebp-0x4]
0000558B  8B400C            mov eax,[eax+0xc]
0000558E  83F801            cmp eax,byte +0x1
00005591  7407              jz 0x559a
00005593  B8FFFFFFFF        mov eax,0xffffffff
00005598  EB0D              jmp short 0x55a7
0000559A  8B450C            mov eax,[ebp+0xc]
0000559D  A304720100        mov [0x17204],eax
000055A2  B800000000        mov eax,0x0
000055A7  C9                leave
000055A8  C3                ret
000055A9  0000              add [eax],al
000055AB  005589            add [ebp-0x77],dl
000055AE  E583              in eax,0x83
000055B0  EC                in al,dx
000055B1  48                dec eax
000055B2  C70424C0FB0300    mov dword [esp],0x3fbc0
000055B9  E884BEFFFF        call dword 0x1442
000055BE  3D00040000        cmp eax,0x400
000055C3  7607              jna 0x55cc
000055C5  B8FFFFFFFF        mov eax,0xffffffff
000055CA  EB54              jmp short 0x5620
000055CC  C744240801040000  mov dword [esp+0x8],0x401
000055D4  8B4508            mov eax,[ebp+0x8]
000055D7  89442404          mov [esp+0x4],eax
000055DB  C70424C0FB0300    mov dword [esp],0x3fbc0
000055E2  E8FEBDFFFF        call dword 0x13e5
000055E7  8D45D0            lea eax,[ebp-0x30]
000055EA  89442404          mov [esp+0x4],eax
000055EE  C70424C0FB0300    mov dword [esp],0x3fbc0
000055F5  E8FA3C0000        call dword 0x92f4
000055FA  85C0              test eax,eax
000055FC  7407              jz 0x5605
000055FE  B8FFFFFFFF        mov eax,0xffffffff
00005603  EB1B              jmp short 0x5620
00005605  8D45D0            lea eax,[ebp-0x30]
00005608  890424            mov [esp],eax
0000560B  E89B340000        call dword 0x8aab
00005610  85C0              test eax,eax
00005612  7407              jz 0x561b
00005614  B8FFFFFFFF        mov eax,0xffffffff
00005619  EB05              jmp short 0x5620
0000561B  B800000000        mov eax,0x0
00005620  C9                leave
00005621  C3                ret
00005622  0000              add [eax],al
00005624  55                push ebp
00005625  89E5              mov ebp,esp
00005627  83EC10            sub esp,byte +0x10
0000562A  A180AA0300        mov eax,[0x3aa80]
0000562F  C1E007            shl eax,0x7
00005632  89C2              mov edx,eax
00005634  C1E204            shl edx,0x4
00005637  01D0              add eax,edx
00005639  05808A0100        add eax,0x18a80
0000563E  8945FC            mov [ebp-0x4],eax
00005641  FA                cli
00005642  8B45FC            mov eax,[ebp-0x4]
00005645  8B8078080000      mov eax,[eax+0x878]
0000564B  85C0              test eax,eax
0000564D  7503              jnz 0x5652
0000564F  FB                sti
00005650  EBEF              jmp short 0x5641
00005652  90                nop
00005653  8B45FC            mov eax,[ebp-0x4]
00005656  8B907C080000      mov edx,[eax+0x87c]
0000565C  8B4508            mov eax,[ebp+0x8]
0000565F  8910              mov [eax],edx
00005661  8B45FC            mov eax,[ebp-0x4]
00005664  8B8078080000      mov eax,[eax+0x878]
0000566A  8945F8            mov [ebp-0x8],eax
0000566D  8B45FC            mov eax,[ebp-0x4]
00005670  C7807C0800000000  mov dword [eax+0x87c],0x0
         -0000
0000567A  8B45FC            mov eax,[ebp-0x4]
0000567D  C780780800000000  mov dword [eax+0x878],0x0
         -0000
00005687  8B45F8            mov eax,[ebp-0x8]
0000568A  C9                leave
0000568B  C3                ret
0000568C  55                push ebp
0000568D  89E5              mov ebp,esp
0000568F  83EC28            sub esp,byte +0x28
00005692  A180AA0300        mov eax,[0x3aa80]
00005697  C1E007            shl eax,0x7
0000569A  89C2              mov edx,eax
0000569C  C1E204            shl edx,0x4
0000569F  01D0              add eax,edx
000056A1  05808A0100        add eax,0x18a80
000056A6  8945F4            mov [ebp-0xc],eax
000056A9  8B450C            mov eax,[ebp+0xc]
000056AC  83E001            and eax,byte +0x1
000056AF  84C0              test al,al
000056B1  7414              jz 0x56c7
000056B3  8B45F4            mov eax,[ebp-0xc]
000056B6  8B8078080000      mov eax,[eax+0x878]
000056BC  85C0              test eax,eax
000056BE  7507              jnz 0x56c7
000056C0  B8FFFFFFFF        mov eax,0xffffffff
000056C5  EB63              jmp short 0x572a
000056C7  FA                cli
000056C8  C70424E3250100    mov dword [esp],0x125e3
000056CF  E8F0C0FFFF        call dword 0x17c4
000056D4  8B45F4            mov eax,[ebp-0xc]
000056D7  8B8078080000      mov eax,[eax+0x878]
000056DD  85C0              test eax,eax
000056DF  7446              jz 0x5727
000056E1  C70424FB250100    mov dword [esp],0x125fb
000056E8  E8D7C0FFFF        call dword 0x17c4
000056ED  90                nop
000056EE  8B45F4            mov eax,[ebp-0xc]
000056F1  8B907C080000      mov edx,[eax+0x87c]
000056F7  8B4508            mov eax,[ebp+0x8]
000056FA  8910              mov [eax],edx
000056FC  8B45F4            mov eax,[ebp-0xc]
000056FF  8B8078080000      mov eax,[eax+0x878]
00005705  8945F0            mov [ebp-0x10],eax
00005708  8B45F4            mov eax,[ebp-0xc]
0000570B  C7807C0800000000  mov dword [eax+0x87c],0x0
         -0000
00005715  8B45F4            mov eax,[ebp-0xc]
00005718  C780780800000000  mov dword [eax+0x878],0x0
         -0000
00005722  8B45F0            mov eax,[ebp-0x10]
00005725  EB03              jmp short 0x572a
00005727  FB                sti
00005728  EB9D              jmp short 0x56c7
0000572A  C9                leave
0000572B  C3                ret
0000572C  55                push ebp
0000572D  89E5              mov ebp,esp
0000572F  83EC38            sub esp,byte +0x38
00005732  837D081F          cmp dword [ebp+0x8],byte +0x1f
00005736  760A              jna 0x5742
00005738  B8FFFFFFFF        mov eax,0xffffffff
0000573D  E9ED010000        jmp dword 0x592f
00005742  A180AA0300        mov eax,[0x3aa80]
00005747  C1E007            shl eax,0x7
0000574A  89C2              mov edx,eax
0000574C  C1E204            shl edx,0x4
0000574F  01D0              add eax,edx
00005751  83C070            add eax,byte +0x70
00005754  05808A0100        add eax,0x18a80
00005759  8D5008            lea edx,[eax+0x8]
0000575C  8B4508            mov eax,[ebp+0x8]
0000575F  C1E004            shl eax,0x4
00005762  01D0              add eax,edx
00005764  8945F0            mov [ebp-0x10],eax
00005767  8B45F0            mov eax,[ebp-0x10]
0000576A  8B00              mov eax,[eax]
0000576C  85C0              test eax,eax
0000576E  750A              jnz 0x577a
00005770  B8FFFFFFFF        mov eax,0xffffffff
00005775  E9B5010000        jmp dword 0x592f
0000577A  8B45F0            mov eax,[ebp-0x10]
0000577D  8B4004            mov eax,[eax+0x4]
00005780  83E001            and eax,byte +0x1
00005783  85C0              test eax,eax
00005785  7517              jnz 0x579e
00005787  8B45F0            mov eax,[ebp-0x10]
0000578A  8B4004            mov eax,[eax+0x4]
0000578D  83E002            and eax,byte +0x2
00005790  85C0              test eax,eax
00005792  750A              jnz 0x579e
00005794  B8FFFFFFFF        mov eax,0xffffffff
00005799  E991010000        jmp dword 0x592f
0000579E  8B45F0            mov eax,[ebp-0x10]
000057A1  8B400C            mov eax,[eax+0xc]
000057A4  83E801            sub eax,byte +0x1
000057A7  69C094000000      imul eax,eax,dword 0x94
000057AD  05E04C0100        add eax,0x14ce0
000057B2  8945EC            mov [ebp-0x14],eax
000057B5  8B45EC            mov eax,[ebp-0x14]
000057B8  8B4004            mov eax,[eax+0x4]
000057BB  85C0              test eax,eax
000057BD  7516              jnz 0x57d5
000057BF  C7042410260100    mov dword [esp],0x12610
000057C6  E8F9BFFFFF        call dword 0x17c4
000057CB  B8FFFFFFFF        mov eax,0xffffffff
000057D0  E95A010000        jmp dword 0x592f
000057D5  8B45EC            mov eax,[ebp-0x14]
000057D8  8B00              mov eax,[eax]
000057DA  83F801            cmp eax,byte +0x1
000057DD  0F85D8000000      jnz dword 0x58bb
000057E3  8B45EC            mov eax,[ebp-0x14]
000057E6  83C010            add eax,byte +0x10
000057E9  8945E8            mov [ebp-0x18],eax
000057EC  8B45E8            mov eax,[ebp-0x18]
000057EF  0FB6400B          movzx eax,byte [eax+0xb]
000057F3  0FB6C0            movzx eax,al
000057F6  83E010            and eax,byte +0x10
000057F9  85C0              test eax,eax
000057FB  740A              jz 0x5807
000057FD  B8FFFFFFFF        mov eax,0xffffffff
00005802  E928010000        jmp dword 0x592f
00005807  8B45F0            mov eax,[ebp-0x10]
0000580A  8B4008            mov eax,[eax+0x8]
0000580D  89C2              mov edx,eax
0000580F  035510            add edx,[ebp+0x10]
00005812  8B45E8            mov eax,[ebp-0x18]
00005815  8B401C            mov eax,[eax+0x1c]
00005818  39C2              cmp edx,eax
0000581A  7650              jna 0x586c
0000581C  8B45F0            mov eax,[ebp-0x10]
0000581F  8B4008            mov eax,[eax+0x8]
00005822  89C2              mov edx,eax
00005824  035510            add edx,[ebp+0x10]
00005827  8B45E8            mov eax,[ebp-0x18]
0000582A  8B401C            mov eax,[eax+0x1c]
0000582D  89D1              mov ecx,edx
0000582F  29C1              sub ecx,eax
00005831  89C8              mov eax,ecx
00005833  8945E4            mov [ebp-0x1c],eax
00005836  8B45E4            mov eax,[ebp-0x1c]
00005839  89442404          mov [esp+0x4],eax
0000583D  C7042431260100    mov dword [esp],0x12631
00005844  E87BBFFFFF        call dword 0x17c4
00005849  8B45EC            mov eax,[ebp-0x14]
0000584C  8D5008            lea edx,[eax+0x8]
0000584F  8B45E4            mov eax,[ebp-0x1c]
00005852  89442404          mov [esp+0x4],eax
00005856  891424            mov [esp],edx
00005859  E849220000        call dword 0x7aa7
0000585E  85C0              test eax,eax
00005860  740A              jz 0x586c
00005862  B8FFFFFFFF        mov eax,0xffffffff
00005867  E9C3000000        jmp dword 0x592f
0000586C  8B45F0            mov eax,[ebp-0x10]
0000586F  8B4008            mov eax,[eax+0x8]
00005872  8B55EC            mov edx,[ebp-0x14]
00005875  83C208            add edx,byte +0x8
00005878  8944240C          mov [esp+0xc],eax
0000587C  8B4510            mov eax,[ebp+0x10]
0000587F  89442408          mov [esp+0x8],eax
00005883  8B450C            mov eax,[ebp+0xc]
00005886  89442404          mov [esp+0x4],eax
0000588A  891424            mov [esp],edx
0000588D  E8C7210000        call dword 0x7a59
00005892  8945E0            mov [ebp-0x20],eax
00005895  837DE0FF          cmp dword [ebp-0x20],byte -0x1
00005899  750A              jnz 0x58a5
0000589B  B8FFFFFFFF        mov eax,0xffffffff
000058A0  E98A000000        jmp dword 0x592f
000058A5  8B45F0            mov eax,[ebp-0x10]
000058A8  8B5008            mov edx,[eax+0x8]
000058AB  8B45E0            mov eax,[ebp-0x20]
000058AE  01C2              add edx,eax
000058B0  8B45F0            mov eax,[ebp-0x10]
000058B3  895008            mov [eax+0x8],edx
000058B6  8B45E0            mov eax,[ebp-0x20]
000058B9  EB74              jmp short 0x592f
000058BB  8B45F0            mov eax,[ebp-0x10]
000058BE  8B400C            mov eax,[eax+0xc]
000058C1  83F801            cmp eax,byte +0x1
000058C4  7564              jnz 0x592a
000058C6  8B45EC            mov eax,[ebp-0x14]
000058C9  8B00              mov eax,[eax]
000058CB  83F802            cmp eax,byte +0x2
000058CE  742A              jz 0x58fa
000058D0  FA                cli
000058D1  C74424089A260100  mov dword [esp+0x8],0x1269a
000058D9  C74424044D260100  mov dword [esp+0x4],0x1264d
000058E1  C7042465260100    mov dword [esp],0x12665
000058E8  E8D7BEFFFF        call dword 0x17c4
000058ED  C7042478260100    mov dword [esp],0x12678
000058F4  E8CBBEFFFF        call dword 0x17c4
000058F9  F4                hlt
000058FA  C745F400000000    mov dword [ebp-0xc],0x0
00005901  EB1A              jmp short 0x591d
00005903  8B45F4            mov eax,[ebp-0xc]
00005906  8B550C            mov edx,[ebp+0xc]
00005909  01D0              add eax,edx
0000590B  0FB600            movzx eax,byte [eax]
0000590E  0FBEC0            movsx eax,al
00005911  890424            mov [esp],eax
00005914  E82CCCFFFF        call dword 0x2545
00005919  8345F401          add dword [ebp-0xc],byte +0x1
0000591D  8B45F4            mov eax,[ebp-0xc]
00005920  3B4510            cmp eax,[ebp+0x10]
00005923  72DE              jc 0x5903
00005925  8B4510            mov eax,[ebp+0x10]
00005928  EB05              jmp short 0x592f
0000592A  B8FFFFFFFF        mov eax,0xffffffff
0000592F  C9                leave
00005930  C3                ret
00005931  0000              add [eax],al
00005933  005589            add [ebp-0x77],dl
00005936  E583              in eax,0x83
00005938  EC                in al,dx
00005939  38C7              cmp bh,al
0000593B  45                inc ebp
0000593C  F00000            lock add [eax],al
0000593F  0000              add [eax],al
00005941  EB17              jmp short 0x595a
00005943  A1B44C0100        mov eax,[0x14cb4]
00005948  8B55F0            mov edx,[ebp-0x10]
0000594B  C1E202            shl edx,0x2
0000594E  01D0              add eax,edx
00005950  C70000000000      mov dword [eax],0x0
00005956  8345F001          add dword [ebp-0x10],byte +0x1
0000595A  817DF0FF030000    cmp dword [ebp-0x10],0x3ff
00005961  76E0              jna 0x5943
00005963  C745F400000000    mov dword [ebp-0xc],0x0
0000596A  EB17              jmp short 0x5983
0000596C  8B45F4            mov eax,[ebp-0xc]
0000596F  89442404          mov [esp+0x4],eax
00005973  C70424A0AA0300    mov dword [esp],0x3aaa0
0000597A  E847020000        call dword 0x5bc6
0000597F  8345F401          add dword [ebp-0xc],byte +0x1
00005983  817DF4FF010000    cmp dword [ebp-0xc],0x1ff
0000598A  76E0              jna 0x596c
0000598C  C745F000000000    mov dword [ebp-0x10],0x0
00005993  EB4C              jmp short 0x59e1
00005995  8B45F0            mov eax,[ebp-0x10]
00005998  C1E00C            shl eax,0xc
0000599B  0500001000        add eax,0x100000
000059A0  8945EC            mov [ebp-0x14],eax
000059A3  C745F400000000    mov dword [ebp-0xc],0x0
000059AA  EB13              jmp short 0x59bf
000059AC  8B45F4            mov eax,[ebp-0xc]
000059AF  C1E002            shl eax,0x2
000059B2  0345EC            add eax,[ebp-0x14]
000059B5  C70000000000      mov dword [eax],0x0
000059BB  8345F401          add dword [ebp-0xc],byte +0x1
000059BF  817DF4FF030000    cmp dword [ebp-0xc],0x3ff
000059C6  76E4              jna 0x59ac
000059C8  A1B44C0100        mov eax,[0x14cb4]
000059CD  8B55F0            mov edx,[ebp-0x10]
000059D0  C1E202            shl edx,0x2
000059D3  01D0              add eax,edx
000059D5  8B55EC            mov edx,[ebp-0x14]
000059D8  83CA03            or edx,byte +0x3
000059DB  8910              mov [eax],edx
000059DD  8345F001          add dword [ebp-0x10],byte +0x1
000059E1  817DF0FF000000    cmp dword [ebp-0x10],0xff
000059E8  76AB              jna 0x5995
000059EA  C745E800001000    mov dword [ebp-0x18],0x100000
000059F1  C745F400000000    mov dword [ebp-0xc],0x0
000059F8  EB18              jmp short 0x5a12
000059FA  8B45F4            mov eax,[ebp-0xc]
000059FD  C1E002            shl eax,0x2
00005A00  0345E8            add eax,[ebp-0x18]
00005A03  8B55F4            mov edx,[ebp-0xc]
00005A06  C1E20C            shl edx,0xc
00005A09  83CA03            or edx,byte +0x3
00005A0C  8910              mov [eax],edx
00005A0E  8345F401          add dword [ebp-0xc],byte +0x1
00005A12  817DF4FF000000    cmp dword [ebp-0xc],0xff
00005A19  76DF              jna 0x59fa
00005A1B  A1B44C0100        mov eax,[0x14cb4]
00005A20  8B15B44C0100      mov edx,[dword 0x14cb4]
00005A26  8B12              mov edx,[edx]
00005A28  83CA04            or edx,byte +0x4
00005A2B  8910              mov [eax],edx
00005A2D  C745F4A0000000    mov dword [ebp-0xc],0xa0
00005A34  EB1D              jmp short 0x5a53
00005A36  8B45F4            mov eax,[ebp-0xc]
00005A39  C1E002            shl eax,0x2
00005A3C  0345E8            add eax,[ebp-0x18]
00005A3F  8B55F4            mov edx,[ebp-0xc]
00005A42  C1E202            shl edx,0x2
00005A45  0355E8            add edx,[ebp-0x18]
00005A48  8B12              mov edx,[edx]
00005A4A  83CA04            or edx,byte +0x4
00005A4D  8910              mov [eax],edx
00005A4F  8345F401          add dword [ebp-0xc],byte +0x1
00005A53  817DF4B8000000    cmp dword [ebp-0xc],0xb8
00005A5A  76DA              jna 0x5a36
00005A5C  A1B44C0100        mov eax,[0x14cb4]
00005A61  05FC0F0000        add eax,0xffc
00005A66  C70003100000      mov dword [eax],0x1003
00005A6C  C745E402000000    mov dword [ebp-0x1c],0x2
00005A73  C745F400020000    mov dword [ebp-0xc],0x200
00005A7A  EB2B              jmp short 0x5aa7
00005A7C  8B45F4            mov eax,[ebp-0xc]
00005A7F  89442404          mov [esp+0x4],eax
00005A83  C70424A0AA0300    mov dword [esp],0x3aaa0
00005A8A  E837010000        call dword 0x5bc6
00005A8F  8B45F4            mov eax,[ebp-0xc]
00005A92  C1E002            shl eax,0x2
00005A95  0345E8            add eax,[ebp-0x18]
00005A98  8B55F4            mov edx,[ebp-0xc]
00005A9B  C1E20C            shl edx,0xc
00005A9E  83CA03            or edx,byte +0x3
00005AA1  8910              mov [eax],edx
00005AA3  8345F401          add dword [ebp-0xc],byte +0x1
00005AA7  8B45E4            mov eax,[ebp-0x1c]
00005AAA  0500020000        add eax,0x200
00005AAF  3B45F4            cmp eax,[ebp-0xc]
00005AB2  77C8              ja 0x5a7c
00005AB4  C745F400000000    mov dword [ebp-0xc],0x0
00005ABB  EB0F              jmp short 0x5acc
00005ABD  A1B04C0100        mov eax,[0x14cb0]
00005AC2  0345F4            add eax,[ebp-0xc]
00005AC5  C60000            mov byte [eax],0x0
00005AC8  8345F401          add dword [ebp-0xc],byte +0x1
00005ACC  817DF4FF1F0000    cmp dword [ebp-0xc],0x1fff
00005AD3  76E8              jna 0x5abd
00005AD5  C745F400000000    mov dword [ebp-0xc],0x0
00005ADC  EB0F              jmp short 0x5aed
00005ADE  A1B04C0100        mov eax,[0x14cb0]
00005AE3  0345F4            add eax,[ebp-0xc]
00005AE6  C60001            mov byte [eax],0x1
00005AE9  8345F401          add dword [ebp-0xc],byte +0x1
00005AED  8B45E4            mov eax,[ebp-0x1c]
00005AF0  0500020000        add eax,0x200
00005AF5  3B45F4            cmp eax,[ebp-0xc]
00005AF8  77E4              ja 0x5ade
00005AFA  A1AC4C0100        mov eax,[0x14cac]
00005AFF  2B45E4            sub eax,[ebp-0x1c]
00005B02  2D00020000        sub eax,0x200
00005B07  A3AC4C0100        mov [0x14cac],eax
00005B0C  C744240400000000  mov dword [esp+0x4],0x0
00005B14  C70424A0AE0300    mov dword [esp],0x3aea0
00005B1B  E8A6000000        call dword 0x5bc6
00005B20  B800100000        mov eax,0x1000
00005B25  0F22D8            mov cr3,eax
00005B28  0F20C0            mov eax,cr0
00005B2B  0D00000080        or eax,0x80000000
00005B30  0D00000100        or eax,0x10000
00005B35  0F22C0            mov cr0,eax
00005B38  C9                leave
00005B39  C3                ret
00005B3A  55                push ebp
00005B3B  89E5              mov ebp,esp
00005B3D  53                push ebx
00005B3E  83EC24            sub esp,byte +0x24
00005B41  C745F400000000    mov dword [ebp-0xc],0x0
00005B48  EB69              jmp short 0x5bb3
00005B4A  8B45F4            mov eax,[ebp-0xc]
00005B4D  8B5508            mov edx,[ebp+0x8]
00005B50  01D0              add eax,edx
00005B52  0FB600            movzx eax,byte [eax]
00005B55  3CFF              cmp al,0xff
00005B57  7456              jz 0x5baf
00005B59  C745F000000000    mov dword [ebp-0x10],0x0
00005B60  EB47              jmp short 0x5ba9
00005B62  8B45F4            mov eax,[ebp-0xc]
00005B65  8B5508            mov edx,[ebp+0x8]
00005B68  01D0              add eax,edx
00005B6A  0FB600            movzx eax,byte [eax]
00005B6D  0FB6D0            movzx edx,al
00005B70  8B45F0            mov eax,[ebp-0x10]
00005B73  89D3              mov ebx,edx
00005B75  89C1              mov ecx,eax
00005B77  D3FB              sar ebx,cl
00005B79  89D8              mov eax,ebx
00005B7B  83E001            and eax,byte +0x1
00005B7E  85C0              test eax,eax
00005B80  7523              jnz 0x5ba5
00005B82  8B45F4            mov eax,[ebp-0xc]
00005B85  C1E003            shl eax,0x3
00005B88  0345F0            add eax,[ebp-0x10]
00005B8B  8945EC            mov [ebp-0x14],eax
00005B8E  8B45EC            mov eax,[ebp-0x14]
00005B91  89442404          mov [esp+0x4],eax
00005B95  8B4508            mov eax,[ebp+0x8]
00005B98  890424            mov [esp],eax
00005B9B  E826000000        call dword 0x5bc6
00005BA0  8B45EC            mov eax,[ebp-0x14]
00005BA3  EB1B              jmp short 0x5bc0
00005BA5  8345F001          add dword [ebp-0x10],byte +0x1
00005BA9  837DF007          cmp dword [ebp-0x10],byte +0x7
00005BAD  76B3              jna 0x5b62
00005BAF  8345F401          add dword [ebp-0xc],byte +0x1
00005BB3  8B45F4            mov eax,[ebp-0xc]
00005BB6  3B450C            cmp eax,[ebp+0xc]
00005BB9  728F              jc 0x5b4a
00005BBB  B800000000        mov eax,0x0
00005BC0  83C424            add esp,byte +0x24
00005BC3  5B                pop ebx
00005BC4  5D                pop ebp
00005BC5  C3                ret
00005BC6  55                push ebp
00005BC7  89E5              mov ebp,esp
00005BC9  57                push edi
00005BCA  56                push esi
00005BCB  53                push ebx
00005BCC  8B450C            mov eax,[ebp+0xc]
00005BCF  C1E803            shr eax,0x3
00005BD2  89C2              mov edx,eax
00005BD4  035508            add edx,[ebp+0x8]
00005BD7  034508            add eax,[ebp+0x8]
00005BDA  0FB600            movzx eax,byte [eax]
00005BDD  89C3              mov ebx,eax
00005BDF  8B450C            mov eax,[ebp+0xc]
00005BE2  83E007            and eax,byte +0x7
00005BE5  BE01000000        mov esi,0x1
00005BEA  89F7              mov edi,esi
00005BEC  89C1              mov ecx,eax
00005BEE  D3E7              shl edi,cl
00005BF0  89F8              mov eax,edi
00005BF2  09D8              or eax,ebx
00005BF4  8802              mov [edx],al
00005BF6  5B                pop ebx
00005BF7  5E                pop esi
00005BF8  5F                pop edi
00005BF9  5D                pop ebp
00005BFA  C3                ret
00005BFB  55                push ebp
00005BFC  89E5              mov ebp,esp
00005BFE  56                push esi
00005BFF  53                push ebx
00005C00  8B450C            mov eax,[ebp+0xc]
00005C03  C1E803            shr eax,0x3
00005C06  89C2              mov edx,eax
00005C08  035508            add edx,[ebp+0x8]
00005C0B  034508            add eax,[ebp+0x8]
00005C0E  0FB600            movzx eax,byte [eax]
00005C11  8B4D0C            mov ecx,[ebp+0xc]
00005C14  83E107            and ecx,byte +0x7
00005C17  BB01000000        mov ebx,0x1
00005C1C  89DE              mov esi,ebx
00005C1E  D3E6              shl esi,cl
00005C20  89F1              mov ecx,esi
00005C22  F7D1              not ecx
00005C24  21C8              and eax,ecx
00005C26  8802              mov [edx],al
00005C28  5B                pop ebx
00005C29  5E                pop esi
00005C2A  5D                pop ebp
00005C2B  C3                ret
00005C2C  55                push ebp
00005C2D  89E5              mov ebp,esp
00005C2F  83EC28            sub esp,byte +0x28
00005C32  C744240400040000  mov dword [esp+0x4],0x400
00005C3A  C70424A0AA0300    mov dword [esp],0x3aaa0
00005C41  E8F4FEFFFF        call dword 0x5b3a
00005C46  8945F4            mov [ebp-0xc],eax
00005C49  837DF400          cmp dword [ebp-0xc],byte +0x0
00005C4D  740D              jz 0x5c5c
00005C4F  A1AC4C0100        mov eax,[0x14cac]
00005C54  83E801            sub eax,byte +0x1
00005C57  A3AC4C0100        mov [0x14cac],eax
00005C5C  8B45F4            mov eax,[ebp-0xc]
00005C5F  C9                leave
00005C60  C3                ret
00005C61  55                push ebp
00005C62  89E5              mov ebp,esp
00005C64  83EC08            sub esp,byte +0x8
00005C67  8B4508            mov eax,[ebp+0x8]
00005C6A  89442404          mov [esp+0x4],eax
00005C6E  C70424A0AA0300    mov dword [esp],0x3aaa0
00005C75  E881FFFFFF        call dword 0x5bfb
00005C7A  A1AC4C0100        mov eax,[0x14cac]
00005C7F  83C001            add eax,byte +0x1
00005C82  A3AC4C0100        mov [0x14cac],eax
00005C87  C9                leave
00005C88  C3                ret
00005C89  55                push ebp
00005C8A  89E5              mov ebp,esp
00005C8C  83EC38            sub esp,byte +0x38
00005C8F  C744240400400000  mov dword [esp+0x4],0x4000
00005C97  C70424A0AE0300    mov dword [esp],0x3aea0
00005C9E  E897FEFFFF        call dword 0x5b3a
00005CA3  8945F4            mov [ebp-0xc],eax
00005CA6  837DF400          cmp dword [ebp-0xc],byte +0x0
00005CAA  747E              jz 0x5d2a
00005CAC  8B45F4            mov eax,[ebp-0xc]
00005CAF  0500000200        add eax,0x20000
00005CB4  8945F0            mov [ebp-0x10],eax
00005CB7  8B45F0            mov eax,[ebp-0x10]
00005CBA  8945E8            mov [ebp-0x18],eax
00005CBD  837D0C00          cmp dword [ebp+0xc],byte +0x0
00005CC1  742C              jz 0x5cef
00005CC3  E864FFFFFF        call dword 0x5c2c
00005CC8  8945EC            mov [ebp-0x14],eax
00005CCB  837DEC00          cmp dword [ebp-0x14],byte +0x0
00005CCF  7443              jz 0x5d14
00005CD1  8B45F0            mov eax,[ebp-0x10]
00005CD4  89442404          mov [esp+0x4],eax
00005CD8  8B45EC            mov eax,[ebp-0x14]
00005CDB  890424            mov [esp],eax
00005CDE  E8A5000000        call dword 0x5d88
00005CE3  85C0              test eax,eax
00005CE5  751F              jnz 0x5d06
00005CE7  8B45EC            mov eax,[ebp-0x14]
00005CEA  8945E4            mov [ebp-0x1c],eax
00005CED  EB07              jmp short 0x5cf6
00005CEF  C745E400000000    mov dword [ebp-0x1c],0x0
00005CF6  8B4D08            mov ecx,[ebp+0x8]
00005CF9  8B45E4            mov eax,[ebp-0x1c]
00005CFC  8B55E8            mov edx,[ebp-0x18]
00005CFF  8901              mov [ecx],eax
00005D01  895104            mov [ecx+0x4],edx
00005D04  EB38              jmp short 0x5d3e
00005D06  90                nop
00005D07  8B45EC            mov eax,[ebp-0x14]
00005D0A  890424            mov [esp],eax
00005D0D  E84FFFFFFF        call dword 0x5c61
00005D12  EB01              jmp short 0x5d15
00005D14  90                nop
00005D15  8B45F4            mov eax,[ebp-0xc]
00005D18  89442404          mov [esp+0x4],eax
00005D1C  C70424A0AE0300    mov dword [esp],0x3aea0
00005D23  E8D3FEFFFF        call dword 0x5bfb
00005D28  EB01              jmp short 0x5d2b
00005D2A  90                nop
00005D2B  8B4508            mov eax,[ebp+0x8]
00005D2E  C70000000000      mov dword [eax],0x0
00005D34  8B4508            mov eax,[ebp+0x8]
00005D37  C7400400000000    mov dword [eax+0x4],0x0
00005D3E  8B4508            mov eax,[ebp+0x8]
00005D41  C9                leave
00005D42  C20400            ret 0x4
00005D45  55                push ebp
00005D46  89E5              mov ebp,esp
00005D48  83EC28            sub esp,byte +0x28
00005D4B  8B450C            mov eax,[ebp+0xc]
00005D4E  2D00000200        sub eax,0x20000
00005D53  8945F4            mov [ebp-0xc],eax
00005D56  8B45F4            mov eax,[ebp-0xc]
00005D59  89442404          mov [esp+0x4],eax
00005D5D  C70424A0AE0300    mov dword [esp],0x3aea0
00005D64  E892FEFFFF        call dword 0x5bfb
00005D69  8B4508            mov eax,[ebp+0x8]
00005D6C  85C0              test eax,eax
00005D6E  7416              jz 0x5d86
00005D70  8B450C            mov eax,[ebp+0xc]
00005D73  890424            mov [esp],eax
00005D76  E8C6010000        call dword 0x5f41
00005D7B  8B4508            mov eax,[ebp+0x8]
00005D7E  890424            mov [esp],eax
00005D81  E8DBFEFFFF        call dword 0x5c61
00005D86  C9                leave
00005D87  C3                ret
00005D88  55                push ebp
00005D89  89E5              mov ebp,esp
00005D8B  83EC38            sub esp,byte +0x38
00005D8E  8B450C            mov eax,[ebp+0xc]
00005D91  C1E80A            shr eax,0xa
00005D94  8945F0            mov [ebp-0x10],eax
00005D97  8B450C            mov eax,[ebp+0xc]
00005D9A  25FF030000        and eax,0x3ff
00005D9F  8945EC            mov [ebp-0x14],eax
00005DA2  C745E800F0FFFF    mov dword [ebp-0x18],0xfffff000
00005DA9  8B45F0            mov eax,[ebp-0x10]
00005DAC  C1E00C            shl eax,0xc
00005DAF  0D0000C0FF        or eax,0xffc00000
00005DB4  8945E4            mov [ebp-0x1c],eax
00005DB7  8B45F0            mov eax,[ebp-0x10]
00005DBA  C1E002            shl eax,0x2
00005DBD  0345E8            add eax,[ebp-0x18]
00005DC0  8B00              mov eax,[eax]
00005DC2  83E001            and eax,byte +0x1
00005DC5  85C0              test eax,eax
00005DC7  0F8584000000      jnz dword 0x5e51
00005DCD  817D0CFFFF0300    cmp dword [ebp+0xc],0x3ffff
00005DD4  772A              ja 0x5e00
00005DD6  FA                cli
00005DD7  C7442408B9280100  mov dword [esp+0x8],0x128b9
00005DDF  C7442404A4260100  mov dword [esp+0x4],0x126a4
00005DE7  C70424B0260100    mov dword [esp],0x126b0
00005DEE  E8D1B9FFFF        call dword 0x17c4
00005DF3  C70424C0260100    mov dword [esp],0x126c0
00005DFA  E8C5B9FFFF        call dword 0x17c4
00005DFF  F4                hlt
00005E00  E827FEFFFF        call dword 0x5c2c
00005E05  8945E0            mov [ebp-0x20],eax
00005E08  837DE000          cmp dword [ebp-0x20],byte +0x0
00005E0C  750A              jnz 0x5e18
00005E0E  B8FDFFFFFF        mov eax,0xfffffffd
00005E13  E927010000        jmp dword 0x5f3f
00005E18  8B45F0            mov eax,[ebp-0x10]
00005E1B  C1E002            shl eax,0x2
00005E1E  0345E8            add eax,[ebp-0x18]
00005E21  8B55E0            mov edx,[ebp-0x20]
00005E24  C1E20C            shl edx,0xc
00005E27  83CA03            or edx,byte +0x3
00005E2A  8910              mov [eax],edx
00005E2C  C745F400000000    mov dword [ebp-0xc],0x0
00005E33  EB13              jmp short 0x5e48
00005E35  8B45F4            mov eax,[ebp-0xc]
00005E38  C1E002            shl eax,0x2
00005E3B  0345E4            add eax,[ebp-0x1c]
00005E3E  C70000000000      mov dword [eax],0x0
00005E44  8345F401          add dword [ebp-0xc],byte +0x1
00005E48  817DF4FF030000    cmp dword [ebp-0xc],0x3ff
00005E4F  76E4              jna 0x5e35
00005E51  8B45EC            mov eax,[ebp-0x14]
00005E54  C1E002            shl eax,0x2
00005E57  0345E4            add eax,[ebp-0x1c]
00005E5A  8B00              mov eax,[eax]
00005E5C  83E001            and eax,byte +0x1
00005E5F  84C0              test al,al
00005E61  7438              jz 0x5e9b
00005E63  FA                cli
00005E64  C7442408B9280100  mov dword [esp+0x8],0x128b9
00005E6C  C7442404A4260100  mov dword [esp+0x4],0x126a4
00005E74  C70424B0260100    mov dword [esp],0x126b0
00005E7B  E844B9FFFF        call dword 0x17c4
00005E80  8B4508            mov eax,[ebp+0x8]
00005E83  89442408          mov [esp+0x8],eax
00005E87  8B450C            mov eax,[ebp+0xc]
00005E8A  89442404          mov [esp+0x4],eax
00005E8E  C70424EC260100    mov dword [esp],0x126ec
00005E95  E82AB9FFFF        call dword 0x17c4
00005E9A  F4                hlt
00005E9B  8B45EC            mov eax,[ebp-0x14]
00005E9E  C1E002            shl eax,0x2
00005EA1  0345E4            add eax,[ebp-0x1c]
00005EA4  8B5508            mov edx,[ebp+0x8]
00005EA7  C1E20C            shl edx,0xc
00005EAA  83CA03            or edx,byte +0x3
00005EAD  8910              mov [eax],edx
00005EAF  817D0CFFFF0300    cmp dword [ebp+0xc],0x3ffff
00005EB6  7632              jna 0x5eea
00005EB8  8B45F0            mov eax,[ebp-0x10]
00005EBB  C1E002            shl eax,0x2
00005EBE  0345E8            add eax,[ebp-0x18]
00005EC1  8B55F0            mov edx,[ebp-0x10]
00005EC4  C1E202            shl edx,0x2
00005EC7  0355E8            add edx,[ebp-0x18]
00005ECA  8B12              mov edx,[edx]
00005ECC  83CA04            or edx,byte +0x4
00005ECF  8910              mov [eax],edx
00005ED1  8B45EC            mov eax,[ebp-0x14]
00005ED4  C1E002            shl eax,0x2
00005ED7  0345E4            add eax,[ebp-0x1c]
00005EDA  8B55EC            mov edx,[ebp-0x14]
00005EDD  C1E202            shl edx,0x2
00005EE0  0355E4            add edx,[ebp-0x1c]
00005EE3  8B12              mov edx,[edx]
00005EE5  83CA04            or edx,byte +0x4
00005EE8  8910              mov [eax],edx
00005EEA  A1B04C0100        mov eax,[0x14cb0]
00005EEF  034508            add eax,[ebp+0x8]
00005EF2  0FB600            movzx eax,byte [eax]
00005EF5  3CFF              cmp al,0xff
00005EF7  7531              jnz 0x5f2a
00005EF9  FA                cli
00005EFA  C7442408B9280100  mov dword [esp+0x8],0x128b9
00005F02  C7442404A4260100  mov dword [esp+0x4],0x126a4
00005F0A  C70424B0260100    mov dword [esp],0x126b0
00005F11  E8AEB8FFFF        call dword 0x17c4
00005F16  8B4508            mov eax,[ebp+0x8]
00005F19  89442404          mov [esp+0x4],eax
00005F1D  C7042410270100    mov dword [esp],0x12710
00005F24  E89BB8FFFF        call dword 0x17c4
00005F29  F4                hlt
00005F2A  A1B04C0100        mov eax,[0x14cb0]
00005F2F  034508            add eax,[ebp+0x8]
00005F32  0FB610            movzx edx,byte [eax]
00005F35  83C201            add edx,byte +0x1
00005F38  8810              mov [eax],dl
00005F3A  B800000000        mov eax,0x0
00005F3F  C9                leave
00005F40  C3                ret
00005F41  55                push ebp
00005F42  89E5              mov ebp,esp
00005F44  83EC38            sub esp,byte +0x38
00005F47  8B4508            mov eax,[ebp+0x8]
00005F4A  C1E80A            shr eax,0xa
00005F4D  8945F4            mov [ebp-0xc],eax
00005F50  8B4508            mov eax,[ebp+0x8]
00005F53  25FF030000        and eax,0x3ff
00005F58  8945F0            mov [ebp-0x10],eax
00005F5B  C745EC00F0FFFF    mov dword [ebp-0x14],0xfffff000
00005F62  817D08FFFF0100    cmp dword [ebp+0x8],0x1ffff
00005F69  7731              ja 0x5f9c
00005F6B  FA                cli
00005F6C  C7442408AC280100  mov dword [esp+0x8],0x128ac
00005F74  C7442404A4260100  mov dword [esp+0x4],0x126a4
00005F7C  C70424B0260100    mov dword [esp],0x126b0
00005F83  E83CB8FFFF        call dword 0x17c4
00005F88  8B4508            mov eax,[ebp+0x8]
00005F8B  89442404          mov [esp+0x4],eax
00005F8F  C704243E270100    mov dword [esp],0x1273e
00005F96  E829B8FFFF        call dword 0x17c4
00005F9B  F4                hlt
00005F9C  8B45F4            mov eax,[ebp-0xc]
00005F9F  C1E002            shl eax,0x2
00005FA2  0345EC            add eax,[ebp-0x14]
00005FA5  8B00              mov eax,[eax]
00005FA7  83E001            and eax,byte +0x1
00005FAA  85C0              test eax,eax
00005FAC  752A              jnz 0x5fd8
00005FAE  FA                cli
00005FAF  C7442408AC280100  mov dword [esp+0x8],0x128ac
00005FB7  C7442404A4260100  mov dword [esp+0x4],0x126a4
00005FBF  C70424B0260100    mov dword [esp],0x126b0
00005FC6  E8F9B7FFFF        call dword 0x17c4
00005FCB  C704245C270100    mov dword [esp],0x1275c
00005FD2  E8EDB7FFFF        call dword 0x17c4
00005FD7  F4                hlt
00005FD8  8B45F4            mov eax,[ebp-0xc]
00005FDB  C1E00C            shl eax,0xc
00005FDE  0D0000C0FF        or eax,0xffc00000
00005FE3  8945E8            mov [ebp-0x18],eax
00005FE6  8B45F0            mov eax,[ebp-0x10]
00005FE9  C1E002            shl eax,0x2
00005FEC  0345E8            add eax,[ebp-0x18]
00005FEF  8B00              mov eax,[eax]
00005FF1  83E001            and eax,byte +0x1
00005FF4  85C0              test eax,eax
00005FF6  752A              jnz 0x6022
00005FF8  FA                cli
00005FF9  C7442408AC280100  mov dword [esp+0x8],0x128ac
00006001  C7442404A4260100  mov dword [esp+0x4],0x126a4
00006009  C70424B0260100    mov dword [esp],0x126b0
00006010  E8AFB7FFFF        call dword 0x17c4
00006015  C7042487270100    mov dword [esp],0x12787
0000601C  E8A3B7FFFF        call dword 0x17c4
00006021  F4                hlt
00006022  8B45F0            mov eax,[ebp-0x10]
00006025  C1E002            shl eax,0x2
00006028  0345E8            add eax,[ebp-0x18]
0000602B  8B00              mov eax,[eax]
0000602D  C1E80C            shr eax,0xc
00006030  8945E4            mov [ebp-0x1c],eax
00006033  8B45F0            mov eax,[ebp-0x10]
00006036  C1E002            shl eax,0x2
00006039  0345E8            add eax,[ebp-0x18]
0000603C  C70000000000      mov dword [eax],0x0
00006042  8B4508            mov eax,[ebp+0x8]
00006045  C1E00C            shl eax,0xc
00006048  8945E0            mov [ebp-0x20],eax
0000604B  0F017DE0          invlpg [ebp-0x20]
0000604F  0F20D8            mov eax,cr3
00006052  0F22D8            mov cr3,eax
00006055  A1B04C0100        mov eax,[0x14cb0]
0000605A  0345E4            add eax,[ebp-0x1c]
0000605D  0FB600            movzx eax,byte [eax]
00006060  84C0              test al,al
00006062  752A              jnz 0x608e
00006064  FA                cli
00006065  C7442408AC280100  mov dword [esp+0x8],0x128ac
0000606D  C7442404A4260100  mov dword [esp+0x4],0x126a4
00006075  C70424B0260100    mov dword [esp],0x126b0
0000607C  E843B7FFFF        call dword 0x17c4
00006081  C704249C270100    mov dword [esp],0x1279c
00006088  E837B7FFFF        call dword 0x17c4
0000608D  F4                hlt
0000608E  A1B04C0100        mov eax,[0x14cb0]
00006093  0345E4            add eax,[ebp-0x1c]
00006096  0FB610            movzx edx,byte [eax]
00006099  83EA01            sub edx,byte +0x1
0000609C  8810              mov [eax],dl
0000609E  A1B04C0100        mov eax,[0x14cb0]
000060A3  0345E4            add eax,[ebp-0x1c]
000060A6  0FB600            movzx eax,byte [eax]
000060A9  84C0              test al,al
000060AB  7527              jnz 0x60d4
000060AD  817D08FFFF0300    cmp dword [ebp+0x8],0x3ffff
000060B4  761E              jna 0x60d4
000060B6  8B45E4            mov eax,[ebp-0x1c]
000060B9  89442404          mov [esp+0x4],eax
000060BD  C70424C4270100    mov dword [esp],0x127c4
000060C4  E8FBB6FFFF        call dword 0x17c4
000060C9  8B45E4            mov eax,[ebp-0x1c]
000060CC  890424            mov [esp],eax
000060CF  E88DFBFFFF        call dword 0x5c61
000060D4  C9                leave
000060D5  C3                ret
000060D6  55                push ebp
000060D7  89E5              mov ebp,esp
000060D9  83EC38            sub esp,byte +0x38
000060DC  E84BFBFFFF        call dword 0x5c2c
000060E1  8945F0            mov [ebp-0x10],eax
000060E4  837DF000          cmp dword [ebp-0x10],byte +0x0
000060E8  0F84F8000000      jz dword 0x61e6
000060EE  8D45E0            lea eax,[ebp-0x20]
000060F1  C744240400000000  mov dword [esp+0x4],0x0
000060F9  890424            mov [esp],eax
000060FC  E888FBFFFF        call dword 0x5c89
00006101  83EC04            sub esp,byte +0x4
00006104  8B45E4            mov eax,[ebp-0x1c]
00006107  85C0              test eax,eax
00006109  0F84C9000000      jz dword 0x61d8
0000610F  8B45E4            mov eax,[ebp-0x1c]
00006112  89442404          mov [esp+0x4],eax
00006116  8B45F0            mov eax,[ebp-0x10]
00006119  890424            mov [esp],eax
0000611C  E867FCFFFF        call dword 0x5d88
00006121  85C0              test eax,eax
00006123  0F859A000000      jnz dword 0x61c3
00006129  8B45F0            mov eax,[ebp-0x10]
0000612C  C1E00C            shl eax,0xc
0000612F  8945EC            mov [ebp-0x14],eax
00006132  8B45E4            mov eax,[ebp-0x1c]
00006135  C1E00C            shl eax,0xc
00006138  8945E8            mov [ebp-0x18],eax
0000613B  C745F400000000    mov dword [ebp-0xc],0x0
00006142  EB13              jmp short 0x6157
00006144  8B45F4            mov eax,[ebp-0xc]
00006147  C1E002            shl eax,0x2
0000614A  0345E8            add eax,[ebp-0x18]
0000614D  C70000000000      mov dword [eax],0x0
00006153  8345F401          add dword [ebp-0xc],byte +0x1
00006157  817DF4FF030000    cmp dword [ebp-0xc],0x3ff
0000615E  76E4              jna 0x6144
00006160  C745F400000000    mov dword [ebp-0xc],0x0
00006167  EB1F              jmp short 0x6188
00006169  8B45F4            mov eax,[ebp-0xc]
0000616C  C1E002            shl eax,0x2
0000616F  0345E8            add eax,[ebp-0x18]
00006172  8B15B44C0100      mov edx,[dword 0x14cb4]
00006178  8B4DF4            mov ecx,[ebp-0xc]
0000617B  C1E102            shl ecx,0x2
0000617E  01CA              add edx,ecx
00006180  8B12              mov edx,[edx]
00006182  8910              mov [eax],edx
00006184  8345F401          add dword [ebp-0xc],byte +0x1
00006188  817DF4FF000000    cmp dword [ebp-0xc],0xff
0000618F  76D8              jna 0x6169
00006191  8B45E8            mov eax,[ebp-0x18]
00006194  05FC0F0000        add eax,0xffc
00006199  8B55EC            mov edx,[ebp-0x14]
0000619C  83CA03            or edx,byte +0x3
0000619F  8910              mov [eax],edx
000061A1  8B45E4            mov eax,[ebp-0x1c]
000061A4  890424            mov [esp],eax
000061A7  E895FDFFFF        call dword 0x5f41
000061AC  8B45E0            mov eax,[ebp-0x20]
000061AF  8B55E4            mov edx,[ebp-0x1c]
000061B2  890424            mov [esp],eax
000061B5  89542404          mov [esp+0x4],edx
000061B9  E887FBFFFF        call dword 0x5d45
000061BE  8B45EC            mov eax,[ebp-0x14]
000061C1  EB29              jmp short 0x61ec
000061C3  90                nop
000061C4  8B45E0            mov eax,[ebp-0x20]
000061C7  8B55E4            mov edx,[ebp-0x1c]
000061CA  890424            mov [esp],eax
000061CD  89542404          mov [esp+0x4],edx
000061D1  E86FFBFFFF        call dword 0x5d45
000061D6  EB01              jmp short 0x61d9
000061D8  90                nop
000061D9  8B45F0            mov eax,[ebp-0x10]
000061DC  890424            mov [esp],eax
000061DF  E87DFAFFFF        call dword 0x5c61
000061E4  EB01              jmp short 0x61e7
000061E6  90                nop
000061E7  B800000000        mov eax,0x0
000061EC  C9                leave
000061ED  C3                ret
000061EE  55                push ebp
000061EF  89E5              mov ebp,esp
000061F1  83EC38            sub esp,byte +0x38
000061F4  8B4508            mov eax,[ebp+0x8]
000061F7  8945E0            mov [ebp-0x20],eax
000061FA  0F20D8            mov eax,cr3
000061FD  8945DC            mov [ebp-0x24],eax
00006200  8B45E0            mov eax,[ebp-0x20]
00006203  0F22D8            mov cr3,eax
00006206  C745EC00F0FFFF    mov dword [ebp-0x14],0xfffff000
0000620D  C745F400010000    mov dword [ebp-0xc],0x100
00006214  E979010000        jmp dword 0x6392
00006219  8B45F4            mov eax,[ebp-0xc]
0000621C  C1E002            shl eax,0x2
0000621F  0345EC            add eax,[ebp-0x14]
00006222  8B00              mov eax,[eax]
00006224  83E001            and eax,byte +0x1
00006227  84C0              test al,al
00006229  0F845F010000      jz dword 0x638e
0000622F  8B45F4            mov eax,[ebp-0xc]
00006232  C1E00C            shl eax,0xc
00006235  0D0000C0FF        or eax,0xffc00000
0000623A  8945E8            mov [ebp-0x18],eax
0000623D  C745F000000000    mov dword [ebp-0x10],0x0
00006244  E9A8000000        jmp dword 0x62f1
00006249  8B45F0            mov eax,[ebp-0x10]
0000624C  C1E002            shl eax,0x2
0000624F  0345E8            add eax,[ebp-0x18]
00006252  8B00              mov eax,[eax]
00006254  83E001            and eax,byte +0x1
00006257  84C0              test al,al
00006259  0F848E000000      jz dword 0x62ed
0000625F  8B45F0            mov eax,[ebp-0x10]
00006262  C1E002            shl eax,0x2
00006265  0345E8            add eax,[ebp-0x18]
00006268  8B00              mov eax,[eax]
0000626A  C1E80C            shr eax,0xc
0000626D  8945E4            mov [ebp-0x1c],eax
00006270  8B45F4            mov eax,[ebp-0xc]
00006273  89442408          mov [esp+0x8],eax
00006277  8B45F0            mov eax,[ebp-0x10]
0000627A  89442404          mov [esp+0x4],eax
0000627E  C70424E9270100    mov dword [esp],0x127e9
00006285  E83AB5FFFF        call dword 0x17c4
0000628A  A1B04C0100        mov eax,[0x14cb0]
0000628F  0345E4            add eax,[ebp-0x1c]
00006292  0FB600            movzx eax,byte [eax]
00006295  84C0              test al,al
00006297  752A              jnz 0x62c3
00006299  FA                cli
0000629A  C74424089A280100  mov dword [esp+0x8],0x1289a
000062A2  C7442404A4260100  mov dword [esp+0x4],0x126a4
000062AA  C70424B0260100    mov dword [esp],0x126b0
000062B1  E80EB5FFFF        call dword 0x17c4
000062B6  C70424FB270100    mov dword [esp],0x127fb
000062BD  E802B5FFFF        call dword 0x17c4
000062C2  F4                hlt
000062C3  A1B04C0100        mov eax,[0x14cb0]
000062C8  0345E4            add eax,[ebp-0x1c]
000062CB  0FB610            movzx edx,byte [eax]
000062CE  83EA01            sub edx,byte +0x1
000062D1  8810              mov [eax],dl
000062D3  A1B04C0100        mov eax,[0x14cb0]
000062D8  0345E4            add eax,[ebp-0x1c]
000062DB  0FB600            movzx eax,byte [eax]
000062DE  84C0              test al,al
000062E0  750B              jnz 0x62ed
000062E2  8B45E4            mov eax,[ebp-0x1c]
000062E5  890424            mov [esp],eax
000062E8  E874F9FFFF        call dword 0x5c61
000062ED  8345F001          add dword [ebp-0x10],byte +0x1
000062F1  817DF0FF030000    cmp dword [ebp-0x10],0x3ff
000062F8  0F864BFFFFFF      jna dword 0x6249
000062FE  8B45F4            mov eax,[ebp-0xc]
00006301  C1E002            shl eax,0x2
00006304  0345EC            add eax,[ebp-0x14]
00006307  8B00              mov eax,[eax]
00006309  C1E80C            shr eax,0xc
0000630C  8945E4            mov [ebp-0x1c],eax
0000630F  A1B04C0100        mov eax,[0x14cb0]
00006314  0345E4            add eax,[ebp-0x1c]
00006317  0FB600            movzx eax,byte [eax]
0000631A  3C01              cmp al,0x1
0000631C  752C              jnz 0x634a
0000631E  FA                cli
0000631F  C74424089A280100  mov dword [esp+0x8],0x1289a
00006327  C7442404A4260100  mov dword [esp+0x4],0x126a4
0000632F  C70424B0260100    mov dword [esp],0x126b0
00006336  E889B4FFFF        call dword 0x17c4
0000633B  C7042410280100    mov dword [esp],0x12810
00006342  E87DB4FFFF        call dword 0x17c4
00006347  F4                hlt
00006348  EB39              jmp short 0x6383
0000634A  A1B04C0100        mov eax,[0x14cb0]
0000634F  0345E4            add eax,[ebp-0x1c]
00006352  0FB600            movzx eax,byte [eax]
00006355  3C01              cmp al,0x1
00006357  762A              jna 0x6383
00006359  FA                cli
0000635A  C74424089A280100  mov dword [esp+0x8],0x1289a
00006362  C7442404A4260100  mov dword [esp+0x4],0x126a4
0000636A  C70424B0260100    mov dword [esp],0x126b0
00006371  E84EB4FFFF        call dword 0x17c4
00006376  C7042430280100    mov dword [esp],0x12830
0000637D  E842B4FFFF        call dword 0x17c4
00006382  F4                hlt
00006383  8B45E4            mov eax,[ebp-0x1c]
00006386  890424            mov [esp],eax
00006389  E8D3F8FFFF        call dword 0x5c61
0000638E  8345F401          add dword [ebp-0xc],byte +0x1
00006392  817DF4FE030000    cmp dword [ebp-0xc],0x3fe
00006399  0F867AFEFFFF      jna dword 0x6219
0000639F  8B45DC            mov eax,[ebp-0x24]
000063A2  0F22D8            mov cr3,eax
000063A5  8B4508            mov eax,[ebp+0x8]
000063A8  C1E80C            shr eax,0xc
000063AB  8945E4            mov [ebp-0x1c],eax
000063AE  8B45E4            mov eax,[ebp-0x1c]
000063B1  890424            mov [esp],eax
000063B4  E8A8F8FFFF        call dword 0x5c61
000063B9  C9                leave
000063BA  C3                ret
000063BB  55                push ebp
000063BC  89E5              mov ebp,esp
000063BE  83EC58            sub esp,byte +0x58
000063C1  E810FDFFFF        call dword 0x60d6
000063C6  8945EC            mov [ebp-0x14],eax
000063C9  837DEC00          cmp dword [ebp-0x14],byte +0x0
000063CD  0F84A2020000      jz dword 0x6675
000063D3  8D45CC            lea eax,[ebp-0x34]
000063D6  C744240400000000  mov dword [esp+0x4],0x0
000063DE  890424            mov [esp],eax
000063E1  E8A3F8FFFF        call dword 0x5c89
000063E6  83EC04            sub esp,byte +0x4
000063E9  8B45D0            mov eax,[ebp-0x30]
000063EC  85C0              test eax,eax
000063EE  0F8473020000      jz dword 0x6667
000063F4  8B45D0            mov eax,[ebp-0x30]
000063F7  8B55EC            mov edx,[ebp-0x14]
000063FA  C1EA0C            shr edx,0xc
000063FD  89442404          mov [esp+0x4],eax
00006401  891424            mov [esp],edx
00006404  E87FF9FFFF        call dword 0x5d88
00006409  85C0              test eax,eax
0000640B  0F8541020000      jnz dword 0x6652
00006411  8D45C4            lea eax,[ebp-0x3c]
00006414  C744240400000000  mov dword [esp+0x4],0x0
0000641C  890424            mov [esp],eax
0000641F  E865F8FFFF        call dword 0x5c89
00006424  83EC04            sub esp,byte +0x4
00006427  8B45C8            mov eax,[ebp-0x38]
0000642A  85C0              test eax,eax
0000642C  0F8412020000      jz dword 0x6644
00006432  C745E800F0FFFF    mov dword [ebp-0x18],0xfffff000
00006439  8B45D0            mov eax,[ebp-0x30]
0000643C  C1E00C            shl eax,0xc
0000643F  8945E4            mov [ebp-0x1c],eax
00006442  8B45C8            mov eax,[ebp-0x38]
00006445  C1E00C            shl eax,0xc
00006448  8945E0            mov [ebp-0x20],eax
0000644B  C745F400010000    mov dword [ebp-0xc],0x100
00006452  E98E010000        jmp dword 0x65e5
00006457  8B45F4            mov eax,[ebp-0xc]
0000645A  C1E002            shl eax,0x2
0000645D  0345E8            add eax,[ebp-0x18]
00006460  8B00              mov eax,[eax]
00006462  83E001            and eax,byte +0x1
00006465  84C0              test al,al
00006467  0F8465010000      jz dword 0x65d2
0000646D  E8BAF7FFFF        call dword 0x5c2c
00006472  8945DC            mov [ebp-0x24],eax
00006475  837DDC00          cmp dword [ebp-0x24],byte +0x0
00006479  0F84AD010000      jz dword 0x662c
0000647F  8B45F4            mov eax,[ebp-0xc]
00006482  C1E002            shl eax,0x2
00006485  0345E4            add eax,[ebp-0x1c]
00006488  8B55DC            mov edx,[ebp-0x24]
0000648B  C1E20C            shl edx,0xc
0000648E  83CA07            or edx,byte +0x7
00006491  8910              mov [eax],edx
00006493  8B45C8            mov eax,[ebp-0x38]
00006496  89442404          mov [esp+0x4],eax
0000649A  8B45DC            mov eax,[ebp-0x24]
0000649D  890424            mov [esp],eax
000064A0  E8E3F8FFFF        call dword 0x5d88
000064A5  85C0              test eax,eax
000064A7  0F8582010000      jnz dword 0x662f
000064AD  8B45F4            mov eax,[ebp-0xc]
000064B0  C1E00C            shl eax,0xc
000064B3  0D0000C0FF        or eax,0xffc00000
000064B8  8945D8            mov [ebp-0x28],eax
000064BB  8B45C8            mov eax,[ebp-0x38]
000064BE  C1E00C            shl eax,0xc
000064C1  8945E0            mov [ebp-0x20],eax
000064C4  C745F000000000    mov dword [ebp-0x10],0x0
000064CB  E9E8000000        jmp dword 0x65b8
000064D0  8B45F0            mov eax,[ebp-0x10]
000064D3  C1E002            shl eax,0x2
000064D6  0345D8            add eax,[ebp-0x28]
000064D9  8B00              mov eax,[eax]
000064DB  83E001            and eax,byte +0x1
000064DE  84C0              test al,al
000064E0  0F84BF000000      jz dword 0x65a5
000064E6  8B45F0            mov eax,[ebp-0x10]
000064E9  C1E002            shl eax,0x2
000064EC  0345D8            add eax,[ebp-0x28]
000064EF  8B55F0            mov edx,[ebp-0x10]
000064F2  C1E202            shl edx,0x2
000064F5  0355D8            add edx,[ebp-0x28]
000064F8  8B12              mov edx,[edx]
000064FA  83E2FD            and edx,byte -0x3
000064FD  8910              mov [eax],edx
000064FF  8B45F0            mov eax,[ebp-0x10]
00006502  C1E002            shl eax,0x2
00006505  0345E0            add eax,[ebp-0x20]
00006508  8B55F0            mov edx,[ebp-0x10]
0000650B  C1E202            shl edx,0x2
0000650E  0355D8            add edx,[ebp-0x28]
00006511  8B12              mov edx,[edx]
00006513  8910              mov [eax],edx
00006515  8B45F0            mov eax,[ebp-0x10]
00006518  C1E002            shl eax,0x2
0000651B  0345D8            add eax,[ebp-0x28]
0000651E  8B00              mov eax,[eax]
00006520  C1E80C            shr eax,0xc
00006523  8945D4            mov [ebp-0x2c],eax
00006526  8B45D4            mov eax,[ebp-0x2c]
00006529  8944240C          mov [esp+0xc],eax
0000652D  8B45F4            mov eax,[ebp-0xc]
00006530  89442408          mov [esp+0x8],eax
00006534  8B45F0            mov eax,[ebp-0x10]
00006537  89442404          mov [esp+0x4],eax
0000653B  C7042451280100    mov dword [esp],0x12851
00006542  E87DB2FFFF        call dword 0x17c4
00006547  A1B04C0100        mov eax,[0x14cb0]
0000654C  0345D4            add eax,[ebp-0x2c]
0000654F  0FB600            movzx eax,byte [eax]
00006552  3CFF              cmp al,0xff
00006554  753D              jnz 0x6593
00006556  8B45D4            mov eax,[ebp-0x2c]
00006559  89442404          mov [esp+0x4],eax
0000655D  C704246B280100    mov dword [esp],0x1286b
00006564  E85BB2FFFF        call dword 0x17c4
00006569  FA                cli
0000656A  C74424088A280100  mov dword [esp+0x8],0x1288a
00006572  C7442404A4260100  mov dword [esp+0x4],0x126a4
0000657A  C70424B0260100    mov dword [esp],0x126b0
00006581  E83EB2FFFF        call dword 0x17c4
00006586  C7042475280100    mov dword [esp],0x12875
0000658D  E832B2FFFF        call dword 0x17c4
00006592  F4                hlt
00006593  A1B04C0100        mov eax,[0x14cb0]
00006598  0345D4            add eax,[ebp-0x2c]
0000659B  0FB610            movzx edx,byte [eax]
0000659E  83C201            add edx,byte +0x1
000065A1  8810              mov [eax],dl
000065A3  EB0F              jmp short 0x65b4
000065A5  8B45F0            mov eax,[ebp-0x10]
000065A8  C1E002            shl eax,0x2
000065AB  0345E0            add eax,[ebp-0x20]
000065AE  C70000000000      mov dword [eax],0x0
000065B4  8345F001          add dword [ebp-0x10],byte +0x1
000065B8  817DF0FF030000    cmp dword [ebp-0x10],0x3ff
000065BF  0F860BFFFFFF      jna dword 0x64d0
000065C5  8B45C8            mov eax,[ebp-0x38]
000065C8  890424            mov [esp],eax
000065CB  E871F9FFFF        call dword 0x5f41
000065D0  EB0F              jmp short 0x65e1
000065D2  8B45F4            mov eax,[ebp-0xc]
000065D5  C1E002            shl eax,0x2
000065D8  0345E4            add eax,[ebp-0x1c]
000065DB  C70000000000      mov dword [eax],0x0
000065E1  8345F401          add dword [ebp-0xc],byte +0x1
000065E5  817DF4FE030000    cmp dword [ebp-0xc],0x3fe
000065EC  0F8665FEFFFF      jna dword 0x6457
000065F2  8B45C4            mov eax,[ebp-0x3c]
000065F5  8B55C8            mov edx,[ebp-0x38]
000065F8  890424            mov [esp],eax
000065FB  89542404          mov [esp+0x4],edx
000065FF  E841F7FFFF        call dword 0x5d45
00006604  8B45D0            mov eax,[ebp-0x30]
00006607  890424            mov [esp],eax
0000660A  E832F9FFFF        call dword 0x5f41
0000660F  8B45CC            mov eax,[ebp-0x34]
00006612  8B55D0            mov edx,[ebp-0x30]
00006615  890424            mov [esp],eax
00006618  89542404          mov [esp+0x4],edx
0000661C  E824F7FFFF        call dword 0x5d45
00006621  0F20D8            mov eax,cr3
00006624  0F22D8            mov cr3,eax
00006627  8B45EC            mov eax,[ebp-0x14]
0000662A  EB4F              jmp short 0x667b
0000662C  90                nop
0000662D  EB01              jmp short 0x6630
0000662F  90                nop
00006630  8B45C4            mov eax,[ebp-0x3c]
00006633  8B55C8            mov edx,[ebp-0x38]
00006636  890424            mov [esp],eax
00006639  89542404          mov [esp+0x4],edx
0000663D  E803F7FFFF        call dword 0x5d45
00006642  EB01              jmp short 0x6645
00006644  90                nop
00006645  8B45D0            mov eax,[ebp-0x30]
00006648  890424            mov [esp],eax
0000664B  E8F1F8FFFF        call dword 0x5f41
00006650  EB01              jmp short 0x6653
00006652  90                nop
00006653  8B45CC            mov eax,[ebp-0x34]
00006656  8B55D0            mov edx,[ebp-0x30]
00006659  890424            mov [esp],eax
0000665C  89542404          mov [esp+0x4],edx
00006660  E8E0F6FFFF        call dword 0x5d45
00006665  EB01              jmp short 0x6668
00006667  90                nop
00006668  8B45EC            mov eax,[ebp-0x14]
0000666B  890424            mov [esp],eax
0000666E  E87BFBFFFF        call dword 0x61ee
00006673  EB01              jmp short 0x6676
00006675  90                nop
00006676  B800000000        mov eax,0x0
0000667B  C9                leave
0000667C  C3                ret
0000667D  0000              add [eax],al
0000667F  005589            add [ebp-0x77],dl
00006682  E553              in eax,0x53
00006684  83EC14            sub esp,byte +0x14
00006687  8B4508            mov eax,[ebp+0x8]
0000668A  8845E8            mov [ebp-0x18],al
0000668D  807DE800          cmp byte [ebp-0x18],0x0
00006691  7507              jnz 0x669a
00006693  B8F6FFFFFF        mov eax,0xfffffff6
00006698  EB05              jmp short 0x669f
0000669A  B876000000        mov eax,0x76
0000669F  8845FB            mov [ebp-0x5],al
000066A2  B802000000        mov eax,0x2
000066A7  0FB655FB          movzx edx,byte [ebp-0x5]
000066AB  EE                out dx,al
000066AC  B804000000        mov eax,0x4
000066B1  0FB655FB          movzx edx,byte [ebp-0x5]
000066B5  EE                out dx,al
000066B6  0FB655FB          movzx edx,byte [ebp-0x5]
000066BA  8855EB            mov [ebp-0x15],dl
000066BD  0FB655EB          movzx edx,byte [ebp-0x15]
000066C1  EC                in al,dx
000066C2  89C3              mov ebx,eax
000066C4  885DFA            mov [ebp-0x6],bl
000066C7  0FB655FB          movzx edx,byte [ebp-0x5]
000066CB  8855EB            mov [ebp-0x15],dl
000066CE  0FB655EB          movzx edx,byte [ebp-0x15]
000066D2  EC                in al,dx
000066D3  89C3              mov ebx,eax
000066D5  885DF9            mov [ebp-0x7],bl
000066D8  0FB655FB          movzx edx,byte [ebp-0x5]
000066DC  8855EB            mov [ebp-0x15],dl
000066DF  0FB655EB          movzx edx,byte [ebp-0x15]
000066E3  EC                in al,dx
000066E4  89C3              mov ebx,eax
000066E6  885DF8            mov [ebp-0x8],bl
000066E9  0FB655FB          movzx edx,byte [ebp-0x5]
000066ED  8855EB            mov [ebp-0x15],dl
000066F0  0FB655EB          movzx edx,byte [ebp-0x15]
000066F4  EC                in al,dx
000066F5  89C3              mov ebx,eax
000066F7  885DF7            mov [ebp-0x9],bl
000066FA  83C414            add esp,byte +0x14
000066FD  5B                pop ebx
000066FE  5D                pop ebp
000066FF  C3                ret
00006700  55                push ebp
00006701  89E5              mov ebp,esp
00006703  53                push ebx
00006704  83EC2C            sub esp,byte +0x2c
00006707  8B5508            mov edx,[ebp+0x8]
0000670A  8B450C            mov eax,[ebp+0xc]
0000670D  8855D8            mov [ebp-0x28],dl
00006710  8845D4            mov [ebp-0x2c],al
00006713  807DD800          cmp byte [ebp-0x28],0x0
00006717  7507              jnz 0x6720
00006719  B8F0010000        mov eax,0x1f0
0000671E  EB05              jmp short 0x6725
00006720  B870010000        mov eax,0x170
00006725  668945F8          mov [ebp-0x8],ax
00006729  807DD800          cmp byte [ebp-0x28],0x0
0000672D  7507              jnz 0x6736
0000672F  B8F6FFFFFF        mov eax,0xfffffff6
00006734  EB05              jmp short 0x673b
00006736  B876000000        mov eax,0x76
0000673B  8845F7            mov [ebp-0x9],al
0000673E  0FB645D4          movzx eax,byte [ebp-0x2c]
00006742  C1E004            shl eax,0x4
00006745  8B5514            mov edx,[ebp+0x14]
00006748  C1EA18            shr edx,0x18
0000674B  09D0              or eax,edx
0000674D  0CE0              or al,0xe0
0000674F  0FB755F8          movzx edx,word [ebp-0x8]
00006753  83C206            add edx,byte +0x6
00006756  EE                out dx,al
00006757  0FB745F8          movzx eax,word [ebp-0x8]
0000675B  8D5001            lea edx,[eax+0x1]
0000675E  B800000000        mov eax,0x0
00006763  EE                out dx,al
00006764  0FB745F8          movzx eax,word [ebp-0x8]
00006768  8D5001            lea edx,[eax+0x1]
0000676B  B800000000        mov eax,0x0
00006770  EE                out dx,al
00006771  0FB745F8          movzx eax,word [ebp-0x8]
00006775  8D5001            lea edx,[eax+0x1]
00006778  B800000000        mov eax,0x0
0000677D  EE                out dx,al
0000677E  0FB745F8          movzx eax,word [ebp-0x8]
00006782  8D5001            lea edx,[eax+0x1]
00006785  B800000000        mov eax,0x0
0000678A  EE                out dx,al
0000678B  0FB745F8          movzx eax,word [ebp-0x8]
0000678F  8D5002            lea edx,[eax+0x2]
00006792  B801000000        mov eax,0x1
00006797  EE                out dx,al
00006798  8B4514            mov eax,[ebp+0x14]
0000679B  0FB755F8          movzx edx,word [ebp-0x8]
0000679F  83C203            add edx,byte +0x3
000067A2  EE                out dx,al
000067A3  8B4514            mov eax,[ebp+0x14]
000067A6  C1E808            shr eax,0x8
000067A9  0FB755F8          movzx edx,word [ebp-0x8]
000067AD  83C204            add edx,byte +0x4
000067B0  EE                out dx,al
000067B1  8B4514            mov eax,[ebp+0x14]
000067B4  C1E810            shr eax,0x10
000067B7  0FB755F8          movzx edx,word [ebp-0x8]
000067BB  83C205            add edx,byte +0x5
000067BE  EE                out dx,al
000067BF  837D1800          cmp dword [ebp+0x18],byte +0x0
000067C3  740F              jz 0x67d4
000067C5  0FB745F8          movzx eax,word [ebp-0x8]
000067C9  8D5007            lea edx,[eax+0x7]
000067CC  B830000000        mov eax,0x30
000067D1  EE                out dx,al
000067D2  EB0D              jmp short 0x67e1
000067D4  0FB745F8          movzx eax,word [ebp-0x8]
000067D8  8D5007            lea edx,[eax+0x7]
000067DB  B820000000        mov eax,0x20
000067E0  EE                out dx,al
000067E1  0FB745F8          movzx eax,word [ebp-0x8]
000067E5  83C007            add eax,byte +0x7
000067E8  8945D0            mov [ebp-0x30],eax
000067EB  8B55D0            mov edx,[ebp-0x30]
000067EE  EC                in al,dx
000067EF  89C3              mov ebx,eax
000067F1  885DF6            mov [ebp-0xa],bl
000067F4  0FB645F6          movzx eax,byte [ebp-0xa]
000067F8  8845F5            mov [ebp-0xb],al
000067FB  0FB645F5          movzx eax,byte [ebp-0xb]
000067FF  84C0              test al,al
00006801  7812              js 0x6815
00006803  0FB645F5          movzx eax,byte [ebp-0xb]
00006807  83E008            and eax,byte +0x8
0000680A  85C0              test eax,eax
0000680C  7407              jz 0x6815
0000680E  B801000000        mov eax,0x1
00006813  EB05              jmp short 0x681a
00006815  B800000000        mov eax,0x0
0000681A  8945F0            mov [ebp-0x10],eax
0000681D  0FB645F5          movzx eax,byte [ebp-0xb]
00006821  83E001            and eax,byte +0x1
00006824  8945EC            mov [ebp-0x14],eax
00006827  837DF000          cmp dword [ebp-0x10],byte +0x0
0000682B  7506              jnz 0x6833
0000682D  837DEC00          cmp dword [ebp-0x14],byte +0x0
00006831  74AE              jz 0x67e1
00006833  837DEC00          cmp dword [ebp-0x14],byte +0x0
00006837  740A              jz 0x6843
00006839  B8FCFFFFFF        mov eax,0xfffffffc
0000683E  E928010000        jmp dword 0x696b
00006843  837D1800          cmp dword [ebp+0x18],byte +0x0
00006847  0F8494000000      jz dword 0x68e1
0000684D  66C745FA0000      mov word [ebp-0x6],0x0
00006853  EB22              jmp short 0x6877
00006855  0FB745FA          movzx eax,word [ebp-0x6]
00006859  01C0              add eax,eax
0000685B  034510            add eax,[ebp+0x10]
0000685E  0FB700            movzx eax,word [eax]
00006861  668945EA          mov [ebp-0x16],ax
00006865  0FB745EA          movzx eax,word [ebp-0x16]
00006869  0FB755F8          movzx edx,word [ebp-0x8]
0000686D  66EF              out dx,ax
0000686F  EB01              jmp short 0x6872
00006871  90                nop
00006872  668345FA01        add word [ebp-0x6],byte +0x1
00006877  66817DFAFF00      cmp word [ebp-0x6],0xff
0000687D  76D6              jna 0x6855
0000687F  0FB745F8          movzx eax,word [ebp-0x8]
00006883  83C007            add eax,byte +0x7
00006886  8945D0            mov [ebp-0x30],eax
00006889  8B55D0            mov edx,[ebp-0x30]
0000688C  EC                in al,dx
0000688D  89C3              mov ebx,eax
0000688F  885DE9            mov [ebp-0x17],bl
00006892  0FB645E9          movzx eax,byte [ebp-0x17]
00006896  8845F5            mov [ebp-0xb],al
00006899  0FB645F5          movzx eax,byte [ebp-0xb]
0000689D  84C0              test al,al
0000689F  780B              js 0x68ac
000068A1  0FB645F5          movzx eax,byte [ebp-0xb]
000068A5  83E008            and eax,byte +0x8
000068A8  85C0              test eax,eax
000068AA  7407              jz 0x68b3
000068AC  B801000000        mov eax,0x1
000068B1  EB05              jmp short 0x68b8
000068B3  B800000000        mov eax,0x0
000068B8  8945E4            mov [ebp-0x1c],eax
000068BB  0FB645F5          movzx eax,byte [ebp-0xb]
000068BF  83E001            and eax,byte +0x1
000068C2  8945EC            mov [ebp-0x14],eax
000068C5  837DE400          cmp dword [ebp-0x1c],byte +0x0
000068C9  7406              jz 0x68d1
000068CB  837DEC00          cmp dword [ebp-0x14],byte +0x0
000068CF  74AE              jz 0x687f
000068D1  837DEC00          cmp dword [ebp-0x14],byte +0x0
000068D5  744B              jz 0x6922
000068D7  B8FCFFFFFF        mov eax,0xfffffffc
000068DC  E98A000000        jmp dword 0x696b
000068E1  66C745FA0000      mov word [ebp-0x6],0x0
000068E7  EB31              jmp short 0x691a
000068E9  0FB755F8          movzx edx,word [ebp-0x8]
000068ED  668955D0          mov [ebp-0x30],dx
000068F1  0FB755D0          movzx edx,word [ebp-0x30]
000068F5  66ED              in ax,dx
000068F7  89C3              mov ebx,eax
000068F9  66895DE2          mov [ebp-0x1e],bx
000068FD  0FB745E2          movzx eax,word [ebp-0x1e]
00006901  668945EA          mov [ebp-0x16],ax
00006905  0FB745FA          movzx eax,word [ebp-0x6]
00006909  01C0              add eax,eax
0000690B  034510            add eax,[ebp+0x10]
0000690E  0FB755EA          movzx edx,word [ebp-0x16]
00006912  668910            mov [eax],dx
00006915  668345FA01        add word [ebp-0x6],byte +0x1
0000691A  66817DFAFF00      cmp word [ebp-0x6],0xff
00006920  76C7              jna 0x68e9
00006922  0FB655F7          movzx edx,byte [ebp-0x9]
00006926  8855D0            mov [ebp-0x30],dl
00006929  0FB655D0          movzx edx,byte [ebp-0x30]
0000692D  EC                in al,dx
0000692E  89C3              mov ebx,eax
00006930  885DE1            mov [ebp-0x1f],bl
00006933  0FB655F7          movzx edx,byte [ebp-0x9]
00006937  8855D0            mov [ebp-0x30],dl
0000693A  0FB655D0          movzx edx,byte [ebp-0x30]
0000693E  EC                in al,dx
0000693F  89C3              mov ebx,eax
00006941  885DE0            mov [ebp-0x20],bl
00006944  0FB655F7          movzx edx,byte [ebp-0x9]
00006948  8855D0            mov [ebp-0x30],dl
0000694B  0FB655D0          movzx edx,byte [ebp-0x30]
0000694F  EC                in al,dx
00006950  89C3              mov ebx,eax
00006952  885DDF            mov [ebp-0x21],bl
00006955  0FB655F7          movzx edx,byte [ebp-0x9]
00006959  8855D0            mov [ebp-0x30],dl
0000695C  0FB655D0          movzx edx,byte [ebp-0x30]
00006960  EC                in al,dx
00006961  89C3              mov ebx,eax
00006963  885DDE            mov [ebp-0x22],bl
00006966  B800000000        mov eax,0x0
0000696B  83C42C            add esp,byte +0x2c
0000696E  5B                pop ebx
0000696F  5D                pop ebp
00006970  C3                ret
00006971  0000              add [eax],al
00006973  005589            add [ebp-0x77],dl
00006976  E583              in eax,0x83
00006978  EC                in al,dx
00006979  28C7              sub bh,al
0000697B  45                inc ebp
0000697C  F4                hlt
0000697D  0003              add [ebx],al
0000697F  0000              add [eax],al
00006981  EB7C              jmp short 0x69ff
00006983  E8A4F2FFFF        call dword 0x5c2c
00006988  8945EC            mov [ebp-0x14],eax
0000698B  837DEC00          cmp dword [ebp-0x14],byte +0x0
0000698F  752A              jnz 0x69bb
00006991  FA                cli
00006992  C744240831290100  mov dword [esp+0x8],0x12931
0000699A  C7442404C4280100  mov dword [esp+0x4],0x128c4
000069A2  C70424CF280100    mov dword [esp],0x128cf
000069A9  E816AEFFFF        call dword 0x17c4
000069AE  C70424DF280100    mov dword [esp],0x128df
000069B5  E80AAEFFFF        call dword 0x17c4
000069BA  F4                hlt
000069BB  8B45F4            mov eax,[ebp-0xc]
000069BE  89442404          mov [esp+0x4],eax
000069C2  8B45EC            mov eax,[ebp-0x14]
000069C5  890424            mov [esp],eax
000069C8  E8BBF3FFFF        call dword 0x5d88
000069CD  85C0              test eax,eax
000069CF  742A              jz 0x69fb
000069D1  FA                cli
000069D2  C744240831290100  mov dword [esp+0x8],0x12931
000069DA  C7442404C4280100  mov dword [esp+0x4],0x128c4
000069E2  C70424CF280100    mov dword [esp],0x128cf
000069E9  E8D6ADFFFF        call dword 0x17c4
000069EE  C70424F7280100    mov dword [esp],0x128f7
000069F5  E8CAADFFFF        call dword 0x17c4
000069FA  F4                hlt
000069FB  8345F401          add dword [ebp-0xc],byte +0x1
000069FF  817DF484030000    cmp dword [ebp-0xc],0x384
00006A06  0F8677FFFFFF      jna dword 0x6983
00006A0C  C745F000000000    mov dword [ebp-0x10],0x0
00006A13  EB1B              jmp short 0x6a30
00006A15  8B15B84C0100      mov edx,[dword 0x14cb8]
00006A1B  8B45F0            mov eax,[ebp-0x10]
00006A1E  69C014020000      imul eax,eax,dword 0x214
00006A24  01D0              add eax,edx
00006A26  C70000000000      mov dword [eax],0x0
00006A2C  8345F001          add dword [ebp-0x10],byte +0x1
00006A30  817DF0FF030000    cmp dword [ebp-0x10],0x3ff
00006A37  76DC              jna 0x6a15
00006A39  C9                leave
00006A3A  C3                ret
00006A3B  55                push ebp
00006A3C  89E5              mov ebp,esp
00006A3E  83EC38            sub esp,byte +0x38
00006A41  8B4508            mov eax,[ebp+0x8]
00006A44  25FF030000        and eax,0x3ff
00006A49  8945F4            mov [ebp-0xc],eax
00006A4C  8B15B84C0100      mov edx,[dword 0x14cb8]
00006A52  8B45F4            mov eax,[ebp-0xc]
00006A55  69C014020000      imul eax,eax,dword 0x214
00006A5B  01D0              add eax,edx
00006A5D  8945F0            mov [ebp-0x10],eax
00006A60  8B45F0            mov eax,[ebp-0x10]
00006A63  8B00              mov eax,[eax]
00006A65  85C0              test eax,eax
00006A67  740F              jz 0x6a78
00006A69  8B45F0            mov eax,[ebp-0x10]
00006A6C  8B4004            mov eax,[eax+0x4]
00006A6F  3B4508            cmp eax,[ebp+0x8]
00006A72  0F8495000000      jz dword 0x6b0d
00006A78  8B45F0            mov eax,[ebp-0x10]
00006A7B  8B00              mov eax,[eax]
00006A7D  85C0              test eax,eax
00006A7F  7419              jz 0x6a9a
00006A81  8B45F0            mov eax,[ebp-0x10]
00006A84  890424            mov [esp],eax
00006A87  E81F020000        call dword 0x6cab
00006A8C  85C0              test eax,eax
00006A8E  740A              jz 0x6a9a
00006A90  B8FCFFFFFF        mov eax,0xfffffffc
00006A95  E995000000        jmp dword 0x6b2f
00006A9A  8B45F0            mov eax,[ebp-0x10]
00006A9D  C70000000000      mov dword [eax],0x0
00006AA3  8B45F0            mov eax,[ebp-0x10]
00006AA6  8D5014            lea edx,[eax+0x14]
00006AA9  C744241000000000  mov dword [esp+0x10],0x0
00006AB1  8B4508            mov eax,[ebp+0x8]
00006AB4  8944240C          mov [esp+0xc],eax
00006AB8  89542408          mov [esp+0x8],edx
00006ABC  C744240400000000  mov dword [esp+0x4],0x0
00006AC4  C7042400000000    mov dword [esp],0x0
00006ACB  E830FCFFFF        call dword 0x6700
00006AD0  85C0              test eax,eax
00006AD2  7407              jz 0x6adb
00006AD4  B8FCFFFFFF        mov eax,0xfffffffc
00006AD9  EB54              jmp short 0x6b2f
00006ADB  8B45F0            mov eax,[ebp-0x10]
00006ADE  C70001000000      mov dword [eax],0x1
00006AE4  8B45F0            mov eax,[ebp-0x10]
00006AE7  8B5508            mov edx,[ebp+0x8]
00006AEA  895004            mov [eax+0x4],edx
00006AED  8B45F0            mov eax,[ebp-0x10]
00006AF0  C7400800000000    mov dword [eax+0x8],0x0
00006AF7  8B45F0            mov eax,[ebp-0x10]
00006AFA  C7401000000000    mov dword [eax+0x10],0x0
00006B01  8B45F0            mov eax,[ebp-0x10]
00006B04  8B5010            mov edx,[eax+0x10]
00006B07  8B45F0            mov eax,[ebp-0x10]
00006B0A  89500C            mov [eax+0xc],edx
00006B0D  8B45F0            mov eax,[ebp-0x10]
00006B10  83C014            add eax,byte +0x14
00006B13  C744240800020000  mov dword [esp+0x8],0x200
00006B1B  89442404          mov [esp+0x4],eax
00006B1F  8B450C            mov eax,[ebp+0xc]
00006B22  890424            mov [esp],eax
00006B25  E8E6A7FFFF        call dword 0x1310
00006B2A  B800000000        mov eax,0x0
00006B2F  C9                leave
00006B30  C3                ret
00006B31  55                push ebp
00006B32  89E5              mov ebp,esp
00006B34  83EC28            sub esp,byte +0x28
00006B37  8B4508            mov eax,[ebp+0x8]
00006B3A  25FF030000        and eax,0x3ff
00006B3F  8945F4            mov [ebp-0xc],eax
00006B42  8B15B84C0100      mov edx,[dword 0x14cb8]
00006B48  8B45F4            mov eax,[ebp-0xc]
00006B4B  69C014020000      imul eax,eax,dword 0x214
00006B51  01D0              add eax,edx
00006B53  8945F0            mov [ebp-0x10],eax
00006B56  A1A0EE0300        mov eax,[0x3eea0]
00006B5B  85C0              test eax,eax
00006B5D  740A              jz 0x6b69
00006B5F  A1A0EE0300        mov eax,[0x3eea0]
00006B64  8B400C            mov eax,[eax+0xc]
00006B67  EB05              jmp short 0x6b6e
00006B69  B800000000        mov eax,0x0
00006B6E  8945EC            mov [ebp-0x14],eax
00006B71  8B45F0            mov eax,[ebp-0x10]
00006B74  8B00              mov eax,[eax]
00006B76  85C0              test eax,eax
00006B78  740B              jz 0x6b85
00006B7A  8B45F0            mov eax,[ebp-0x10]
00006B7D  8B4004            mov eax,[eax+0x4]
00006B80  3B4508            cmp eax,[ebp+0x8]
00006B83  743E              jz 0x6bc3
00006B85  8B45F0            mov eax,[ebp-0x10]
00006B88  8B00              mov eax,[eax]
00006B8A  85C0              test eax,eax
00006B8C  7419              jz 0x6ba7
00006B8E  8B45F0            mov eax,[ebp-0x10]
00006B91  890424            mov [esp],eax
00006B94  E812010000        call dword 0x6cab
00006B99  85C0              test eax,eax
00006B9B  740A              jz 0x6ba7
00006B9D  B8FCFFFFFF        mov eax,0xfffffffc
00006BA2  E902010000        jmp dword 0x6ca9
00006BA7  8B45F0            mov eax,[ebp-0x10]
00006BAA  C70001000000      mov dword [eax],0x1
00006BB0  8B45F0            mov eax,[ebp-0x10]
00006BB3  8B5508            mov edx,[ebp+0x8]
00006BB6  895004            mov [eax+0x4],edx
00006BB9  8B45F0            mov eax,[ebp-0x10]
00006BBC  C7400800000000    mov dword [eax+0x8],0x0
00006BC3  8B45F0            mov eax,[ebp-0x10]
00006BC6  8D5014            lea edx,[eax+0x14]
00006BC9  C744240800020000  mov dword [esp+0x8],0x200
00006BD1  8B450C            mov eax,[ebp+0xc]
00006BD4  89442404          mov [esp+0x4],eax
00006BD8  891424            mov [esp],edx
00006BDB  E830A7FFFF        call dword 0x1310
00006BE0  8B45F0            mov eax,[ebp-0x10]
00006BE3  8B4008            mov eax,[eax+0x8]
00006BE6  85C0              test eax,eax
00006BE8  7565              jnz 0x6c4f
00006BEA  8B45F0            mov eax,[ebp-0x10]
00006BED  C7400801000000    mov dword [eax+0x8],0x1
00006BF4  837DEC00          cmp dword [ebp-0x14],byte +0x0
00006BF8  742B              jz 0x6c25
00006BFA  8B45F0            mov eax,[ebp-0x10]
00006BFD  8B55EC            mov edx,[ebp-0x14]
00006C00  89500C            mov [eax+0xc],edx
00006C03  8B15A0EE0300      mov edx,[dword 0x3eea0]
00006C09  8B45F0            mov eax,[ebp-0x10]
00006C0C  895010            mov [eax+0x10],edx
00006C0F  8B45EC            mov eax,[ebp-0x14]
00006C12  8B55F0            mov edx,[ebp-0x10]
00006C15  895010            mov [eax+0x10],edx
00006C18  A1A0EE0300        mov eax,[0x3eea0]
00006C1D  8B55F0            mov edx,[ebp-0x10]
00006C20  89500C            mov [eax+0xc],edx
00006C23  EB1D              jmp short 0x6c42
00006C25  8B45F0            mov eax,[ebp-0x10]
00006C28  A3A0EE0300        mov [0x3eea0],eax
00006C2D  8B45F0            mov eax,[ebp-0x10]
00006C30  8B55F0            mov edx,[ebp-0x10]
00006C33  895010            mov [eax+0x10],edx
00006C36  8B45F0            mov eax,[ebp-0x10]
00006C39  8B5010            mov edx,[eax+0x10]
00006C3C  8B45F0            mov eax,[ebp-0x10]
00006C3F  89500C            mov [eax+0xc],edx
00006C42  A1A4EE0300        mov eax,[0x3eea4]
00006C47  83C001            add eax,byte +0x1
00006C4A  A3A4EE0300        mov [0x3eea4],eax
00006C4F  A1A4EE0300        mov eax,[0x3eea4]
00006C54  83F804            cmp eax,byte +0x4
00006C57  764B              jna 0x6ca4
00006C59  A1A0EE0300        mov eax,[0x3eea0]
00006C5E  85C0              test eax,eax
00006C60  752A              jnz 0x6c8c
00006C62  FA                cli
00006C63  C744240825290100  mov dword [esp+0x8],0x12925
00006C6B  C7442404C4280100  mov dword [esp+0x4],0x128c4
00006C73  C70424CF280100    mov dword [esp],0x128cf
00006C7A  E845ABFFFF        call dword 0x17c4
00006C7F  C704240B290100    mov dword [esp],0x1290b
00006C86  E839ABFFFF        call dword 0x17c4
00006C8B  F4                hlt
00006C8C  A1A0EE0300        mov eax,[0x3eea0]
00006C91  890424            mov [esp],eax
00006C94  E812000000        call dword 0x6cab
00006C99  85C0              test eax,eax
00006C9B  7407              jz 0x6ca4
00006C9D  B8FCFFFFFF        mov eax,0xfffffffc
00006CA2  EB05              jmp short 0x6ca9
00006CA4  B800000000        mov eax,0x0
00006CA9  C9                leave
00006CAA  C3                ret
00006CAB  55                push ebp
00006CAC  89E5              mov ebp,esp
00006CAE  83EC28            sub esp,byte +0x28
00006CB1  8B4508            mov eax,[ebp+0x8]
00006CB4  8B00              mov eax,[eax]
00006CB6  85C0              test eax,eax
00006CB8  750A              jnz 0x6cc4
00006CBA  B8FEFFFFFF        mov eax,0xfffffffe
00006CBF  E9BA000000        jmp dword 0x6d7e
00006CC4  8B4508            mov eax,[ebp+0x8]
00006CC7  8B4008            mov eax,[eax+0x8]
00006CCA  85C0              test eax,eax
00006CCC  0F84A7000000      jz dword 0x6d79
00006CD2  8B4508            mov eax,[ebp+0x8]
00006CD5  8B4004            mov eax,[eax+0x4]
00006CD8  8B5508            mov edx,[ebp+0x8]
00006CDB  83C214            add edx,byte +0x14
00006CDE  C744241001000000  mov dword [esp+0x10],0x1
00006CE6  8944240C          mov [esp+0xc],eax
00006CEA  89542408          mov [esp+0x8],edx
00006CEE  C744240400000000  mov dword [esp+0x4],0x0
00006CF6  C7042400000000    mov dword [esp],0x0
00006CFD  E8FEF9FFFF        call dword 0x6700
00006D02  85C0              test eax,eax
00006D04  7407              jz 0x6d0d
00006D06  B8FCFFFFFF        mov eax,0xfffffffc
00006D0B  EB71              jmp short 0x6d7e
00006D0D  A1A0EE0300        mov eax,[0x3eea0]
00006D12  394508            cmp [ebp+0x8],eax
00006D15  7522              jnz 0x6d39
00006D17  8B4508            mov eax,[ebp+0x8]
00006D1A  8B4010            mov eax,[eax+0x10]
00006D1D  3B4508            cmp eax,[ebp+0x8]
00006D20  750C              jnz 0x6d2e
00006D22  C705A0EE03000000  mov dword [dword 0x3eea0],0x0
         -0000
00006D2C  EB0B              jmp short 0x6d39
00006D2E  8B4508            mov eax,[ebp+0x8]
00006D31  8B4010            mov eax,[eax+0x10]
00006D34  A3A0EE0300        mov [0x3eea0],eax
00006D39  8B4508            mov eax,[ebp+0x8]
00006D3C  8B4010            mov eax,[eax+0x10]
00006D3F  3B4508            cmp eax,[ebp+0x8]
00006D42  741E              jz 0x6d62
00006D44  8B4508            mov eax,[ebp+0x8]
00006D47  8B4010            mov eax,[eax+0x10]
00006D4A  8B5508            mov edx,[ebp+0x8]
00006D4D  8B520C            mov edx,[edx+0xc]
00006D50  89500C            mov [eax+0xc],edx
00006D53  8B4508            mov eax,[ebp+0x8]
00006D56  8B400C            mov eax,[eax+0xc]
00006D59  8B5508            mov edx,[ebp+0x8]
00006D5C  8B5210            mov edx,[edx+0x10]
00006D5F  895010            mov [eax+0x10],edx
00006D62  8B4508            mov eax,[ebp+0x8]
00006D65  C7400800000000    mov dword [eax+0x8],0x0
00006D6C  A1A4EE0300        mov eax,[0x3eea4]
00006D71  83E801            sub eax,byte +0x1
00006D74  A3A4EE0300        mov [0x3eea4],eax
00006D79  B800000000        mov eax,0x0
00006D7E  C9                leave
00006D7F  C3                ret
00006D80  55                push ebp
00006D81  89E5              mov ebp,esp
00006D83  83EC28            sub esp,byte +0x28
00006D86  C745F400000000    mov dword [ebp-0xc],0x0
00006D8D  EB41              jmp short 0x6dd0
00006D8F  8B15B84C0100      mov edx,[dword 0x14cb8]
00006D95  8B45F4            mov eax,[ebp-0xc]
00006D98  69C014020000      imul eax,eax,dword 0x214
00006D9E  01D0              add eax,edx
00006DA0  8945F0            mov [ebp-0x10],eax
00006DA3  8B45F0            mov eax,[ebp-0x10]
00006DA6  8B00              mov eax,[eax]
00006DA8  85C0              test eax,eax
00006DAA  7420              jz 0x6dcc
00006DAC  8B45F0            mov eax,[ebp-0x10]
00006DAF  8B4008            mov eax,[eax+0x8]
00006DB2  85C0              test eax,eax
00006DB4  7416              jz 0x6dcc
00006DB6  8B45F0            mov eax,[ebp-0x10]
00006DB9  890424            mov [esp],eax
00006DBC  E8EAFEFFFF        call dword 0x6cab
00006DC1  85C0              test eax,eax
00006DC3  7407              jz 0x6dcc
00006DC5  B8FCFFFFFF        mov eax,0xfffffffc
00006DCA  EB12              jmp short 0x6dde
00006DCC  8345F401          add dword [ebp-0xc],byte +0x1
00006DD0  817DF4FF030000    cmp dword [ebp-0xc],0x3ff
00006DD7  76B6              jna 0x6d8f
00006DD9  B800000000        mov eax,0x0
00006DDE  C9                leave
00006DDF  C3                ret
00006DE0  55                push ebp
00006DE1  89E5              mov ebp,esp
00006DE3  83EC28            sub esp,byte +0x28
00006DE6  C745F400000000    mov dword [ebp-0xc],0x0
00006DED  8B4510            mov eax,[ebp+0x10]
00006DF0  C1E809            shr eax,0x9
00006DF3  8945F0            mov [ebp-0x10],eax
00006DF6  837D1400          cmp dword [ebp+0x14],byte +0x0
00006DFA  7407              jz 0x6e03
00006DFC  B831EB0000        mov eax,0xeb31
00006E01  EB05              jmp short 0x6e08
00006E03  B83BEA0000        mov eax,0xea3b
00006E08  8945EC            mov [ebp-0x14],eax
00006E0B  8B4510            mov eax,[ebp+0x10]
00006E0E  25FF010000        and eax,0x1ff
00006E13  85C0              test eax,eax
00006E15  0F84EF000000      jz dword 0x6f0a
00006E1B  C7442404E0F00300  mov dword [esp+0x4],0x3f0e0
00006E23  8B45F0            mov eax,[ebp-0x10]
00006E26  890424            mov [esp],eax
00006E29  E80DFCFFFF        call dword 0x6a3b
00006E2E  85C0              test eax,eax
00006E30  740A              jz 0x6e3c
00006E32  B8FCFFFFFF        mov eax,0xfffffffc
00006E37  E982010000        jmp dword 0x6fbe
00006E3C  8B4510            mov eax,[ebp+0x10]
00006E3F  89C2              mov edx,eax
00006E41  81E2FF010000      and edx,0x1ff
00006E47  B800020000        mov eax,0x200
00006E4C  89C1              mov ecx,eax
00006E4E  29D1              sub ecx,edx
00006E50  89CA              mov edx,ecx
00006E52  8B450C            mov eax,[ebp+0xc]
00006E55  39C2              cmp edx,eax
00006E57  0F46C2            cmovna eax,edx
00006E5A  8945E8            mov [ebp-0x18],eax
00006E5D  837D1400          cmp dword [ebp+0x14],byte +0x0
00006E61  7445              jz 0x6ea8
00006E63  8B4510            mov eax,[ebp+0x10]
00006E66  25FF010000        and eax,0x1ff
00006E6B  8D90E0F00300      lea edx,[eax+0x3f0e0]
00006E71  8B45E8            mov eax,[ebp-0x18]
00006E74  89442408          mov [esp+0x8],eax
00006E78  8B4508            mov eax,[ebp+0x8]
00006E7B  89442404          mov [esp+0x4],eax
00006E7F  891424            mov [esp],edx
00006E82  E889A4FFFF        call dword 0x1310
00006E87  C7442404E0F00300  mov dword [esp+0x4],0x3f0e0
00006E8F  8B45F0            mov eax,[ebp-0x10]
00006E92  890424            mov [esp],eax
00006E95  E897FCFFFF        call dword 0x6b31
00006E9A  85C0              test eax,eax
00006E9C  742E              jz 0x6ecc
00006E9E  B8FCFFFFFF        mov eax,0xfffffffc
00006EA3  E916010000        jmp dword 0x6fbe
00006EA8  8B4510            mov eax,[ebp+0x10]
00006EAB  25FF010000        and eax,0x1ff
00006EB0  8D90E0F00300      lea edx,[eax+0x3f0e0]
00006EB6  8B45E8            mov eax,[ebp-0x18]
00006EB9  89442408          mov [esp+0x8],eax
00006EBD  89542404          mov [esp+0x4],edx
00006EC1  8B4508            mov eax,[ebp+0x8]
00006EC4  890424            mov [esp],eax
00006EC7  E844A4FFFF        call dword 0x1310
00006ECC  8B45E8            mov eax,[ebp-0x18]
00006ECF  8945F4            mov [ebp-0xc],eax
00006ED2  8345F001          add dword [ebp-0x10],byte +0x1
00006ED6  EB32              jmp short 0x6f0a
00006ED8  8B45F4            mov eax,[ebp-0xc]
00006EDB  8B5508            mov edx,[ebp+0x8]
00006EDE  01D0              add eax,edx
00006EE0  89442404          mov [esp+0x4],eax
00006EE4  8B45F0            mov eax,[ebp-0x10]
00006EE7  890424            mov [esp],eax
00006EEA  8B45EC            mov eax,[ebp-0x14]
00006EED  FFD0              call eax
00006EEF  85C0              test eax,eax
00006EF1  740A              jz 0x6efd
00006EF3  B8FCFFFFFF        mov eax,0xfffffffc
00006EF8  E9C1000000        jmp dword 0x6fbe
00006EFD  8145F400020000    add dword [ebp-0xc],0x200
00006F04  8345F001          add dword [ebp-0x10],byte +0x1
00006F08  EB01              jmp short 0x6f0b
00006F0A  90                nop
00006F0B  8B45F4            mov eax,[ebp-0xc]
00006F0E  8B550C            mov edx,[ebp+0xc]
00006F11  89D1              mov ecx,edx
00006F13  29C1              sub ecx,eax
00006F15  89C8              mov eax,ecx
00006F17  3DFF010000        cmp eax,0x1ff
00006F1C  77BA              ja 0x6ed8
00006F1E  8B45F4            mov eax,[ebp-0xc]
00006F21  3B450C            cmp eax,[ebp+0xc]
00006F24  0F838F000000      jnc dword 0x6fb9
00006F2A  8B45F4            mov eax,[ebp-0xc]
00006F2D  8B550C            mov edx,[ebp+0xc]
00006F30  89D1              mov ecx,edx
00006F32  29C1              sub ecx,eax
00006F34  89C8              mov eax,ecx
00006F36  8945E8            mov [ebp-0x18],eax
00006F39  C7442404E0F00300  mov dword [esp+0x4],0x3f0e0
00006F41  8B45F0            mov eax,[ebp-0x10]
00006F44  890424            mov [esp],eax
00006F47  E8EFFAFFFF        call dword 0x6a3b
00006F4C  85C0              test eax,eax
00006F4E  7407              jz 0x6f57
00006F50  B8FCFFFFFF        mov eax,0xfffffffc
00006F55  EB67              jmp short 0x6fbe
00006F57  837D1400          cmp dword [ebp+0x14],byte +0x0
00006F5B  743D              jz 0x6f9a
00006F5D  8B45F4            mov eax,[ebp-0xc]
00006F60  8B5508            mov edx,[ebp+0x8]
00006F63  01C2              add edx,eax
00006F65  8B45E8            mov eax,[ebp-0x18]
00006F68  89442408          mov [esp+0x8],eax
00006F6C  89542404          mov [esp+0x4],edx
00006F70  C70424E0F00300    mov dword [esp],0x3f0e0
00006F77  E894A3FFFF        call dword 0x1310
00006F7C  C7442404E0F00300  mov dword [esp+0x4],0x3f0e0
00006F84  8B45F0            mov eax,[ebp-0x10]
00006F87  890424            mov [esp],eax
00006F8A  E8A2FBFFFF        call dword 0x6b31
00006F8F  85C0              test eax,eax
00006F91  7426              jz 0x6fb9
00006F93  B8FCFFFFFF        mov eax,0xfffffffc
00006F98  EB24              jmp short 0x6fbe
00006F9A  8B45F4            mov eax,[ebp-0xc]
00006F9D  8B5508            mov edx,[ebp+0x8]
00006FA0  01C2              add edx,eax
00006FA2  8B45E8            mov eax,[ebp-0x18]
00006FA5  89442408          mov [esp+0x8],eax
00006FA9  C7442404E0F00300  mov dword [esp+0x4],0x3f0e0
00006FB1  891424            mov [esp],edx
00006FB4  E857A3FFFF        call dword 0x1310
00006FB9  B800000000        mov eax,0x0
00006FBE  C9                leave
00006FBF  C3                ret
00006FC0  55                push ebp
00006FC1  89E5              mov ebp,esp
00006FC3  83EC18            sub esp,byte +0x18
00006FC6  C744240C00000000  mov dword [esp+0xc],0x0
00006FCE  8B4510            mov eax,[ebp+0x10]
00006FD1  89442408          mov [esp+0x8],eax
00006FD5  8B450C            mov eax,[ebp+0xc]
00006FD8  89442404          mov [esp+0x4],eax
00006FDC  8B4508            mov eax,[ebp+0x8]
00006FDF  890424            mov [esp],eax
00006FE2  E8F9FDFFFF        call dword 0x6de0
00006FE7  C9                leave
00006FE8  C3                ret
00006FE9  55                push ebp
00006FEA  89E5              mov ebp,esp
00006FEC  83EC18            sub esp,byte +0x18
00006FEF  C744240C01000000  mov dword [esp+0xc],0x1
00006FF7  8B4510            mov eax,[ebp+0x10]
00006FFA  89442408          mov [esp+0x8],eax
00006FFE  8B450C            mov eax,[ebp+0xc]
00007001  89442404          mov [esp+0x4],eax
00007005  8B4508            mov eax,[ebp+0x8]
00007008  890424            mov [esp],eax
0000700B  E8D0FDFFFF        call dword 0x6de0
00007010  C9                leave
00007011  C3                ret
00007012  0000              add [eax],al
00007014  55                push ebp
00007015  89E5              mov ebp,esp
00007017  83EC28            sub esp,byte +0x28
0000701A  C744240800000000  mov dword [esp+0x8],0x0
00007022  C744240400020000  mov dword [esp+0x4],0x200
0000702A  C7042440F50300    mov dword [esp],0x3f540
00007031  E88AFFFFFF        call dword 0x6fc0
00007036  85C0              test eax,eax
00007038  742A              jz 0x7064
0000703A  FA                cli
0000703B  C7442408BC2B0100  mov dword [esp+0x8],0x12bbc
00007043  C74424043C290100  mov dword [esp+0x4],0x1293c
0000704B  C7042447290100    mov dword [esp],0x12947
00007052  E86DA7FFFF        call dword 0x17c4
00007057  C7042458290100    mov dword [esp],0x12958
0000705E  E861A7FFFF        call dword 0x17c4
00007063  F4                hlt
00007064  0FB70570F50300    movzx eax,word [dword 0x3f570]
0000706B  0FB7C0            movzx eax,ax
0000706E  C1E009            shl eax,0x9
00007071  89442408          mov [esp+0x8],eax
00007075  C744240400020000  mov dword [esp+0x4],0x200
0000707D  C7042400F30300    mov dword [esp],0x3f300
00007084  E837FFFFFF        call dword 0x6fc0
00007089  85C0              test eax,eax
0000708B  742A              jz 0x70b7
0000708D  FA                cli
0000708E  C7442408BC2B0100  mov dword [esp+0x8],0x12bbc
00007096  C74424043C290100  mov dword [esp+0x4],0x1293c
0000709E  C7042447290100    mov dword [esp],0x12947
000070A5  E81AA7FFFF        call dword 0x17c4
000070AA  C7042478290100    mov dword [esp],0x12978
000070B1  E80EA7FFFF        call dword 0x17c4
000070B6  F4                hlt
000070B7  0FB7054EF50300    movzx eax,word [dword 0x3f54e]
000070BE  0FB7C0            movzx eax,ax
000070C1  C1E009            shl eax,0x9
000070C4  89442408          mov [esp+0x8],eax
000070C8  C744240400020000  mov dword [esp+0x4],0x200
000070D0  C7042460F70300    mov dword [esp],0x3f760
000070D7  E8E4FEFFFF        call dword 0x6fc0
000070DC  85C0              test eax,eax
000070DE  742A              jz 0x710a
000070E0  FA                cli
000070E1  C7442408BC2B0100  mov dword [esp+0x8],0x12bbc
000070E9  C74424043C290100  mov dword [esp+0x4],0x1293c
000070F1  C7042447290100    mov dword [esp],0x12947
000070F8  E8C7A6FFFF        call dword 0x17c4
000070FD  C7042498290100    mov dword [esp],0x12998
00007104  E8BBA6FFFF        call dword 0x17c4
00007109  F4                hlt
0000710A  C70528F503000000  mov dword [dword 0x3f528],0x0
         -0000
00007114  C705E0F203000000  mov dword [dword 0x3f2e0],0x0
         -0000
0000711E  0FB6054DF50300    movzx eax,byte [dword 0x3f54d]
00007125  0FB6C0            movzx eax,al
00007128  C1E009            shl eax,0x9
0000712B  A340F70300        mov [0x3f740],eax
00007130  0FB7054EF50300    movzx eax,word [dword 0x3f54e]
00007137  0FB7D0            movzx edx,ax
0000713A  0FB60550F50300    movzx eax,byte [dword 0x3f550]
00007141  0FB6C8            movzx ecx,al
00007144  A164F50300        mov eax,[0x3f564]
00007149  0FAFC1            imul eax,ecx
0000714C  8D0C02            lea ecx,[edx+eax]
0000714F  0FB70551F50300    movzx eax,word [dword 0x3f551]
00007156  0FB7C0            movzx eax,ax
00007159  C1E005            shl eax,0x5
0000715C  05FF010000        add eax,0x1ff
00007161  8D90FF010000      lea edx,[eax+0x1ff]
00007167  85C0              test eax,eax
00007169  0F48C2            cmovs eax,edx
0000716C  C1F809            sar eax,0x9
0000716F  01C8              add eax,ecx
00007171  A360F90300        mov [0x3f960],eax
00007176  8B1560F50300      mov edx,[dword 0x3f560]
0000717C  A160F90300        mov eax,[0x3f960]
00007181  89D1              mov ecx,edx
00007183  29C1              sub ecx,eax
00007185  89C8              mov eax,ecx
00007187  0FB6154DF50300    movzx edx,byte [dword 0x3f54d]
0000718E  0FB6D2            movzx edx,dl
00007191  8955F4            mov [ebp-0xc],edx
00007194  BA00000000        mov edx,0x0
00007199  F775F4            div dword [ebp-0xc]
0000719C  A364F90300        mov [0x3f964],eax
000071A1  C70500F503000000  mov dword [dword 0x3f500],0x0
         -0000
000071AB  C70504F503000000  mov dword [dword 0x3f504],0x0
         -0000
000071B5  C60513F5030010    mov byte [dword 0x3f513],0x10
000071BC  C60515F5030000    mov byte [dword 0x3f515],0x0
000071C3  66C70516F5030000  mov word [dword 0x3f516],0x0
         -00
000071CC  66C70518F5030000  mov word [dword 0x3f518],0x0
         -00
000071D5  66C7051AF5030000  mov word [dword 0x3f51a],0x0
         -00
000071DE  A16CF50300        mov eax,[0x3f56c]
000071E3  C1E810            shr eax,0x10
000071E6  66A31CF50300      mov [0x3f51c],ax
000071EC  66C7051EF5030000  mov word [dword 0x3f51e],0x0
         -00
000071F5  66C70520F5030000  mov word [dword 0x3f520],0x0
         -00
000071FE  A16CF50300        mov eax,[0x3f56c]
00007203  66A322F50300      mov [0x3f522],ax
00007209  C70524F503000000  mov dword [dword 0x3f524],0x0
         -0000
00007213  A164F90300        mov eax,[0x3f964]
00007218  85C0              test eax,eax
0000721A  752A              jnz 0x7246
0000721C  FA                cli
0000721D  C7442408BC2B0100  mov dword [esp+0x8],0x12bbc
00007225  C74424043C290100  mov dword [esp+0x4],0x1293c
0000722D  C7042447290100    mov dword [esp],0x12947
00007234  E88BA5FFFF        call dword 0x17c4
00007239  C70424C3290100    mov dword [esp],0x129c3
00007240  E87FA5FFFF        call dword 0x17c4
00007245  F4                hlt
00007246  C9                leave
00007247  C3                ret
00007248  55                push ebp
00007249  89E5              mov ebp,esp
0000724B  83EC28            sub esp,byte +0x28
0000724E  A128F50300        mov eax,[0x3f528]
00007253  89442404          mov [esp+0x4],eax
00007257  C70424DC290100    mov dword [esp],0x129dc
0000725E  E861A5FFFF        call dword 0x17c4
00007263  C745F400000000    mov dword [ebp-0xc],0x0
0000726A  EB50              jmp short 0x72bc
0000726C  0FB7054EF50300    movzx eax,word [dword 0x3f54e]
00007273  0FB7D0            movzx edx,ax
00007276  A164F50300        mov eax,[0x3f564]
0000727B  0FAF45F4          imul eax,[ebp-0xc]
0000727F  01C2              add edx,eax
00007281  A128F50300        mov eax,[0x3f528]
00007286  01D0              add eax,edx
00007288  C1E009            shl eax,0x9
0000728B  89442408          mov [esp+0x8],eax
0000728F  C744240400020000  mov dword [esp+0x4],0x200
00007297  C7042460F70300    mov dword [esp],0x3f760
0000729E  E846FDFFFF        call dword 0x6fe9
000072A3  85C0              test eax,eax
000072A5  7407              jz 0x72ae
000072A7  B8FCFFFFFF        mov eax,0xfffffffc
000072AC  EB52              jmp short 0x7300
000072AE  C705E0F203000000  mov dword [dword 0x3f2e0],0x0
         -0000
000072B8  8345F401          add dword [ebp-0xc],byte +0x1
000072BC  0FB60550F50300    movzx eax,byte [dword 0x3f550]
000072C3  0FB6C0            movzx eax,al
000072C6  3B45F4            cmp eax,[ebp-0xc]
000072C9  77A1              ja 0x726c
000072CB  0FB70570F50300    movzx eax,word [dword 0x3f570]
000072D2  0FB7C0            movzx eax,ax
000072D5  C1E009            shl eax,0x9
000072D8  89442408          mov [esp+0x8],eax
000072DC  C744240400020000  mov dword [esp+0x4],0x200
000072E4  C7042400F30300    mov dword [esp],0x3f300
000072EB  E8F9FCFFFF        call dword 0x6fe9
000072F0  85C0              test eax,eax
000072F2  7407              jz 0x72fb
000072F4  B8FCFFFFFF        mov eax,0xfffffffc
000072F9  EB05              jmp short 0x7300
000072FB  B800000000        mov eax,0x0
00007300  C9                leave
00007301  C3                ret
00007302  55                push ebp
00007303  89E5              mov ebp,esp
00007305  83EC28            sub esp,byte +0x28
00007308  A1E0F20300        mov eax,[0x3f2e0]
0000730D  85C0              test eax,eax
0000730F  745E              jz 0x736f
00007311  C745F400000000    mov dword [ebp-0xc],0x0
00007318  EB46              jmp short 0x7360
0000731A  0FB7054EF50300    movzx eax,word [dword 0x3f54e]
00007321  0FB7D0            movzx edx,ax
00007324  A164F50300        mov eax,[0x3f564]
00007329  0FAF45F4          imul eax,[ebp-0xc]
0000732D  01C2              add edx,eax
0000732F  A128F50300        mov eax,[0x3f528]
00007334  01D0              add eax,edx
00007336  C1E009            shl eax,0x9
00007339  89442408          mov [esp+0x8],eax
0000733D  C744240400020000  mov dword [esp+0x4],0x200
00007345  C7042460F70300    mov dword [esp],0x3f760
0000734C  E898FCFFFF        call dword 0x6fe9
00007351  85C0              test eax,eax
00007353  7407              jz 0x735c
00007355  B8FCFFFFFF        mov eax,0xfffffffc
0000735A  EB53              jmp short 0x73af
0000735C  8345F401          add dword [ebp-0xc],byte +0x1
00007360  0FB60550F50300    movzx eax,byte [dword 0x3f550]
00007367  0FB6C0            movzx eax,al
0000736A  3B45F4            cmp eax,[ebp-0xc]
0000736D  77AB              ja 0x731a
0000736F  0FB7054EF50300    movzx eax,word [dword 0x3f54e]
00007376  0FB7C0            movzx eax,ax
00007379  034508            add eax,[ebp+0x8]
0000737C  C1E009            shl eax,0x9
0000737F  89442408          mov [esp+0x8],eax
00007383  C744240400020000  mov dword [esp+0x4],0x200
0000738B  C7042460F70300    mov dword [esp],0x3f760
00007392  E829FCFFFF        call dword 0x6fc0
00007397  85C0              test eax,eax
00007399  7407              jz 0x73a2
0000739B  B8FCFFFFFF        mov eax,0xfffffffc
000073A0  EB0D              jmp short 0x73af
000073A2  8B4508            mov eax,[ebp+0x8]
000073A5  A328F50300        mov [0x3f528],eax
000073AA  B800000000        mov eax,0x0
000073AF  C9                leave
000073B0  C3                ret
000073B1  55                push ebp
000073B2  89E5              mov ebp,esp
000073B4  83EC28            sub esp,byte +0x28
000073B7  8B4508            mov eax,[ebp+0x8]
000073BA  C1E807            shr eax,0x7
000073BD  8945F4            mov [ebp-0xc],eax
000073C0  8B4508            mov eax,[ebp+0x8]
000073C3  83E07F            and eax,byte +0x7f
000073C6  8945F0            mov [ebp-0x10],eax
000073C9  A128F50300        mov eax,[0x3f528]
000073CE  3945F4            cmp [ebp-0xc],eax
000073D1  7416              jz 0x73e9
000073D3  8B45F4            mov eax,[ebp-0xc]
000073D6  890424            mov [esp],eax
000073D9  E824FFFFFF        call dword 0x7302
000073DE  85C0              test eax,eax
000073E0  7407              jz 0x73e9
000073E2  B8FCFFFFFF        mov eax,0xfffffffc
000073E7  EB1C              jmp short 0x7405
000073E9  8B45F0            mov eax,[ebp-0x10]
000073EC  8B048560F70300    mov eax,[eax*4+0x3f760]
000073F3  89C2              mov edx,eax
000073F5  81E2FFFFFF0F      and edx,0xfffffff
000073FB  8B450C            mov eax,[ebp+0xc]
000073FE  8910              mov [eax],edx
00007400  B800000000        mov eax,0x0
00007405  C9                leave
00007406  C3                ret
00007407  55                push ebp
00007408  89E5              mov ebp,esp
0000740A  83EC28            sub esp,byte +0x28
0000740D  8B4508            mov eax,[ebp+0x8]
00007410  C1E807            shr eax,0x7
00007413  8945F4            mov [ebp-0xc],eax
00007416  8B4508            mov eax,[ebp+0x8]
00007419  83E07F            and eax,byte +0x7f
0000741C  8945F0            mov [ebp-0x10],eax
0000741F  A128F50300        mov eax,[0x3f528]
00007424  3945F4            cmp [ebp-0xc],eax
00007427  7416              jz 0x743f
00007429  8B45F4            mov eax,[ebp-0xc]
0000742C  890424            mov [esp],eax
0000742F  E8CEFEFFFF        call dword 0x7302
00007434  85C0              test eax,eax
00007436  7407              jz 0x743f
00007438  B8FCFFFFFF        mov eax,0xfffffffc
0000743D  EB1C              jmp short 0x745b
0000743F  8B45F0            mov eax,[ebp-0x10]
00007442  8B550C            mov edx,[ebp+0xc]
00007445  89148560F70300    mov [eax*4+0x3f760],edx
0000744C  C705E0F203000100  mov dword [dword 0x3f2e0],0x1
         -0000
00007456  B800000000        mov eax,0x0
0000745B  C9                leave
0000745C  C3                ret
0000745D  55                push ebp
0000745E  89E5              mov ebp,esp
00007460  83EC38            sub esp,byte +0x38
00007463  C745E800000000    mov dword [ebp-0x18],0x0
0000746A  C745F400000000    mov dword [ebp-0xc],0x0
00007471  C745F000000000    mov dword [ebp-0x10],0x0
00007478  C745EC02000000    mov dword [ebp-0x14],0x2
0000747F  E9E4000000        jmp dword 0x7568
00007484  8D45E4            lea eax,[ebp-0x1c]
00007487  89442404          mov [esp+0x4],eax
0000748B  8B45EC            mov eax,[ebp-0x14]
0000748E  890424            mov [esp],eax
00007491  E81BFFFFFF        call dword 0x73b1
00007496  85C0              test eax,eax
00007498  0F8515010000      jnz dword 0x75b3
0000749E  8B45E4            mov eax,[ebp-0x1c]
000074A1  85C0              test eax,eax
000074A3  0F85BB000000      jnz dword 0x7564
000074A9  C7442404FFFFFF0F  mov dword [esp+0x4],0xfffffff
000074B1  8B45EC            mov eax,[ebp-0x14]
000074B4  890424            mov [esp],eax
000074B7  E84BFFFFFF        call dword 0x7407
000074BC  85C0              test eax,eax
000074BE  0F85F2000000      jnz dword 0x75b6
000074C4  837DF400          cmp dword [ebp-0xc],byte +0x0
000074C8  750B              jnz 0x74d5
000074CA  8B45EC            mov eax,[ebp-0x14]
000074CD  8945F4            mov [ebp-0xc],eax
000074D0  E985000000        jmp dword 0x755a
000074D5  837DF000          cmp dword [ebp-0x10],byte +0x0
000074D9  752A              jnz 0x7505
000074DB  FA                cli
000074DC  C7442408A72B0100  mov dword [esp+0x8],0x12ba7
000074E4  C74424043C290100  mov dword [esp+0x4],0x1293c
000074EC  C7042447290100    mov dword [esp],0x12947
000074F3  E8CCA2FFFF        call dword 0x17c4
000074F8  C70424EA290100    mov dword [esp],0x129ea
000074FF  E8C0A2FFFF        call dword 0x17c4
00007504  F4                hlt
00007505  8B45EC            mov eax,[ebp-0x14]
00007508  89442404          mov [esp+0x4],eax
0000750C  8B45F0            mov eax,[ebp-0x10]
0000750F  890424            mov [esp],eax
00007512  E8F0FEFFFF        call dword 0x7407
00007517  85C0              test eax,eax
00007519  743F              jz 0x755a
0000751B  8B45EC            mov eax,[ebp-0x14]
0000751E  890424            mov [esp],eax
00007521  E8DA000000        call dword 0x7600
00007526  85C0              test eax,eax
00007528  0F848B000000      jz dword 0x75b9
0000752E  FA                cli
0000752F  C7442408A72B0100  mov dword [esp+0x8],0x12ba7
00007537  C74424043C290100  mov dword [esp+0x4],0x1293c
0000753F  C7042447290100    mov dword [esp],0x12947
00007546  E879A2FFFF        call dword 0x17c4
0000754B  C70424F9290100    mov dword [esp],0x129f9
00007552  E86DA2FFFF        call dword 0x17c4
00007557  F4                hlt
00007558  EB5F              jmp short 0x75b9
0000755A  8B45EC            mov eax,[ebp-0x14]
0000755D  8945F0            mov [ebp-0x10],eax
00007560  8345E801          add dword [ebp-0x18],byte +0x1
00007564  8345EC01          add dword [ebp-0x14],byte +0x1
00007568  A164F90300        mov eax,[0x3f964]
0000756D  3945EC            cmp [ebp-0x14],eax
00007570  730C              jnc 0x757e
00007572  8B45E8            mov eax,[ebp-0x18]
00007575  3B4508            cmp eax,[ebp+0x8]
00007578  0F8206FFFFFF      jc dword 0x7484
0000757E  8B45E8            mov eax,[ebp-0x18]
00007581  3B4508            cmp eax,[ebp+0x8]
00007584  730E              jnc 0x7594
00007586  C704240F2A0100    mov dword [esp],0x12a0f
0000758D  E832A2FFFF        call dword 0x17c4
00007592  EB26              jmp short 0x75ba
00007594  A1ECF40300        mov eax,[0x3f4ec]
00007599  034508            add eax,[ebp+0x8]
0000759C  A3ECF40300        mov [0x3f4ec],eax
000075A1  A1E8F40300        mov eax,[0x3f4e8]
000075A6  2B4508            sub eax,[ebp+0x8]
000075A9  A3E8F40300        mov [0x3f4e8],eax
000075AE  8B45F4            mov eax,[ebp-0xc]
000075B1  EB4B              jmp short 0x75fe
000075B3  90                nop
000075B4  EB04              jmp short 0x75ba
000075B6  90                nop
000075B7  EB01              jmp short 0x75ba
000075B9  90                nop
000075BA  837DF400          cmp dword [ebp-0xc],byte +0x0
000075BE  7439              jz 0x75f9
000075C0  8B45F4            mov eax,[ebp-0xc]
000075C3  890424            mov [esp],eax
000075C6  E835000000        call dword 0x7600
000075CB  85C0              test eax,eax
000075CD  742A              jz 0x75f9
000075CF  FA                cli
000075D0  C7442408A72B0100  mov dword [esp+0x8],0x12ba7
000075D8  C74424043C290100  mov dword [esp+0x4],0x1293c
000075E0  C7042447290100    mov dword [esp],0x12947
000075E7  E8D8A1FFFF        call dword 0x17c4
000075EC  C70424242A0100    mov dword [esp],0x12a24
000075F3  E8CCA1FFFF        call dword 0x17c4
000075F8  F4                hlt
000075F9  B800000000        mov eax,0x0
000075FE  C9                leave
000075FF  C3                ret
00007600  55                push ebp
00007601  89E5              mov ebp,esp
00007603  83EC28            sub esp,byte +0x28
00007606  C745F000000000    mov dword [ebp-0x10],0x0
0000760D  837D0801          cmp dword [ebp+0x8],byte +0x1
00007611  7731              ja 0x7644
00007613  FA                cli
00007614  C7442408932B0100  mov dword [esp+0x8],0x12b93
0000761C  C74424043C290100  mov dword [esp+0x4],0x1293c
00007624  C7042447290100    mov dword [esp],0x12947
0000762B  E894A1FFFF        call dword 0x17c4
00007630  8B4508            mov eax,[ebp+0x8]
00007633  89442404          mov [esp+0x4],eax
00007637  C704243D2A0100    mov dword [esp],0x12a3d
0000763E  E881A1FFFF        call dword 0x17c4
00007643  F4                hlt
00007644  8B4508            mov eax,[ebp+0x8]
00007647  89442404          mov [esp+0x4],eax
0000764B  C70424502A0100    mov dword [esp],0x12a50
00007652  E86DA1FFFF        call dword 0x17c4
00007657  8B4508            mov eax,[ebp+0x8]
0000765A  8945F4            mov [ebp-0xc],eax
0000765D  8B45F4            mov eax,[ebp-0xc]
00007660  89442404          mov [esp+0x4],eax
00007664  C70424692A0100    mov dword [esp],0x12a69
0000766B  E854A1FFFF        call dword 0x17c4
00007670  8D45EC            lea eax,[ebp-0x14]
00007673  89442404          mov [esp+0x4],eax
00007677  8B45F4            mov eax,[ebp-0xc]
0000767A  890424            mov [esp],eax
0000767D  E82FFDFFFF        call dword 0x73b1
00007682  85C0              test eax,eax
00007684  7407              jz 0x768d
00007686  B8FCFFFFFF        mov eax,0xfffffffc
0000768B  EB64              jmp short 0x76f1
0000768D  C744240400000000  mov dword [esp+0x4],0x0
00007695  8B45F4            mov eax,[ebp-0xc]
00007698  890424            mov [esp],eax
0000769B  E867FDFFFF        call dword 0x7407
000076A0  85C0              test eax,eax
000076A2  7407              jz 0x76ab
000076A4  B8FCFFFFFF        mov eax,0xfffffffc
000076A9  EB46              jmp short 0x76f1
000076AB  8B45EC            mov eax,[ebp-0x14]
000076AE  8945F4            mov [ebp-0xc],eax
000076B1  8345F001          add dword [ebp-0x10],byte +0x1
000076B5  8B45EC            mov eax,[ebp-0x14]
000076B8  3DF7FFFF0F        cmp eax,0xffffff7
000076BD  769E              jna 0x765d
000076BF  8B45F0            mov eax,[ebp-0x10]
000076C2  89442404          mov [esp+0x4],eax
000076C6  C70424752A0100    mov dword [esp],0x12a75
000076CD  E8F2A0FFFF        call dword 0x17c4
000076D2  A1ECF40300        mov eax,[0x3f4ec]
000076D7  2B45F0            sub eax,[ebp-0x10]
000076DA  A3ECF40300        mov [0x3f4ec],eax
000076DF  A1E8F40300        mov eax,[0x3f4e8]
000076E4  0345F0            add eax,[ebp-0x10]
000076E7  A3E8F40300        mov [0x3f4e8],eax
000076EC  B800000000        mov eax,0x0
000076F1  C9                leave
000076F2  C3                ret
000076F3  55                push ebp
000076F4  89E5              mov ebp,esp
000076F6  83EC28            sub esp,byte +0x28
000076F9  8B4508            mov eax,[ebp+0x8]
000076FC  8945F4            mov [ebp-0xc],eax
000076FF  EB32              jmp short 0x7733
00007701  8D45F0            lea eax,[ebp-0x10]
00007704  89442404          mov [esp+0x4],eax
00007708  8B45F4            mov eax,[ebp-0xc]
0000770B  890424            mov [esp],eax
0000770E  E89EFCFFFF        call dword 0x73b1
00007713  85C0              test eax,eax
00007715  7407              jz 0x771e
00007717  B800000000        mov eax,0x0
0000771C  EB27              jmp short 0x7745
0000771E  8B45F0            mov eax,[ebp-0x10]
00007721  3DF7FFFF0F        cmp eax,0xffffff7
00007726  7605              jna 0x772d
00007728  8B45F0            mov eax,[ebp-0x10]
0000772B  EB18              jmp short 0x7745
0000772D  8B45F0            mov eax,[ebp-0x10]
00007730  8945F4            mov [ebp-0xc],eax
00007733  837D0C00          cmp dword [ebp+0xc],byte +0x0
00007737  0F95C0            setnz al
0000773A  836D0C01          sub dword [ebp+0xc],byte +0x1
0000773E  84C0              test al,al
00007740  75BF              jnz 0x7701
00007742  8B45F4            mov eax,[ebp-0xc]
00007745  C9                leave
00007746  C3                ret
00007747  55                push ebp
00007748  89E5              mov ebp,esp
0000774A  83EC28            sub esp,byte +0x28
0000774D  8B4508            mov eax,[ebp+0x8]
00007750  8945F4            mov [ebp-0xc],eax
00007753  EB29              jmp short 0x777e
00007755  8D45EC            lea eax,[ebp-0x14]
00007758  89442404          mov [esp+0x4],eax
0000775C  8B45F4            mov eax,[ebp-0xc]
0000775F  890424            mov [esp],eax
00007762  E84AFCFFFF        call dword 0x73b1
00007767  85C0              test eax,eax
00007769  7407              jz 0x7772
0000776B  B800000000        mov eax,0x0
00007770  EB18              jmp short 0x778a
00007772  8B45F4            mov eax,[ebp-0xc]
00007775  8945F0            mov [ebp-0x10],eax
00007778  8B45EC            mov eax,[ebp-0x14]
0000777B  8945F4            mov [ebp-0xc],eax
0000777E  817DF4F7FFFF0F    cmp dword [ebp-0xc],0xffffff7
00007785  76CE              jna 0x7755
00007787  8B45F0            mov eax,[ebp-0x10]
0000778A  C9                leave
0000778B  C3                ret
0000778C  55                push ebp
0000778D  89E5              mov ebp,esp
0000778F  83EC18            sub esp,byte +0x18
00007792  A160F90300        mov eax,[0x3f960]
00007797  89C2              mov edx,eax
00007799  C1E209            shl edx,0x9
0000779C  8B4508            mov eax,[ebp+0x8]
0000779F  8D48FE            lea ecx,[eax-0x2]
000077A2  A140F70300        mov eax,[0x3f740]
000077A7  0FAFC1            imul eax,ecx
000077AA  01D0              add eax,edx
000077AC  034514            add eax,[ebp+0x14]
000077AF  89442408          mov [esp+0x8],eax
000077B3  8B4510            mov eax,[ebp+0x10]
000077B6  89442404          mov [esp+0x4],eax
000077BA  8B450C            mov eax,[ebp+0xc]
000077BD  890424            mov [esp],eax
000077C0  E8FBF7FFFF        call dword 0x6fc0
000077C5  C9                leave
000077C6  C3                ret
000077C7  55                push ebp
000077C8  89E5              mov ebp,esp
000077CA  83EC18            sub esp,byte +0x18
000077CD  A160F90300        mov eax,[0x3f960]
000077D2  89C2              mov edx,eax
000077D4  C1E209            shl edx,0x9
000077D7  8B4508            mov eax,[ebp+0x8]
000077DA  8D48FE            lea ecx,[eax-0x2]
000077DD  A140F70300        mov eax,[0x3f740]
000077E2  0FAFC1            imul eax,ecx
000077E5  01D0              add eax,edx
000077E7  034514            add eax,[ebp+0x14]
000077EA  89442408          mov [esp+0x8],eax
000077EE  8B4510            mov eax,[ebp+0x10]
000077F1  89442404          mov [esp+0x4],eax
000077F5  8B450C            mov eax,[ebp+0xc]
000077F8  890424            mov [esp],eax
000077FB  E8E9F7FFFF        call dword 0x6fe9
00007800  C9                leave
00007801  C3                ret
00007802  55                push ebp
00007803  89E5              mov ebp,esp
00007805  53                push ebx
00007806  83EC44            sub esp,byte +0x44
00007809  8B1540F70300      mov edx,[dword 0x3f740]
0000780F  8955D4            mov [ebp-0x2c],edx
00007812  8B4514            mov eax,[ebp+0x14]
00007815  BA00000000        mov edx,0x0
0000781A  F775D4            div dword [ebp-0x2c]
0000781D  8945EC            mov [ebp-0x14],eax
00007820  C745F000000000    mov dword [ebp-0x10],0x0
00007827  837D1800          cmp dword [ebp+0x18],byte +0x0
0000782B  7407              jz 0x7834
0000782D  B8C7F70000        mov eax,0xf7c7
00007832  EB05              jmp short 0x7839
00007834  B88CF70000        mov eax,0xf78c
00007839  8945E8            mov [ebp-0x18],eax
0000783C  8B45EC            mov eax,[ebp-0x14]
0000783F  89442404          mov [esp+0x4],eax
00007843  8B4508            mov eax,[ebp+0x8]
00007846  890424            mov [esp],eax
00007849  E8A5FEFFFF        call dword 0x76f3
0000784E  8945E4            mov [ebp-0x1c],eax
00007851  837DE400          cmp dword [ebp-0x1c],byte +0x0
00007855  7409              jz 0x7860
00007857  817DE4F7FFFF0F    cmp dword [ebp-0x1c],0xffffff7
0000785E  760A              jna 0x786a
00007860  B8FEFFFFFF        mov eax,0xfffffffe
00007865  E99B010000        jmp dword 0x7a05
0000786A  8B45E4            mov eax,[ebp-0x1c]
0000786D  8945F4            mov [ebp-0xc],eax
00007870  8B0D40F70300      mov ecx,[dword 0x3f740]
00007876  8B4514            mov eax,[ebp+0x14]
00007879  BA00000000        mov edx,0x0
0000787E  F7F1              div ecx
00007880  89D0              mov eax,edx
00007882  85C0              test eax,eax
00007884  0F84FC000000      jz dword 0x7986
0000788A  8B0D40F70300      mov ecx,[dword 0x3f740]
00007890  8B1D40F70300      mov ebx,[dword 0x3f740]
00007896  8B4514            mov eax,[ebp+0x14]
00007899  BA00000000        mov edx,0x0
0000789E  F7F3              div ebx
000078A0  89D0              mov eax,edx
000078A2  89CA              mov edx,ecx
000078A4  29C2              sub edx,eax
000078A6  8B4510            mov eax,[ebp+0x10]
000078A9  39C2              cmp edx,eax
000078AB  0F46C2            cmovna eax,edx
000078AE  8945E0            mov [ebp-0x20],eax
000078B1  8B0D40F70300      mov ecx,[dword 0x3f740]
000078B7  8B4514            mov eax,[ebp+0x14]
000078BA  BA00000000        mov edx,0x0
000078BF  F7F1              div ecx
000078C1  89D0              mov eax,edx
000078C3  8944240C          mov [esp+0xc],eax
000078C7  8B4510            mov eax,[ebp+0x10]
000078CA  89442408          mov [esp+0x8],eax
000078CE  8B450C            mov eax,[ebp+0xc]
000078D1  89442404          mov [esp+0x4],eax
000078D5  8B45E4            mov eax,[ebp-0x1c]
000078D8  890424            mov [esp],eax
000078DB  8B45E8            mov eax,[ebp-0x18]
000078DE  FFD0              call eax
000078E0  85C0              test eax,eax
000078E2  740A              jz 0x78ee
000078E4  B8FCFFFFFF        mov eax,0xfffffffc
000078E9  E917010000        jmp dword 0x7a05
000078EE  8B45E0            mov eax,[ebp-0x20]
000078F1  8945F0            mov [ebp-0x10],eax
000078F4  8D45DC            lea eax,[ebp-0x24]
000078F7  89442404          mov [esp+0x4],eax
000078FB  8B45E4            mov eax,[ebp-0x1c]
000078FE  890424            mov [esp],eax
00007901  E8ABFAFFFF        call dword 0x73b1
00007906  85C0              test eax,eax
00007908  740A              jz 0x7914
0000790A  B8FCFFFFFF        mov eax,0xfffffffc
0000790F  E9F1000000        jmp dword 0x7a05
00007914  8B45DC            mov eax,[ebp-0x24]
00007917  8945F4            mov [ebp-0xc],eax
0000791A  EB6A              jmp short 0x7986
0000791C  8B1540F70300      mov edx,[dword 0x3f740]
00007922  8B45F0            mov eax,[ebp-0x10]
00007925  03450C            add eax,[ebp+0xc]
00007928  C744240C00000000  mov dword [esp+0xc],0x0
00007930  89542408          mov [esp+0x8],edx
00007934  89442404          mov [esp+0x4],eax
00007938  8B45F4            mov eax,[ebp-0xc]
0000793B  890424            mov [esp],eax
0000793E  8B45E8            mov eax,[ebp-0x18]
00007941  FFD0              call eax
00007943  85C0              test eax,eax
00007945  740A              jz 0x7951
00007947  B8FCFFFFFF        mov eax,0xfffffffc
0000794C  E9B4000000        jmp dword 0x7a05
00007951  8B55F0            mov edx,[ebp-0x10]
00007954  A140F70300        mov eax,[0x3f740]
00007959  01D0              add eax,edx
0000795B  8945F0            mov [ebp-0x10],eax
0000795E  8D45DC            lea eax,[ebp-0x24]
00007961  89442404          mov [esp+0x4],eax
00007965  8B45F4            mov eax,[ebp-0xc]
00007968  890424            mov [esp],eax
0000796B  E841FAFFFF        call dword 0x73b1
00007970  85C0              test eax,eax
00007972  740A              jz 0x797e
00007974  B8FCFFFFFF        mov eax,0xfffffffc
00007979  E987000000        jmp dword 0x7a05
0000797E  8B45DC            mov eax,[ebp-0x24]
00007981  8945F4            mov [ebp-0xc],eax
00007984  EB01              jmp short 0x7987
00007986  90                nop
00007987  8B45F0            mov eax,[ebp-0x10]
0000798A  8B5510            mov edx,[ebp+0x10]
0000798D  29C2              sub edx,eax
0000798F  A140F70300        mov eax,[0x3f740]
00007994  39C2              cmp edx,eax
00007996  720D              jc 0x79a5
00007998  817DF4F7FFFF0F    cmp dword [ebp-0xc],0xffffff7
0000799F  0F8677FFFFFF      jna dword 0x791c
000079A5  817DF4F7FFFF0F    cmp dword [ebp-0xc],0xffffff7
000079AC  7605              jna 0x79b3
000079AE  8B45F0            mov eax,[ebp-0x10]
000079B1  EB52              jmp short 0x7a05
000079B3  8B45F0            mov eax,[ebp-0x10]
000079B6  3B4510            cmp eax,[ebp+0x10]
000079B9  7347              jnc 0x7a02
000079BB  8B45F0            mov eax,[ebp-0x10]
000079BE  8B5510            mov edx,[ebp+0x10]
000079C1  89D1              mov ecx,edx
000079C3  29C1              sub ecx,eax
000079C5  89C8              mov eax,ecx
000079C7  8945E0            mov [ebp-0x20],eax
000079CA  8B45F0            mov eax,[ebp-0x10]
000079CD  03450C            add eax,[ebp+0xc]
000079D0  C744240C00000000  mov dword [esp+0xc],0x0
000079D8  8B55E0            mov edx,[ebp-0x20]
000079DB  89542408          mov [esp+0x8],edx
000079DF  89442404          mov [esp+0x4],eax
000079E3  8B45F4            mov eax,[ebp-0xc]
000079E6  890424            mov [esp],eax
000079E9  8B45E8            mov eax,[ebp-0x18]
000079EC  FFD0              call eax
000079EE  85C0              test eax,eax
000079F0  7407              jz 0x79f9
000079F2  B8FCFFFFFF        mov eax,0xfffffffc
000079F7  EB0C              jmp short 0x7a05
000079F9  8B45F0            mov eax,[ebp-0x10]
000079FC  0345E0            add eax,[ebp-0x20]
000079FF  8945F0            mov [ebp-0x10],eax
00007A02  8B45F0            mov eax,[ebp-0x10]
00007A05  83C444            add esp,byte +0x44
00007A08  5B                pop ebx
00007A09  5D                pop ebp
00007A0A  C3                ret
00007A0B  55                push ebp
00007A0C  89E5              mov ebp,esp
00007A0E  83EC38            sub esp,byte +0x38
00007A11  8B4508            mov eax,[ebp+0x8]
00007A14  0FB7401C          movzx eax,word [eax+0x1c]
00007A18  0FB7C0            movzx eax,ax
00007A1B  89C2              mov edx,eax
00007A1D  C1E210            shl edx,0x10
00007A20  8B4508            mov eax,[ebp+0x8]
00007A23  0FB74022          movzx eax,word [eax+0x22]
00007A27  0FB7C0            movzx eax,ax
00007A2A  09D0              or eax,edx
00007A2C  8945F4            mov [ebp-0xc],eax
00007A2F  C744241000000000  mov dword [esp+0x10],0x0
00007A37  8B4514            mov eax,[ebp+0x14]
00007A3A  8944240C          mov [esp+0xc],eax
00007A3E  8B4510            mov eax,[ebp+0x10]
00007A41  89442408          mov [esp+0x8],eax
00007A45  8B450C            mov eax,[ebp+0xc]
00007A48  89442404          mov [esp+0x4],eax
00007A4C  8B45F4            mov eax,[ebp-0xc]
00007A4F  890424            mov [esp],eax
00007A52  E8ABFDFFFF        call dword 0x7802
00007A57  C9                leave
00007A58  C3                ret
00007A59  55                push ebp
00007A5A  89E5              mov ebp,esp
00007A5C  83EC38            sub esp,byte +0x38
00007A5F  8B4508            mov eax,[ebp+0x8]
00007A62  0FB7401C          movzx eax,word [eax+0x1c]
00007A66  0FB7C0            movzx eax,ax
00007A69  89C2              mov edx,eax
00007A6B  C1E210            shl edx,0x10
00007A6E  8B4508            mov eax,[ebp+0x8]
00007A71  0FB74022          movzx eax,word [eax+0x22]
00007A75  0FB7C0            movzx eax,ax
00007A78  09D0              or eax,edx
00007A7A  8945F4            mov [ebp-0xc],eax
00007A7D  C744241001000000  mov dword [esp+0x10],0x1
00007A85  8B4514            mov eax,[ebp+0x14]
00007A88  8944240C          mov [esp+0xc],eax
00007A8C  8B4510            mov eax,[ebp+0x10]
00007A8F  89442408          mov [esp+0x8],eax
00007A93  8B450C            mov eax,[ebp+0xc]
00007A96  89442404          mov [esp+0x4],eax
00007A9A  8B45F4            mov eax,[ebp-0xc]
00007A9D  890424            mov [esp],eax
00007AA0  E85DFDFFFF        call dword 0x7802
00007AA5  C9                leave
00007AA6  C3                ret
00007AA7  55                push ebp
00007AA8  89E5              mov ebp,esp
00007AAA  53                push ebx
00007AAB  83EC34            sub esp,byte +0x34
00007AAE  8B4508            mov eax,[ebp+0x8]
00007AB1  0FB7401C          movzx eax,word [eax+0x1c]
00007AB5  0FB7C0            movzx eax,ax
00007AB8  89C2              mov edx,eax
00007ABA  C1E210            shl edx,0x10
00007ABD  8B4508            mov eax,[ebp+0x8]
00007AC0  0FB74022          movzx eax,word [eax+0x22]
00007AC4  0FB7C0            movzx eax,ax
00007AC7  09D0              or eax,edx
00007AC9  8945EC            mov [ebp-0x14],eax
00007ACC  C745F400000000    mov dword [ebp-0xc],0x0
00007AD3  8B4508            mov eax,[ebp+0x8]
00007AD6  8B4024            mov eax,[eax+0x24]
00007AD9  89C2              mov edx,eax
00007ADB  03550C            add edx,[ebp+0xc]
00007ADE  A140F70300        mov eax,[0x3f740]
00007AE3  01D0              add eax,edx
00007AE5  83E801            sub eax,byte +0x1
00007AE8  8B1540F70300      mov edx,[dword 0x3f740]
00007AEE  8955E4            mov [ebp-0x1c],edx
00007AF1  BA00000000        mov edx,0x0
00007AF6  F775E4            div dword [ebp-0x1c]
00007AF9  89C1              mov ecx,eax
00007AFB  8B4508            mov eax,[ebp+0x8]
00007AFE  8B5024            mov edx,[eax+0x24]
00007B01  A140F70300        mov eax,[0x3f740]
00007B06  01D0              add eax,edx
00007B08  83E801            sub eax,byte +0x1
00007B0B  8B1540F70300      mov edx,[dword 0x3f740]
00007B11  8955E4            mov [ebp-0x1c],edx
00007B14  BA00000000        mov edx,0x0
00007B19  F775E4            div dword [ebp-0x1c]
00007B1C  89CA              mov edx,ecx
00007B1E  29C2              sub edx,eax
00007B20  89D0              mov eax,edx
00007B22  8945E8            mov [ebp-0x18],eax
00007B25  837DE800          cmp dword [ebp-0x18],byte +0x0
00007B29  7470              jz 0x7b9b
00007B2B  8B45E8            mov eax,[ebp-0x18]
00007B2E  890424            mov [esp],eax
00007B31  E827F9FFFF        call dword 0x745d
00007B36  8945F0            mov [ebp-0x10],eax
00007B39  837DF000          cmp dword [ebp-0x10],byte +0x0
00007B3D  0F8432010000      jz dword 0x7c75
00007B43  8B4508            mov eax,[ebp+0x8]
00007B46  8B4024            mov eax,[eax+0x24]
00007B49  85C0              test eax,eax
00007B4B  7433              jz 0x7b80
00007B4D  8B45EC            mov eax,[ebp-0x14]
00007B50  890424            mov [esp],eax
00007B53  E8EFFBFFFF        call dword 0x7747
00007B58  8945F4            mov [ebp-0xc],eax
00007B5B  837DF400          cmp dword [ebp-0xc],byte +0x0
00007B5F  0F84CE000000      jz dword 0x7c33
00007B65  8B45F0            mov eax,[ebp-0x10]
00007B68  89442404          mov [esp+0x4],eax
00007B6C  8B45F4            mov eax,[ebp-0xc]
00007B6F  890424            mov [esp],eax
00007B72  E890F8FFFF        call dword 0x7407
00007B77  85C0              test eax,eax
00007B79  7420              jz 0x7b9b
00007B7B  E9B4000000        jmp dword 0x7c34
00007B80  8B45F0            mov eax,[ebp-0x10]
00007B83  C1E810            shr eax,0x10
00007B86  89C2              mov edx,eax
00007B88  8B4508            mov eax,[ebp+0x8]
00007B8B  6689501C          mov [eax+0x1c],dx
00007B8F  8B45F0            mov eax,[ebp-0x10]
00007B92  89C2              mov edx,eax
00007B94  8B4508            mov eax,[ebp+0x8]
00007B97  66895022          mov [eax+0x22],dx
00007B9B  8B4508            mov eax,[ebp+0x8]
00007B9E  8B4024            mov eax,[eax+0x24]
00007BA1  89C2              mov edx,eax
00007BA3  03550C            add edx,[ebp+0xc]
00007BA6  8B4508            mov eax,[ebp+0x8]
00007BA9  895024            mov [eax+0x24],edx
00007BAC  8B4508            mov eax,[ebp+0x8]
00007BAF  8B5004            mov edx,[eax+0x4]
00007BB2  8B4508            mov eax,[ebp+0x8]
00007BB5  8D4808            lea ecx,[eax+0x8]
00007BB8  8B4508            mov eax,[ebp+0x8]
00007BBB  8B00              mov eax,[eax]
00007BBD  8954240C          mov [esp+0xc],edx
00007BC1  C744240820000000  mov dword [esp+0x8],0x20
00007BC9  894C2404          mov [esp+0x4],ecx
00007BCD  890424            mov [esp],eax
00007BD0  E8F2FBFFFF        call dword 0x77c7
00007BD5  85C0              test eax,eax
00007BD7  750A              jnz 0x7be3
00007BD9  B800000000        mov eax,0x0
00007BDE  E998000000        jmp dword 0x7c7b
00007BE3  90                nop
00007BE4  837DE800          cmp dword [ebp-0x18],byte +0x0
00007BE8  744A              jz 0x7c34
00007BEA  837DF400          cmp dword [ebp-0xc],byte +0x0
00007BEE  7444              jz 0x7c34
00007BF0  C7442404FFFFFF0F  mov dword [esp+0x4],0xfffffff
00007BF8  8B45F4            mov eax,[ebp-0xc]
00007BFB  890424            mov [esp],eax
00007BFE  E804F8FFFF        call dword 0x7407
00007C03  85C0              test eax,eax
00007C05  742D              jz 0x7c34
00007C07  FA                cli
00007C08  C7442408862B0100  mov dword [esp+0x8],0x12b86
00007C10  C74424043C290100  mov dword [esp+0x4],0x1293c
00007C18  C7042447290100    mov dword [esp],0x12947
00007C1F  E8A09BFFFF        call dword 0x17c4
00007C24  C70424802A0100    mov dword [esp],0x12a80
00007C2B  E8949BFFFF        call dword 0x17c4
00007C30  F4                hlt
00007C31  EB01              jmp short 0x7c34
00007C33  90                nop
00007C34  837DE800          cmp dword [ebp-0x18],byte +0x0
00007C38  743C              jz 0x7c76
00007C3A  8B45F0            mov eax,[ebp-0x10]
00007C3D  890424            mov [esp],eax
00007C40  E8BBF9FFFF        call dword 0x7600
00007C45  85C0              test eax,eax
00007C47  742D              jz 0x7c76
00007C49  FA                cli
00007C4A  C7442408862B0100  mov dword [esp+0x8],0x12b86
00007C52  C74424043C290100  mov dword [esp+0x4],0x1293c
00007C5A  C7042447290100    mov dword [esp],0x12947
00007C61  E85E9BFFFF        call dword 0x17c4
00007C66  C704249E2A0100    mov dword [esp],0x12a9e
00007C6D  E8529BFFFF        call dword 0x17c4
00007C72  F4                hlt
00007C73  EB01              jmp short 0x7c76
00007C75  90                nop
00007C76  B8FCFFFFFF        mov eax,0xfffffffc
00007C7B  83C434            add esp,byte +0x34
00007C7E  5B                pop ebx
00007C7F  5D                pop ebp
00007C80  C3                ret
00007C81  55                push ebp
00007C82  89E5              mov ebp,esp
00007C84  53                push ebx
00007C85  83EC44            sub esp,byte +0x44
00007C88  8B4508            mov eax,[ebp+0x8]
00007C8B  0FB7401C          movzx eax,word [eax+0x1c]
00007C8F  0FB7C0            movzx eax,ax
00007C92  89C2              mov edx,eax
00007C94  C1E210            shl edx,0x10
00007C97  8B4508            mov eax,[ebp+0x8]
00007C9A  0FB74022          movzx eax,word [eax+0x22]
00007C9E  0FB7C0            movzx eax,ax
00007CA1  09D0              or eax,edx
00007CA3  8945F4            mov [ebp-0xc],eax
00007CA6  8B4508            mov eax,[ebp+0x8]
00007CA9  8B4024            mov eax,[eax+0x24]
00007CAC  3B450C            cmp eax,[ebp+0xc]
00007CAF  730A              jnc 0x7cbb
00007CB1  B8FEFFFFFF        mov eax,0xfffffffe
00007CB6  E987010000        jmp dword 0x7e42
00007CBB  8B4508            mov eax,[ebp+0x8]
00007CBE  8B5024            mov edx,[eax+0x24]
00007CC1  A140F70300        mov eax,[0x3f740]
00007CC6  01D0              add eax,edx
00007CC8  83E801            sub eax,byte +0x1
00007CCB  8B1540F70300      mov edx,[dword 0x3f740]
00007CD1  8955D4            mov [ebp-0x2c],edx
00007CD4  BA00000000        mov edx,0x0
00007CD9  F775D4            div dword [ebp-0x2c]
00007CDC  89C1              mov ecx,eax
00007CDE  A140F70300        mov eax,[0x3f740]
00007CE3  03450C            add eax,[ebp+0xc]
00007CE6  83E801            sub eax,byte +0x1
00007CE9  8B1540F70300      mov edx,[dword 0x3f740]
00007CEF  8955D4            mov [ebp-0x2c],edx
00007CF2  BA00000000        mov edx,0x0
00007CF7  F775D4            div dword [ebp-0x2c]
00007CFA  89CA              mov edx,ecx
00007CFC  29C2              sub edx,eax
00007CFE  89D0              mov eax,edx
00007D00  8945F0            mov [ebp-0x10],eax
00007D03  837DF000          cmp dword [ebp-0x10],byte +0x0
00007D07  0F84F3000000      jz dword 0x7e00
00007D0D  837D0C00          cmp dword [ebp+0xc],byte +0x0
00007D11  0F84C1000000      jz dword 0x7dd8
00007D17  A140F70300        mov eax,[0x3f740]
00007D1C  03450C            add eax,[ebp+0xc]
00007D1F  83E801            sub eax,byte +0x1
00007D22  8B1540F70300      mov edx,[dword 0x3f740]
00007D28  8955D4            mov [ebp-0x2c],edx
00007D2B  BA00000000        mov edx,0x0
00007D30  F775D4            div dword [ebp-0x2c]
00007D33  83E801            sub eax,byte +0x1
00007D36  8945EC            mov [ebp-0x14],eax
00007D39  8B45EC            mov eax,[ebp-0x14]
00007D3C  89442404          mov [esp+0x4],eax
00007D40  8B45F4            mov eax,[ebp-0xc]
00007D43  890424            mov [esp],eax
00007D46  E8A8F9FFFF        call dword 0x76f3
00007D4B  8945E8            mov [ebp-0x18],eax
00007D4E  837DE800          cmp dword [ebp-0x18],byte +0x0
00007D52  7409              jz 0x7d5d
00007D54  817DE8F7FFFF0F    cmp dword [ebp-0x18],0xffffff7
00007D5B  760A              jna 0x7d67
00007D5D  B8FCFFFFFF        mov eax,0xfffffffc
00007D62  E9DB000000        jmp dword 0x7e42
00007D67  8D45E0            lea eax,[ebp-0x20]
00007D6A  89442404          mov [esp+0x4],eax
00007D6E  8B45E8            mov eax,[ebp-0x18]
00007D71  890424            mov [esp],eax
00007D74  E838F6FFFF        call dword 0x73b1
00007D79  85C0              test eax,eax
00007D7B  740A              jz 0x7d87
00007D7D  B8FCFFFFFF        mov eax,0xfffffffc
00007D82  E9BB000000        jmp dword 0x7e42
00007D87  8B45E0            mov eax,[ebp-0x20]
00007D8A  3DF7FFFF0F        cmp eax,0xffffff7
00007D8F  760A              jna 0x7d9b
00007D91  B8FCFFFFFF        mov eax,0xfffffffc
00007D96  E9A7000000        jmp dword 0x7e42
00007D9B  8B45E0            mov eax,[ebp-0x20]
00007D9E  8945E4            mov [ebp-0x1c],eax
00007DA1  8B45E4            mov eax,[ebp-0x1c]
00007DA4  890424            mov [esp],eax
00007DA7  E854F8FFFF        call dword 0x7600
00007DAC  85C0              test eax,eax
00007DAE  740A              jz 0x7dba
00007DB0  B8FCFFFFFF        mov eax,0xfffffffc
00007DB5  E988000000        jmp dword 0x7e42
00007DBA  C7442404FFFFFF0F  mov dword [esp+0x4],0xfffffff
00007DC2  8B45E8            mov eax,[ebp-0x18]
00007DC5  890424            mov [esp],eax
00007DC8  E83AF6FFFF        call dword 0x7407
00007DCD  85C0              test eax,eax
00007DCF  742F              jz 0x7e00
00007DD1  B8FCFFFFFF        mov eax,0xfffffffc
00007DD6  EB6A              jmp short 0x7e42
00007DD8  8B45F4            mov eax,[ebp-0xc]
00007DDB  890424            mov [esp],eax
00007DDE  E81DF8FFFF        call dword 0x7600
00007DE3  85C0              test eax,eax
00007DE5  7407              jz 0x7dee
00007DE7  B8FCFFFFFF        mov eax,0xfffffffc
00007DEC  EB54              jmp short 0x7e42
00007DEE  8B4508            mov eax,[ebp+0x8]
00007DF1  66C7401C0000      mov word [eax+0x1c],0x0
00007DF7  8B4508            mov eax,[ebp+0x8]
00007DFA  66C740220000      mov word [eax+0x22],0x0
00007E00  8B4508            mov eax,[ebp+0x8]
00007E03  8B550C            mov edx,[ebp+0xc]
00007E06  895024            mov [eax+0x24],edx
00007E09  8B4508            mov eax,[ebp+0x8]
00007E0C  8B5004            mov edx,[eax+0x4]
00007E0F  8B4508            mov eax,[ebp+0x8]
00007E12  8D4808            lea ecx,[eax+0x8]
00007E15  8B4508            mov eax,[ebp+0x8]
00007E18  8B00              mov eax,[eax]
00007E1A  8954240C          mov [esp+0xc],edx
00007E1E  C744240820000000  mov dword [esp+0x8],0x20
00007E26  894C2404          mov [esp+0x4],ecx
00007E2A  890424            mov [esp],eax
00007E2D  E895F9FFFF        call dword 0x77c7
00007E32  85C0              test eax,eax
00007E34  7407              jz 0x7e3d
00007E36  B8FCFFFFFF        mov eax,0xfffffffc
00007E3B  EB05              jmp short 0x7e42
00007E3D  B800000000        mov eax,0x0
00007E42  83C444            add esp,byte +0x44
00007E45  5B                pop ebx
00007E46  5D                pop ebp
00007E47  C3                ret
00007E48  55                push ebp
00007E49  89E5              mov ebp,esp
00007E4B  83EC28            sub esp,byte +0x28
00007E4E  8B4508            mov eax,[ebp+0x8]
00007E51  890424            mov [esp],eax
00007E54  E8E995FFFF        call dword 0x1442
00007E59  8945EC            mov [ebp-0x14],eax
00007E5C  C74424042E000000  mov dword [esp+0x4],0x2e
00007E64  8B4508            mov eax,[ebp+0x8]
00007E67  890424            mov [esp],eax
00007E6A  E88896FFFF        call dword 0x14f7
00007E6F  85C0              test eax,eax
00007E71  7506              jnz 0x7e79
00007E73  837DEC08          cmp dword [ebp-0x14],byte +0x8
00007E77  771D              ja 0x7e96
00007E79  C74424042E000000  mov dword [esp+0x4],0x2e
00007E81  8B4508            mov eax,[ebp+0x8]
00007E84  890424            mov [esp],eax
00007E87  E86B96FFFF        call dword 0x14f7
00007E8C  85C0              test eax,eax
00007E8E  7410              jz 0x7ea0
00007E90  837DEC0C          cmp dword [ebp-0x14],byte +0xc
00007E94  760A              jna 0x7ea0
00007E96  B8FEFFFFFF        mov eax,0xfffffffe
00007E9B  E999020000        jmp dword 0x8139
00007EA0  C744240422000000  mov dword [esp+0x4],0x22
00007EA8  8B4508            mov eax,[ebp+0x8]
00007EAB  890424            mov [esp],eax
00007EAE  E84496FFFF        call dword 0x14f7
00007EB3  85C0              test eax,eax
00007EB5  0F857D010000      jnz dword 0x8038
00007EBB  C74424042A000000  mov dword [esp+0x4],0x2a
00007EC3  8B4508            mov eax,[ebp+0x8]
00007EC6  890424            mov [esp],eax
00007EC9  E82996FFFF        call dword 0x14f7
00007ECE  85C0              test eax,eax
00007ED0  0F8562010000      jnz dword 0x8038
00007ED6  C74424042F000000  mov dword [esp+0x4],0x2f
00007EDE  8B4508            mov eax,[ebp+0x8]
00007EE1  890424            mov [esp],eax
00007EE4  E80E96FFFF        call dword 0x14f7
00007EE9  85C0              test eax,eax
00007EEB  0F8547010000      jnz dword 0x8038
00007EF1  C74424043A000000  mov dword [esp+0x4],0x3a
00007EF9  8B4508            mov eax,[ebp+0x8]
00007EFC  890424            mov [esp],eax
00007EFF  E8F395FFFF        call dword 0x14f7
00007F04  85C0              test eax,eax
00007F06  0F852C010000      jnz dword 0x8038
00007F0C  C74424043C000000  mov dword [esp+0x4],0x3c
00007F14  8B4508            mov eax,[ebp+0x8]
00007F17  890424            mov [esp],eax
00007F1A  E8D895FFFF        call dword 0x14f7
00007F1F  85C0              test eax,eax
00007F21  0F8511010000      jnz dword 0x8038
00007F27  C74424043E000000  mov dword [esp+0x4],0x3e
00007F2F  8B4508            mov eax,[ebp+0x8]
00007F32  890424            mov [esp],eax
00007F35  E8BD95FFFF        call dword 0x14f7
00007F3A  85C0              test eax,eax
00007F3C  0F85F6000000      jnz dword 0x8038
00007F42  C74424043F000000  mov dword [esp+0x4],0x3f
00007F4A  8B4508            mov eax,[ebp+0x8]
00007F4D  890424            mov [esp],eax
00007F50  E8A295FFFF        call dword 0x14f7
00007F55  85C0              test eax,eax
00007F57  0F85DB000000      jnz dword 0x8038
00007F5D  C74424045C000000  mov dword [esp+0x4],0x5c
00007F65  8B4508            mov eax,[ebp+0x8]
00007F68  890424            mov [esp],eax
00007F6B  E88795FFFF        call dword 0x14f7
00007F70  85C0              test eax,eax
00007F72  0F85C0000000      jnz dword 0x8038
00007F78  C74424047C000000  mov dword [esp+0x4],0x7c
00007F80  8B4508            mov eax,[ebp+0x8]
00007F83  890424            mov [esp],eax
00007F86  E86C95FFFF        call dword 0x14f7
00007F8B  85C0              test eax,eax
00007F8D  0F85A5000000      jnz dword 0x8038
00007F93  C74424042B000000  mov dword [esp+0x4],0x2b
00007F9B  8B4508            mov eax,[ebp+0x8]
00007F9E  890424            mov [esp],eax
00007FA1  E85195FFFF        call dword 0x14f7
00007FA6  85C0              test eax,eax
00007FA8  0F858A000000      jnz dword 0x8038
00007FAE  C74424042C000000  mov dword [esp+0x4],0x2c
00007FB6  8B4508            mov eax,[ebp+0x8]
00007FB9  890424            mov [esp],eax
00007FBC  E83695FFFF        call dword 0x14f7
00007FC1  85C0              test eax,eax
00007FC3  7573              jnz 0x8038
00007FC5  C74424043B000000  mov dword [esp+0x4],0x3b
00007FCD  8B4508            mov eax,[ebp+0x8]
00007FD0  890424            mov [esp],eax
00007FD3  E81F95FFFF        call dword 0x14f7
00007FD8  85C0              test eax,eax
00007FDA  755C              jnz 0x8038
00007FDC  C74424043D000000  mov dword [esp+0x4],0x3d
00007FE4  8B4508            mov eax,[ebp+0x8]
00007FE7  890424            mov [esp],eax
00007FEA  E80895FFFF        call dword 0x14f7
00007FEF  85C0              test eax,eax
00007FF1  7545              jnz 0x8038
00007FF3  C74424045B000000  mov dword [esp+0x4],0x5b
00007FFB  8B4508            mov eax,[ebp+0x8]
00007FFE  890424            mov [esp],eax
00008001  E8F194FFFF        call dword 0x14f7
00008006  85C0              test eax,eax
00008008  752E              jnz 0x8038
0000800A  C74424045D000000  mov dword [esp+0x4],0x5d
00008012  8B4508            mov eax,[ebp+0x8]
00008015  890424            mov [esp],eax
00008018  E8DA94FFFF        call dword 0x14f7
0000801D  85C0              test eax,eax
0000801F  7517              jnz 0x8038
00008021  C74424047F000000  mov dword [esp+0x4],0x7f
00008029  8B4508            mov eax,[ebp+0x8]
0000802C  890424            mov [esp],eax
0000802F  E8C394FFFF        call dword 0x14f7
00008034  85C0              test eax,eax
00008036  740A              jz 0x8042
00008038  B8FEFFFFFF        mov eax,0xfffffffe
0000803D  E9F7000000        jmp dword 0x8139
00008042  C745F400000000    mov dword [ebp-0xc],0x0
00008049  EB1D              jmp short 0x8068
0000804B  8B45F4            mov eax,[ebp-0xc]
0000804E  8B5508            mov edx,[ebp+0x8]
00008051  01D0              add eax,edx
00008053  0FB600            movzx eax,byte [eax]
00008056  3C1F              cmp al,0x1f
00008058  7F0A              jg 0x8064
0000805A  B8FEFFFFFF        mov eax,0xfffffffe
0000805F  E9D5000000        jmp dword 0x8139
00008064  8345F401          add dword [ebp-0xc],byte +0x1
00008068  8B45F4            mov eax,[ebp-0xc]
0000806B  3B45EC            cmp eax,[ebp-0x14]
0000806E  72DB              jc 0x804b
00008070  C745F400000000    mov dword [ebp-0xc],0x0
00008077  C745F000000000    mov dword [ebp-0x10],0x0
0000807E  E981000000        jmp dword 0x8104
00008083  8B45F4            mov eax,[ebp-0xc]
00008086  8B5508            mov edx,[ebp+0x8]
00008089  01D0              add eax,edx
0000808B  0FB600            movzx eax,byte [eax]
0000808E  3C60              cmp al,0x60
00008090  7E2D              jng 0x80bf
00008092  8B45F4            mov eax,[ebp-0xc]
00008095  8B5508            mov edx,[ebp+0x8]
00008098  01D0              add eax,edx
0000809A  0FB600            movzx eax,byte [eax]
0000809D  3C7A              cmp al,0x7a
0000809F  7F1E              jg 0x80bf
000080A1  8B45F0            mov eax,[ebp-0x10]
000080A4  8B550C            mov edx,[ebp+0xc]
000080A7  01C2              add edx,eax
000080A9  8B45F4            mov eax,[ebp-0xc]
000080AC  8B4D08            mov ecx,[ebp+0x8]
000080AF  01C8              add eax,ecx
000080B1  0FB600            movzx eax,byte [eax]
000080B4  83E820            sub eax,byte +0x20
000080B7  8802              mov [edx],al
000080B9  8345F001          add dword [ebp-0x10],byte +0x1
000080BD  EB41              jmp short 0x8100
000080BF  8B45F4            mov eax,[ebp-0xc]
000080C2  8B5508            mov edx,[ebp+0x8]
000080C5  01D0              add eax,edx
000080C7  0FB600            movzx eax,byte [eax]
000080CA  3C2E              cmp al,0x2e
000080CC  7519              jnz 0x80e7
000080CE  EB0F              jmp short 0x80df
000080D0  8B45F0            mov eax,[ebp-0x10]
000080D3  8B550C            mov edx,[ebp+0xc]
000080D6  01D0              add eax,edx
000080D8  C60020            mov byte [eax],0x20
000080DB  8345F001          add dword [ebp-0x10],byte +0x1
000080DF  837DF007          cmp dword [ebp-0x10],byte +0x7
000080E3  76EB              jna 0x80d0
000080E5  EB19              jmp short 0x8100
000080E7  8B45F0            mov eax,[ebp-0x10]
000080EA  8B550C            mov edx,[ebp+0xc]
000080ED  01C2              add edx,eax
000080EF  8B45F4            mov eax,[ebp-0xc]
000080F2  8B4D08            mov ecx,[ebp+0x8]
000080F5  01C8              add eax,ecx
000080F7  0FB600            movzx eax,byte [eax]
000080FA  8802              mov [edx],al
000080FC  8345F001          add dword [ebp-0x10],byte +0x1
00008100  8345F401          add dword [ebp-0xc],byte +0x1
00008104  8B45F4            mov eax,[ebp-0xc]
00008107  8B5508            mov edx,[ebp+0x8]
0000810A  01D0              add eax,edx
0000810C  0FB600            movzx eax,byte [eax]
0000810F  84C0              test al,al
00008111  741B              jz 0x812e
00008113  837DF00A          cmp dword [ebp-0x10],byte +0xa
00008117  0F8666FFFFFF      jna dword 0x8083
0000811D  EB0F              jmp short 0x812e
0000811F  8B45F0            mov eax,[ebp-0x10]
00008122  8B550C            mov edx,[ebp+0xc]
00008125  01D0              add eax,edx
00008127  C60020            mov byte [eax],0x20
0000812A  8345F001          add dword [ebp-0x10],byte +0x1
0000812E  837DF00A          cmp dword [ebp-0x10],byte +0xa
00008132  76EB              jna 0x811f
00008134  B800000000        mov eax,0x0
00008139  C9                leave
0000813A  C3                ret
0000813B  55                push ebp
0000813C  89E5              mov ebp,esp
0000813E  83EC28            sub esp,byte +0x28
00008141  8B4508            mov eax,[ebp+0x8]
00008144  0FB7401C          movzx eax,word [eax+0x1c]
00008148  0FB7C0            movzx eax,ax
0000814B  89C2              mov edx,eax
0000814D  C1E210            shl edx,0x10
00008150  8B4508            mov eax,[ebp+0x8]
00008153  0FB74022          movzx eax,word [eax+0x22]
00008157  0FB7C0            movzx eax,ax
0000815A  09D0              or eax,edx
0000815C  89C2              mov edx,eax
0000815E  8B450C            mov eax,[ebp+0xc]
00008161  8910              mov [eax],edx
00008163  8D45E9            lea eax,[ebp-0x17]
00008166  89442404          mov [esp+0x4],eax
0000816A  8B4510            mov eax,[ebp+0x10]
0000816D  890424            mov [esp],eax
00008170  E8D3FCFFFF        call dword 0x7e48
00008175  85C0              test eax,eax
00008177  0F84E7000000      jz dword 0x8264
0000817D  B8FEFFFFFF        mov eax,0xfffffffe
00008182  E91D010000        jmp dword 0x82a4
00008187  8B450C            mov eax,[ebp+0xc]
0000818A  C7400400000000    mov dword [eax+0x4],0x0
00008191  E992000000        jmp dword 0x8228
00008196  8B450C            mov eax,[ebp+0xc]
00008199  8B5004            mov edx,[eax+0x4]
0000819C  8B450C            mov eax,[ebp+0xc]
0000819F  8D4808            lea ecx,[eax+0x8]
000081A2  8B450C            mov eax,[ebp+0xc]
000081A5  8B00              mov eax,[eax]
000081A7  8954240C          mov [esp+0xc],edx
000081AB  C744240820000000  mov dword [esp+0x8],0x20
000081B3  894C2404          mov [esp+0x4],ecx
000081B7  890424            mov [esp],eax
000081BA  E8CDF5FFFF        call dword 0x778c
000081BF  85C0              test eax,eax
000081C1  740A              jz 0x81cd
000081C3  B8FCFFFFFF        mov eax,0xfffffffc
000081C8  E9D7000000        jmp dword 0x82a4
000081CD  8B450C            mov eax,[ebp+0xc]
000081D0  0FB64008          movzx eax,byte [eax+0x8]
000081D4  84C0              test al,al
000081D6  750A              jnz 0x81e2
000081D8  B8FBFFFFFF        mov eax,0xfffffffb
000081DD  E9C2000000        jmp dword 0x82a4
000081E2  8B450C            mov eax,[ebp+0xc]
000081E5  0FB64013          movzx eax,byte [eax+0x13]
000081E9  3C0F              cmp al,0xf
000081EB  742B              jz 0x8218
000081ED  8B450C            mov eax,[ebp+0xc]
000081F0  8D5008            lea edx,[eax+0x8]
000081F3  C74424080B000000  mov dword [esp+0x8],0xb
000081FB  8D45E9            lea eax,[ebp-0x17]
000081FE  89442404          mov [esp+0x4],eax
00008202  891424            mov [esp],edx
00008205  E86392FFFF        call dword 0x146d
0000820A  85C0              test eax,eax
0000820C  750B              jnz 0x8219
0000820E  B800000000        mov eax,0x0
00008213  E98C000000        jmp dword 0x82a4
00008218  90                nop
00008219  8B450C            mov eax,[ebp+0xc]
0000821C  8B4004            mov eax,[eax+0x4]
0000821F  8D5020            lea edx,[eax+0x20]
00008222  8B450C            mov eax,[ebp+0xc]
00008225  895004            mov [eax+0x4],edx
00008228  8B450C            mov eax,[ebp+0xc]
0000822B  8B5004            mov edx,[eax+0x4]
0000822E  A140F70300        mov eax,[0x3f740]
00008233  39C2              cmp edx,eax
00008235  0F825BFFFFFF      jc dword 0x8196
0000823B  8B450C            mov eax,[ebp+0xc]
0000823E  8B00              mov eax,[eax]
00008240  8D55F4            lea edx,[ebp-0xc]
00008243  89542404          mov [esp+0x4],edx
00008247  890424            mov [esp],eax
0000824A  E862F1FFFF        call dword 0x73b1
0000824F  85C0              test eax,eax
00008251  7407              jz 0x825a
00008253  B8FCFFFFFF        mov eax,0xfffffffc
00008258  EB4A              jmp short 0x82a4
0000825A  8B55F4            mov edx,[ebp-0xc]
0000825D  8B450C            mov eax,[ebp+0xc]
00008260  8910              mov [eax],edx
00008262  EB01              jmp short 0x8265
00008264  90                nop
00008265  8B450C            mov eax,[ebp+0xc]
00008268  8B00              mov eax,[eax]
0000826A  3DF7FFFF0F        cmp eax,0xffffff7
0000826F  0F8612FFFFFF      jna dword 0x8187
00008275  FA                cli
00008276  C7442408722B0100  mov dword [esp+0x8],0x12b72
0000827E  C74424043C290100  mov dword [esp+0x4],0x1293c
00008286  C7042447290100    mov dword [esp],0x12947
0000828D  E83295FFFF        call dword 0x17c4
00008292  C70424B82A0100    mov dword [esp],0x12ab8
00008299  E82695FFFF        call dword 0x17c4
0000829E  F4                hlt
0000829F  B8FCFFFFFF        mov eax,0xfffffffc
000082A4  C9                leave
000082A5  C3                ret
000082A6  55                push ebp
000082A7  89E5              mov ebp,esp
000082A9  83EC48            sub esp,byte +0x48
000082AC  C745EC00000000    mov dword [ebp-0x14],0x0
000082B3  8B4508            mov eax,[ebp+0x8]
000082B6  0FB7401C          movzx eax,word [eax+0x1c]
000082BA  0FB7C0            movzx eax,ax
000082BD  89C2              mov edx,eax
000082BF  C1E210            shl edx,0x10
000082C2  8B4508            mov eax,[ebp+0x8]
000082C5  0FB74022          movzx eax,word [eax+0x22]
000082C9  0FB7C0            movzx eax,ax
000082CC  09D0              or eax,edx
000082CE  8945F4            mov [ebp-0xc],eax
000082D1  E990000000        jmp dword 0x8366
000082D6  C745F000000000    mov dword [ebp-0x10],0x0
000082DD  EB5A              jmp short 0x8339
000082DF  8B45F0            mov eax,[ebp-0x10]
000082E2  8944240C          mov [esp+0xc],eax
000082E6  C744240820000000  mov dword [esp+0x8],0x20
000082EE  8D45C8            lea eax,[ebp-0x38]
000082F1  89442404          mov [esp+0x4],eax
000082F5  8B45F4            mov eax,[ebp-0xc]
000082F8  890424            mov [esp],eax
000082FB  E88CF4FFFF        call dword 0x778c
00008300  85C0              test eax,eax
00008302  740A              jz 0x830e
00008304  B800000000        mov eax,0x0
00008309  E994000000        jmp dword 0x83a2
0000830E  0FB645C8          movzx eax,byte [ebp-0x38]
00008312  84C0              test al,al
00008314  7508              jnz 0x831e
00008316  8B45EC            mov eax,[ebp-0x14]
00008319  E984000000        jmp dword 0x83a2
0000831E  0FB645C8          movzx eax,byte [ebp-0x38]
00008322  3CE5              cmp al,0xe5
00008324  740E              jz 0x8334
00008326  0FB645D3          movzx eax,byte [ebp-0x2d]
0000832A  3C0F              cmp al,0xf
0000832C  7406              jz 0x8334
0000832E  8345EC01          add dword [ebp-0x14],byte +0x1
00008332  EB01              jmp short 0x8335
00008334  90                nop
00008335  8345F020          add dword [ebp-0x10],byte +0x20
00008339  A140F70300        mov eax,[0x3f740]
0000833E  3945F0            cmp [ebp-0x10],eax
00008341  729C              jc 0x82df
00008343  8D45E8            lea eax,[ebp-0x18]
00008346  89442404          mov [esp+0x4],eax
0000834A  8B45F4            mov eax,[ebp-0xc]
0000834D  890424            mov [esp],eax
00008350  E85CF0FFFF        call dword 0x73b1
00008355  85C0              test eax,eax
00008357  7407              jz 0x8360
00008359  B800000000        mov eax,0x0
0000835E  EB42              jmp short 0x83a2
00008360  8B45E8            mov eax,[ebp-0x18]
00008363  8945F4            mov [ebp-0xc],eax
00008366  817DF4F7FFFF0F    cmp dword [ebp-0xc],0xffffff7
0000836D  0F8663FFFFFF      jna dword 0x82d6
00008373  FA                cli
00008374  C7442408612B0100  mov dword [esp+0x8],0x12b61
0000837C  C74424043C290100  mov dword [esp+0x4],0x1293c
00008384  C7042447290100    mov dword [esp],0x12947
0000838B  E83494FFFF        call dword 0x17c4
00008390  C70424B82A0100    mov dword [esp],0x12ab8
00008397  E82894FFFF        call dword 0x17c4
0000839C  F4                hlt
0000839D  B8FCFFFFFF        mov eax,0xfffffffc
000083A2  C9                leave
000083A3  C3                ret
000083A4  55                push ebp
000083A5  89E5              mov ebp,esp
000083A7  53                push ebx
000083A8  81EC94000000      sub esp,0x94
000083AE  C745F400000000    mov dword [ebp-0xc],0x0
000083B5  8B4508            mov eax,[ebp+0x8]
000083B8  0FB7401C          movzx eax,word [eax+0x1c]
000083BC  0FB7C0            movzx eax,ax
000083BF  89C2              mov edx,eax
000083C1  C1E210            shl edx,0x10
000083C4  8B4508            mov eax,[ebp+0x8]
000083C7  0FB74022          movzx eax,word [eax+0x22]
000083CB  0FB7C0            movzx eax,ax
000083CE  09D0              or eax,edx
000083D0  89C2              mov edx,eax
000083D2  8B450C            mov eax,[ebp+0xc]
000083D5  8910              mov [eax],edx
000083D7  8B4508            mov eax,[ebp+0x8]
000083DA  0FB64013          movzx eax,byte [eax+0x13]
000083DE  0FB6C0            movzx eax,al
000083E1  83E010            and eax,byte +0x10
000083E4  85C0              test eax,eax
000083E6  750C              jnz 0x83f4
000083E8  C745F002000000    mov dword [ebp-0x10],0x2
000083EF  E96C050000        jmp dword 0x8960
000083F4  8B450C            mov eax,[ebp+0xc]
000083F7  83C008            add eax,byte +0x8
000083FA  89442404          mov [esp+0x4],eax
000083FE  8B4510            mov eax,[ebp+0x10]
00008401  890424            mov [esp],eax
00008404  E83FFAFFFF        call dword 0x7e48
00008409  85C0              test eax,eax
0000840B  740C              jz 0x8419
0000840D  C745F002000000    mov dword [ebp-0x10],0x2
00008414  E947050000        jmp dword 0x8960
00008419  837D1400          cmp dword [ebp+0x14],byte +0x0
0000841D  0F84B6020000      jz dword 0x86d9
00008423  C745EC40000000    mov dword [ebp-0x14],0x40
0000842A  C7042401000000    mov dword [esp],0x1
00008431  E827F0FFFF        call dword 0x745d
00008436  8945F4            mov [ebp-0xc],eax
00008439  837DF400          cmp dword [ebp-0xc],byte +0x0
0000843D  750C              jnz 0x844b
0000843F  C745F003000000    mov dword [ebp-0x10],0x3
00008446  E915050000        jmp dword 0x8960
0000844B  8D957CFFFFFF      lea edx,[ebp-0x84]
00008451  B900000000        mov ecx,0x0
00008456  B820000000        mov eax,0x20
0000845B  89C3              mov ebx,eax
0000845D  83E3FC            and ebx,byte -0x4
00008460  B800000000        mov eax,0x0
00008465  890C02            mov [edx+eax],ecx
00008468  83C004            add eax,byte +0x4
0000846B  39D8              cmp eax,ebx
0000846D  72F6              jc 0x8465
0000846F  01C2              add edx,eax
00008471  C7857CFFFFFF2E20  mov dword [ebp-0x84],0x2020202e
         -2020
0000847B  C7458020202020    mov dword [ebp-0x80],0x20202020
00008482  66C745842020      mov word [ebp-0x7c],0x2020
00008488  C6458620          mov byte [ebp-0x7a],0x20
0000848C  C6458710          mov byte [ebp-0x79],0x10
00008490  8B45F4            mov eax,[ebp-0xc]
00008493  C1E810            shr eax,0x10
00008496  66894590          mov [ebp-0x70],ax
0000849A  8B45F4            mov eax,[ebp-0xc]
0000849D  66894596          mov [ebp-0x6a],ax
000084A1  8D559C            lea edx,[ebp-0x64]
000084A4  B900000000        mov ecx,0x0
000084A9  B820000000        mov eax,0x20
000084AE  89C3              mov ebx,eax
000084B0  83E3FC            and ebx,byte -0x4
000084B3  B800000000        mov eax,0x0
000084B8  890C02            mov [edx+eax],ecx
000084BB  83C004            add eax,byte +0x4
000084BE  39D8              cmp eax,ebx
000084C0  72F6              jc 0x84b8
000084C2  01C2              add edx,eax
000084C4  C7459C2E2E2020    mov dword [ebp-0x64],0x20202e2e
000084CB  C745A020202020    mov dword [ebp-0x60],0x20202020
000084D2  66C745A42020      mov word [ebp-0x5c],0x2020
000084D8  C645A620          mov byte [ebp-0x5a],0x20
000084DC  8B4508            mov eax,[ebp+0x8]
000084DF  0FB64013          movzx eax,byte [eax+0x13]
000084E3  8845A7            mov [ebp-0x59],al
000084E6  8B4508            mov eax,[ebp+0x8]
000084E9  0FB64015          movzx eax,byte [eax+0x15]
000084ED  8845A9            mov [ebp-0x57],al
000084F0  8B4508            mov eax,[ebp+0x8]
000084F3  0FB74016          movzx eax,word [eax+0x16]
000084F7  668945AA          mov [ebp-0x56],ax
000084FB  8B4508            mov eax,[ebp+0x8]
000084FE  0FB74018          movzx eax,word [eax+0x18]
00008502  668945AC          mov [ebp-0x54],ax
00008506  8B4508            mov eax,[ebp+0x8]
00008509  0FB7401A          movzx eax,word [eax+0x1a]
0000850D  668945AE          mov [ebp-0x52],ax
00008511  C744240820000000  mov dword [esp+0x8],0x20
00008519  C744240400F50300  mov dword [esp+0x4],0x3f500
00008521  8B4508            mov eax,[ebp+0x8]
00008524  890424            mov [esp],eax
00008527  E8198EFFFF        call dword 0x1345
0000852C  85C0              test eax,eax
0000852E  7409              jz 0x8539
00008530  8B4508            mov eax,[ebp+0x8]
00008533  0FB7401C          movzx eax,word [eax+0x1c]
00008537  EB05              jmp short 0x853e
00008539  B800000000        mov eax,0x0
0000853E  668945B0          mov [ebp-0x50],ax
00008542  8B4508            mov eax,[ebp+0x8]
00008545  0FB7401E          movzx eax,word [eax+0x1e]
00008549  668945B2          mov [ebp-0x4e],ax
0000854D  8B4508            mov eax,[ebp+0x8]
00008550  0FB74020          movzx eax,word [eax+0x20]
00008554  668945B4          mov [ebp-0x4c],ax
00008558  C744240820000000  mov dword [esp+0x8],0x20
00008560  C744240400F50300  mov dword [esp+0x4],0x3f500
00008568  8B4508            mov eax,[ebp+0x8]
0000856B  890424            mov [esp],eax
0000856E  E8D28DFFFF        call dword 0x1345
00008573  85C0              test eax,eax
00008575  7409              jz 0x8580
00008577  8B4508            mov eax,[ebp+0x8]
0000857A  0FB74022          movzx eax,word [eax+0x22]
0000857E  EB05              jmp short 0x8585
00008580  B800000000        mov eax,0x0
00008585  668945B6          mov [ebp-0x4a],ax
00008589  C744240C00000000  mov dword [esp+0xc],0x0
00008591  C744240820000000  mov dword [esp+0x8],0x20
00008599  8D857CFFFFFF      lea eax,[ebp-0x84]
0000859F  89442404          mov [esp+0x4],eax
000085A3  8B45F4            mov eax,[ebp-0xc]
000085A6  890424            mov [esp],eax
000085A9  E819F2FFFF        call dword 0x77c7
000085AE  85C0              test eax,eax
000085B0  7526              jnz 0x85d8
000085B2  C744240C20000000  mov dword [esp+0xc],0x20
000085BA  C744240820000000  mov dword [esp+0x8],0x20
000085C2  8D459C            lea eax,[ebp-0x64]
000085C5  89442404          mov [esp+0x4],eax
000085C9  8B45F4            mov eax,[ebp-0xc]
000085CC  890424            mov [esp],eax
000085CF  E8F3F1FFFF        call dword 0x77c7
000085D4  85C0              test eax,eax
000085D6  7444              jz 0x861c
000085D8  C745F004000000    mov dword [ebp-0x10],0x4
000085DF  E93D030000        jmp dword 0x8921
000085E4  8B45EC            mov eax,[ebp-0x14]
000085E7  8944240C          mov [esp+0xc],eax
000085EB  C744240820000000  mov dword [esp+0x8],0x20
000085F3  C7442404C04C0100  mov dword [esp+0x4],0x14cc0
000085FB  8B45F4            mov eax,[ebp-0xc]
000085FE  890424            mov [esp],eax
00008601  E8C1F1FFFF        call dword 0x77c7
00008606  85C0              test eax,eax
00008608  740C              jz 0x8616
0000860A  C745F004000000    mov dword [ebp-0x10],0x4
00008611  E90B030000        jmp dword 0x8921
00008616  8345EC20          add dword [ebp-0x14],byte +0x20
0000861A  EB01              jmp short 0x861d
0000861C  90                nop
0000861D  A140F70300        mov eax,[0x3f740]
00008622  3945EC            cmp [ebp-0x14],eax
00008625  72BD              jc 0x85e4
00008627  E9AD000000        jmp dword 0x86d9
0000862C  8B450C            mov eax,[ebp+0xc]
0000862F  C7400400000000    mov dword [eax+0x4],0x0
00008636  EB55              jmp short 0x868d
00008638  8B450C            mov eax,[ebp+0xc]
0000863B  8B5004            mov edx,[eax+0x4]
0000863E  8B450C            mov eax,[ebp+0xc]
00008641  8B00              mov eax,[eax]
00008643  8954240C          mov [esp+0xc],edx
00008647  C744240820000000  mov dword [esp+0x8],0x20
0000864F  8D55BC            lea edx,[ebp-0x44]
00008652  89542404          mov [esp+0x4],edx
00008656  890424            mov [esp],eax
00008659  E82EF1FFFF        call dword 0x778c
0000865E  85C0              test eax,eax
00008660  740C              jz 0x866e
00008662  C745F004000000    mov dword [ebp-0x10],0x4
00008669  E9B3020000        jmp dword 0x8921
0000866E  0FB645BC          movzx eax,byte [ebp-0x44]
00008672  84C0              test al,al
00008674  7426              jz 0x869c
00008676  0FB645BC          movzx eax,byte [ebp-0x44]
0000867A  3CE5              cmp al,0xe5
0000867C  741E              jz 0x869c
0000867E  8B450C            mov eax,[ebp+0xc]
00008681  8B4004            mov eax,[eax+0x4]
00008684  8D5020            lea edx,[eax+0x20]
00008687  8B450C            mov eax,[ebp+0xc]
0000868A  895004            mov [eax+0x4],edx
0000868D  8B450C            mov eax,[ebp+0xc]
00008690  8B5004            mov edx,[eax+0x4]
00008693  A140F70300        mov eax,[0x3f740]
00008698  39C2              cmp edx,eax
0000869A  729C              jc 0x8638
0000869C  8B450C            mov eax,[ebp+0xc]
0000869F  8B00              mov eax,[eax]
000086A1  8D55DC            lea edx,[ebp-0x24]
000086A4  89542404          mov [esp+0x4],edx
000086A8  890424            mov [esp],eax
000086AB  E801EDFFFF        call dword 0x73b1
000086B0  85C0              test eax,eax
000086B2  740C              jz 0x86c0
000086B4  C745F004000000    mov dword [ebp-0x10],0x4
000086BB  E961020000        jmp dword 0x8921
000086C0  8B450C            mov eax,[ebp+0xc]
000086C3  8B5004            mov edx,[eax+0x4]
000086C6  A140F70300        mov eax,[0x3f740]
000086CB  39C2              cmp edx,eax
000086CD  751D              jnz 0x86ec
000086CF  8B55DC            mov edx,[ebp-0x24]
000086D2  8B450C            mov eax,[ebp+0xc]
000086D5  8910              mov [eax],edx
000086D7  EB01              jmp short 0x86da
000086D9  90                nop
000086DA  8B450C            mov eax,[ebp+0xc]
000086DD  8B00              mov eax,[eax]
000086DF  3DF7FFFF0F        cmp eax,0xffffff7
000086E4  0F8642FFFFFF      jna dword 0x862c
000086EA  EB01              jmp short 0x86ed
000086EC  90                nop
000086ED  8B450C            mov eax,[ebp+0xc]
000086F0  8B00              mov eax,[eax]
000086F2  3DF7FFFF0F        cmp eax,0xffffff7
000086F7  762A              jna 0x8723
000086F9  FA                cli
000086FA  C7442408542B0100  mov dword [esp+0x8],0x12b54
00008702  C74424043C290100  mov dword [esp+0x4],0x1293c
0000870A  C7042447290100    mov dword [esp],0x12947
00008711  E8AE90FFFF        call dword 0x17c4
00008716  C70424B82A0100    mov dword [esp],0x12ab8
0000871D  E8A290FFFF        call dword 0x17c4
00008722  F4                hlt
00008723  0FB645BC          movzx eax,byte [ebp-0x44]
00008727  84C0              test al,al
00008729  0F8527010000      jnz dword 0x8856
0000872F  C70424E22A0100    mov dword [esp],0x12ae2
00008736  E88990FFFF        call dword 0x17c4
0000873B  8B450C            mov eax,[ebp+0xc]
0000873E  8B4004            mov eax,[eax+0x4]
00008741  8D5020            lea edx,[eax+0x20]
00008744  A140F70300        mov eax,[0x3f740]
00008749  39C2              cmp edx,eax
0000874B  0F85AF000000      jnz dword 0x8800
00008751  8B45DC            mov eax,[ebp-0x24]
00008754  3DF7FFFF0F        cmp eax,0xffffff7
00008759  0F8692000000      jna dword 0x87f1
0000875F  C70424F42A0100    mov dword [esp],0x12af4
00008766  E85990FFFF        call dword 0x17c4
0000876B  C7042401000000    mov dword [esp],0x1
00008772  E8E6ECFFFF        call dword 0x745d
00008777  8945E0            mov [ebp-0x20],eax
0000877A  837DE000          cmp dword [ebp-0x20],byte +0x0
0000877E  750C              jnz 0x878c
00008780  C745F003000000    mov dword [ebp-0x10],0x3
00008787  E995010000        jmp dword 0x8921
0000878C  8B450C            mov eax,[ebp+0xc]
0000878F  8B00              mov eax,[eax]
00008791  8B55E0            mov edx,[ebp-0x20]
00008794  89542404          mov [esp+0x4],edx
00008798  890424            mov [esp],eax
0000879B  E867ECFFFF        call dword 0x7407
000087A0  85C0              test eax,eax
000087A2  7445              jz 0x87e9
000087A4  8B45E0            mov eax,[ebp-0x20]
000087A7  890424            mov [esp],eax
000087AA  E851EEFFFF        call dword 0x7600
000087AF  85C0              test eax,eax
000087B1  742A              jz 0x87dd
000087B3  FA                cli
000087B4  C7442408542B0100  mov dword [esp+0x8],0x12b54
000087BC  C74424043C290100  mov dword [esp+0x4],0x1293c
000087C4  C7042447290100    mov dword [esp],0x12947
000087CB  E8F48FFFFF        call dword 0x17c4
000087D0  C70424F9290100    mov dword [esp],0x129f9
000087D7  E8E88FFFFF        call dword 0x17c4
000087DC  F4                hlt
000087DD  C745F004000000    mov dword [ebp-0x10],0x4
000087E4  E938010000        jmp dword 0x8921
000087E9  8B45E0            mov eax,[ebp-0x20]
000087EC  8945E8            mov [ebp-0x18],eax
000087EF  EB06              jmp short 0x87f7
000087F1  8B45DC            mov eax,[ebp-0x24]
000087F4  8945E8            mov [ebp-0x18],eax
000087F7  C745E400000000    mov dword [ebp-0x1c],0x0
000087FE  EB4C              jmp short 0x884c
00008800  8B450C            mov eax,[ebp+0xc]
00008803  8B00              mov eax,[eax]
00008805  8945E8            mov [ebp-0x18],eax
00008808  8B450C            mov eax,[ebp+0xc]
0000880B  8B4004            mov eax,[eax+0x4]
0000880E  83C020            add eax,byte +0x20
00008811  8945E4            mov [ebp-0x1c],eax
00008814  EB36              jmp short 0x884c
00008816  8B45E4            mov eax,[ebp-0x1c]
00008819  8944240C          mov [esp+0xc],eax
0000881D  C744240820000000  mov dword [esp+0x8],0x20
00008825  C7442404C04C0100  mov dword [esp+0x4],0x14cc0
0000882D  8B45E8            mov eax,[ebp-0x18]
00008830  890424            mov [esp],eax
00008833  E88FEFFFFF        call dword 0x77c7
00008838  85C0              test eax,eax
0000883A  740C              jz 0x8848
0000883C  C745F004000000    mov dword [ebp-0x10],0x4
00008843  E9D9000000        jmp dword 0x8921
00008848  8345E420          add dword [ebp-0x1c],byte +0x20
0000884C  A140F70300        mov eax,[0x3f740]
00008851  3945E4            cmp [ebp-0x1c],eax
00008854  72C0              jc 0x8816
00008856  837D1400          cmp dword [ebp+0x14],byte +0x0
0000885A  7407              jz 0x8863
0000885C  B810000000        mov eax,0x10
00008861  EB05              jmp short 0x8868
00008863  B800000000        mov eax,0x0
00008868  8B550C            mov edx,[ebp+0xc]
0000886B  884213            mov [edx+0x13],al
0000886E  8B450C            mov eax,[ebp+0xc]
00008871  C6401400          mov byte [eax+0x14],0x0
00008875  8B450C            mov eax,[ebp+0xc]
00008878  C6401500          mov byte [eax+0x15],0x0
0000887C  8B450C            mov eax,[ebp+0xc]
0000887F  66C740160000      mov word [eax+0x16],0x0
00008885  8B450C            mov eax,[ebp+0xc]
00008888  66C740180000      mov word [eax+0x18],0x0
0000888E  8B450C            mov eax,[ebp+0xc]
00008891  66C7401A0000      mov word [eax+0x1a],0x0
00008897  837D1400          cmp dword [ebp+0x14],byte +0x0
0000889B  7408              jz 0x88a5
0000889D  8B45F4            mov eax,[ebp-0xc]
000088A0  C1E810            shr eax,0x10
000088A3  EB05              jmp short 0x88aa
000088A5  B800000000        mov eax,0x0
000088AA  8B550C            mov edx,[ebp+0xc]
000088AD  6689421C          mov [edx+0x1c],ax
000088B1  8B450C            mov eax,[ebp+0xc]
000088B4  66C7401E0000      mov word [eax+0x1e],0x0
000088BA  8B450C            mov eax,[ebp+0xc]
000088BD  66C740200000      mov word [eax+0x20],0x0
000088C3  837D1400          cmp dword [ebp+0x14],byte +0x0
000088C7  7405              jz 0x88ce
000088C9  8B45F4            mov eax,[ebp-0xc]
000088CC  EB05              jmp short 0x88d3
000088CE  B800000000        mov eax,0x0
000088D3  8B550C            mov edx,[ebp+0xc]
000088D6  66894222          mov [edx+0x22],ax
000088DA  8B450C            mov eax,[ebp+0xc]
000088DD  C7402400000000    mov dword [eax+0x24],0x0
000088E4  8B450C            mov eax,[ebp+0xc]
000088E7  8B5004            mov edx,[eax+0x4]
000088EA  8B450C            mov eax,[ebp+0xc]
000088ED  8D4808            lea ecx,[eax+0x8]
000088F0  8B450C            mov eax,[ebp+0xc]
000088F3  8B00              mov eax,[eax]
000088F5  8954240C          mov [esp+0xc],edx
000088F9  C744240820000000  mov dword [esp+0x8],0x20
00008901  894C2404          mov [esp+0x4],ecx
00008905  890424            mov [esp],eax
00008908  E8BAEEFFFF        call dword 0x77c7
0000890D  85C0              test eax,eax
0000890F  7409              jz 0x891a
00008911  C745F004000000    mov dword [ebp-0x10],0x4
00008918  EB07              jmp short 0x8921
0000891A  B800000000        mov eax,0x0
0000891F  EB44              jmp short 0x8965
00008921  837DF400          cmp dword [ebp-0xc],byte +0x0
00008925  7439              jz 0x8960
00008927  8B45F4            mov eax,[ebp-0xc]
0000892A  890424            mov [esp],eax
0000892D  E8CEECFFFF        call dword 0x7600
00008932  85C0              test eax,eax
00008934  742A              jz 0x8960
00008936  FA                cli
00008937  C7442408542B0100  mov dword [esp+0x8],0x12b54
0000893F  C74424043C290100  mov dword [esp+0x4],0x1293c
00008947  C7042447290100    mov dword [esp],0x12947
0000894E  E8718EFFFF        call dword 0x17c4
00008953  C704240E2B0100    mov dword [esp],0x12b0e
0000895A  E8658EFFFF        call dword 0x17c4
0000895F  F4                hlt
00008960  8B45F0            mov eax,[ebp-0x10]
00008963  F7D8              neg eax
00008965  81C494000000      add esp,0x94
0000896B  5B                pop ebx
0000896C  5D                pop ebp
0000896D  C3                ret
0000896E  55                push ebp
0000896F  89E5              mov ebp,esp
00008971  83EC28            sub esp,byte +0x28
00008974  8B4508            mov eax,[ebp+0x8]
00008977  0FB7401C          movzx eax,word [eax+0x1c]
0000897B  0FB7C0            movzx eax,ax
0000897E  89C2              mov edx,eax
00008980  C1E210            shl edx,0x10
00008983  8B4508            mov eax,[ebp+0x8]
00008986  0FB74022          movzx eax,word [eax+0x22]
0000898A  0FB7C0            movzx eax,ax
0000898D  09D0              or eax,edx
0000898F  8945F4            mov [ebp-0xc],eax
00008992  8B4508            mov eax,[ebp+0x8]
00008995  0FB64013          movzx eax,byte [eax+0x13]
00008999  0FB6C0            movzx eax,al
0000899C  83E010            and eax,byte +0x10
0000899F  85C0              test eax,eax
000089A1  7432              jz 0x89d5
000089A3  8B4508            mov eax,[ebp+0x8]
000089A6  890424            mov [esp],eax
000089A9  E8F8F8FFFF        call dword 0x82a6
000089AE  83F802            cmp eax,byte +0x2
000089B1  7622              jna 0x89d5
000089B3  8B4508            mov eax,[ebp+0x8]
000089B6  890424            mov [esp],eax
000089B9  E8E8F8FFFF        call dword 0x82a6
000089BE  89442404          mov [esp+0x4],eax
000089C2  C70424282B0100    mov dword [esp],0x12b28
000089C9  E8F68DFFFF        call dword 0x17c4
000089CE  B8FEFFFFFF        mov eax,0xfffffffe
000089D3  EB5C              jmp short 0x8a31
000089D5  837DF400          cmp dword [ebp-0xc],byte +0x0
000089D9  7416              jz 0x89f1
000089DB  8B45F4            mov eax,[ebp-0xc]
000089DE  890424            mov [esp],eax
000089E1  E81AECFFFF        call dword 0x7600
000089E6  85C0              test eax,eax
000089E8  7407              jz 0x89f1
000089EA  B8FCFFFFFF        mov eax,0xfffffffc
000089EF  EB40              jmp short 0x8a31
000089F1  8B4508            mov eax,[ebp+0x8]
000089F4  C64008E5          mov byte [eax+0x8],0xe5
000089F8  8B4508            mov eax,[ebp+0x8]
000089FB  8B5004            mov edx,[eax+0x4]
000089FE  8B4508            mov eax,[ebp+0x8]
00008A01  8D4808            lea ecx,[eax+0x8]
00008A04  8B4508            mov eax,[ebp+0x8]
00008A07  8B00              mov eax,[eax]
00008A09  8954240C          mov [esp+0xc],edx
00008A0D  C744240820000000  mov dword [esp+0x8],0x20
00008A15  894C2404          mov [esp+0x4],ecx
00008A19  890424            mov [esp],eax
00008A1C  E8A6EDFFFF        call dword 0x77c7
00008A21  85C0              test eax,eax
00008A23  7407              jz 0x8a2c
00008A25  B8FCFFFFFF        mov eax,0xfffffffc
00008A2A  EB05              jmp short 0x8a31
00008A2C  B800000000        mov eax,0x0
00008A31  C9                leave
00008A32  C3                ret
00008A33  55                push ebp
00008A34  89E5              mov ebp,esp
00008A36  83EC18            sub esp,byte +0x18
00008A39  8B450C            mov eax,[ebp+0xc]
00008A3C  0FB7401C          movzx eax,word [eax+0x1c]
00008A40  6685C0            test ax,ax
00008A43  750C              jnz 0x8a51
00008A45  8B450C            mov eax,[ebp+0xc]
00008A48  0FB74022          movzx eax,word [eax+0x22]
00008A4C  6685C0            test ax,ax
00008A4F  7407              jz 0x8a58
00008A51  B8FEFFFFFF        mov eax,0xfffffffe
00008A56  EB51              jmp short 0x8aa9
00008A58  8B4508            mov eax,[ebp+0x8]
00008A5B  0FB7501C          movzx edx,word [eax+0x1c]
00008A5F  8B450C            mov eax,[ebp+0xc]
00008A62  6689501C          mov [eax+0x1c],dx
00008A66  8B4508            mov eax,[ebp+0x8]
00008A69  0FB75022          movzx edx,word [eax+0x22]
00008A6D  8B450C            mov eax,[ebp+0xc]
00008A70  66895022          mov [eax+0x22],dx
00008A74  8B4508            mov eax,[ebp+0x8]
00008A77  8B5024            mov edx,[eax+0x24]
00008A7A  8B450C            mov eax,[ebp+0xc]
00008A7D  895024            mov [eax+0x24],edx
00008A80  8B450C            mov eax,[ebp+0xc]
00008A83  8B5004            mov edx,[eax+0x4]
00008A86  8B450C            mov eax,[ebp+0xc]
00008A89  8D4808            lea ecx,[eax+0x8]
00008A8C  8B450C            mov eax,[ebp+0xc]
00008A8F  8B00              mov eax,[eax]
00008A91  8954240C          mov [esp+0xc],edx
00008A95  C744240820000000  mov dword [esp+0x8],0x20
00008A9D  894C2404          mov [esp+0x4],ecx
00008AA1  890424            mov [esp],eax
00008AA4  E81EEDFFFF        call dword 0x77c7
00008AA9  C9                leave
00008AAA  C3                ret
00008AAB  55                push ebp
00008AAC  89E5              mov ebp,esp
00008AAE  83EC18            sub esp,byte +0x18
00008AB1  8B4508            mov eax,[ebp+0x8]
00008AB4  C64008E5          mov byte [eax+0x8],0xe5
00008AB8  8B4508            mov eax,[ebp+0x8]
00008ABB  8B5004            mov edx,[eax+0x4]
00008ABE  8B4508            mov eax,[ebp+0x8]
00008AC1  8D4808            lea ecx,[eax+0x8]
00008AC4  8B4508            mov eax,[ebp+0x8]
00008AC7  8B00              mov eax,[eax]
00008AC9  8954240C          mov [esp+0xc],edx
00008ACD  C744240820000000  mov dword [esp+0x8],0x20
00008AD5  894C2404          mov [esp+0x4],ecx
00008AD9  890424            mov [esp],eax
00008ADC  E8E6ECFFFF        call dword 0x77c7
00008AE1  C9                leave
00008AE2  C3                ret
00008AE3  005589            add [ebp-0x77],dl
00008AE6  E583              in eax,0x83
00008AE8  EC                in al,dx
00008AE9  188B45088B80      sbb [ebx-0x7f74f7bb],cl
00008AEF  8800              mov [eax],al
00008AF1  0000              add [eax],al
00008AF3  85C0              test eax,eax
00008AF5  7530              jnz 0x8b27
00008AF7  837D1000          cmp dword [ebp+0x10],byte +0x0
00008AFB  7420              jz 0x8b1d
00008AFD  EB01              jmp short 0x8b00
00008AFF  90                nop
00008B00  FB                sti
00008B01  C704240A000000    mov dword [esp],0xa
00008B08  E80B8CFFFF        call dword 0x1718
00008B0D  FA                cli
00008B0E  8B4508            mov eax,[ebp+0x8]
00008B11  8B8088000000      mov eax,[eax+0x88]
00008B17  85C0              test eax,eax
00008B19  74E4              jz 0x8aff
00008B1B  EB0A              jmp short 0x8b27
00008B1D  B8FFFFFFFF        mov eax,0xffffffff
00008B22  E98F000000        jmp dword 0x8bb6
00008B27  8B4508            mov eax,[ebp+0x8]
00008B2A  8B00              mov eax,[eax]
00008B2C  8B5508            mov edx,[ebp+0x8]
00008B2F  0FB6540208        movzx edx,byte [edx+eax+0x8]
00008B34  8B450C            mov eax,[ebp+0xc]
00008B37  8810              mov [eax],dl
00008B39  8B4508            mov eax,[ebp+0x8]
00008B3C  8B00              mov eax,[eax]
00008B3E  8D5001            lea edx,[eax+0x1]
00008B41  8B4508            mov eax,[ebp+0x8]
00008B44  8910              mov [eax],edx
00008B46  8B4508            mov eax,[ebp+0x8]
00008B49  8B00              mov eax,[eax]
00008B4B  3D80000000        cmp eax,0x80
00008B50  750B              jnz 0x8b5d
00008B52  8B4508            mov eax,[ebp+0x8]
00008B55  C70000000000      mov dword [eax],0x0
00008B5B  EB3F              jmp short 0x8b9c
00008B5D  8B4508            mov eax,[ebp+0x8]
00008B60  8B00              mov eax,[eax]
00008B62  3D80000000        cmp eax,0x80
00008B67  7633              jna 0x8b9c
00008B69  FA                cli
00008B6A  C7442408202C0100  mov dword [esp+0x8],0x12c20
00008B72  C7442404C72B0100  mov dword [esp+0x4],0x12bc7
00008B7A  C70424D12B0100    mov dword [esp],0x12bd1
00008B81  E83E8CFFFF        call dword 0x17c4
00008B86  8B4508            mov eax,[ebp+0x8]
00008B89  8B00              mov eax,[eax]
00008B8B  89442404          mov [esp+0x4],eax
00008B8F  C70424E12B0100    mov dword [esp],0x12be1
00008B96  E8298CFFFF        call dword 0x17c4
00008B9B  F4                hlt
00008B9C  8B4508            mov eax,[ebp+0x8]
00008B9F  8B8088000000      mov eax,[eax+0x88]
00008BA5  8D50FF            lea edx,[eax-0x1]
00008BA8  8B4508            mov eax,[ebp+0x8]
00008BAB  899088000000      mov [eax+0x88],edx
00008BB1  B800000000        mov eax,0x0
00008BB6  C9                leave
00008BB7  C3                ret
00008BB8  55                push ebp
00008BB9  89E5              mov ebp,esp
00008BBB  83EC28            sub esp,byte +0x28
00008BBE  8B450C            mov eax,[ebp+0xc]
00008BC1  8845F4            mov [ebp-0xc],al
00008BC4  8B4508            mov eax,[ebp+0x8]
00008BC7  8B8088000000      mov eax,[eax+0x88]
00008BCD  3D80000000        cmp eax,0x80
00008BD2  7531              jnz 0x8c05
00008BD4  837D1000          cmp dword [ebp+0x10],byte +0x0
00008BD8  7421              jz 0x8bfb
00008BDA  EB01              jmp short 0x8bdd
00008BDC  90                nop
00008BDD  FB                sti
00008BDE  C7042401000000    mov dword [esp],0x1
00008BE5  E82E8BFFFF        call dword 0x1718
00008BEA  FA                cli
00008BEB  8B4508            mov eax,[ebp+0x8]
00008BEE  8B8088000000      mov eax,[eax+0x88]
00008BF4  83F87F            cmp eax,byte +0x7f
00008BF7  77E3              ja 0x8bdc
00008BF9  EB0A              jmp short 0x8c05
00008BFB  B8FFFFFFFF        mov eax,0xffffffff
00008C00  E994000000        jmp dword 0x8c99
00008C05  8B4508            mov eax,[ebp+0x8]
00008C08  8B4004            mov eax,[eax+0x4]
00008C0B  8B5508            mov edx,[ebp+0x8]
00008C0E  0FB64DF4          movzx ecx,byte [ebp-0xc]
00008C12  884C0208          mov [edx+eax+0x8],cl
00008C16  8B4508            mov eax,[ebp+0x8]
00008C19  8B4004            mov eax,[eax+0x4]
00008C1C  8D5001            lea edx,[eax+0x1]
00008C1F  8B4508            mov eax,[ebp+0x8]
00008C22  895004            mov [eax+0x4],edx
00008C25  8B4508            mov eax,[ebp+0x8]
00008C28  8B4004            mov eax,[eax+0x4]
00008C2B  3D80000000        cmp eax,0x80
00008C30  750C              jnz 0x8c3e
00008C32  8B4508            mov eax,[ebp+0x8]
00008C35  C7400400000000    mov dword [eax+0x4],0x0
00008C3C  EB41              jmp short 0x8c7f
00008C3E  8B4508            mov eax,[ebp+0x8]
00008C41  8B4004            mov eax,[eax+0x4]
00008C44  3D80000000        cmp eax,0x80
00008C49  7634              jna 0x8c7f
00008C4B  FA                cli
00008C4C  C7442408102C0100  mov dword [esp+0x8],0x12c10
00008C54  C7442404C72B0100  mov dword [esp+0x4],0x12bc7
00008C5C  C70424D12B0100    mov dword [esp],0x12bd1
00008C63  E85C8BFFFF        call dword 0x17c4
00008C68  8B4508            mov eax,[ebp+0x8]
00008C6B  8B4004            mov eax,[eax+0x4]
00008C6E  89442404          mov [esp+0x4],eax
00008C72  C70424F82B0100    mov dword [esp],0x12bf8
00008C79  E8468BFFFF        call dword 0x17c4
00008C7E  F4                hlt
00008C7F  8B4508            mov eax,[ebp+0x8]
00008C82  8B8088000000      mov eax,[eax+0x88]
00008C88  8D5001            lea edx,[eax+0x1]
00008C8B  8B4508            mov eax,[ebp+0x8]
00008C8E  899088000000      mov [eax+0x88],edx
00008C94  B800000000        mov eax,0x0
00008C99  C9                leave
00008C9A  C3                ret
00008C9B  55                push ebp
00008C9C  89E5              mov ebp,esp
00008C9E  8B4508            mov eax,[ebp+0x8]
00008CA1  8B8088000000      mov eax,[eax+0x88]
00008CA7  85C0              test eax,eax
00008CA9  743A              jz 0x8ce5
00008CAB  8B4508            mov eax,[ebp+0x8]
00008CAE  8B4004            mov eax,[eax+0x4]
00008CB1  85C0              test eax,eax
00008CB3  7411              jz 0x8cc6
00008CB5  8B4508            mov eax,[ebp+0x8]
00008CB8  8B4004            mov eax,[eax+0x4]
00008CBB  8D50FF            lea edx,[eax-0x1]
00008CBE  8B4508            mov eax,[ebp+0x8]
00008CC1  895004            mov [eax+0x4],edx
00008CC4  EB0A              jmp short 0x8cd0
00008CC6  8B4508            mov eax,[ebp+0x8]
00008CC9  C740047F000000    mov dword [eax+0x4],0x7f
00008CD0  8B4508            mov eax,[ebp+0x8]
00008CD3  8B8088000000      mov eax,[eax+0x88]
00008CD9  8D50FF            lea edx,[eax-0x1]
00008CDC  8B4508            mov eax,[ebp+0x8]
00008CDF  899088000000      mov [eax+0x88],edx
00008CE5  5D                pop ebp
00008CE6  C3                ret
00008CE7  55                push ebp
00008CE8  89E5              mov ebp,esp
00008CEA  8B4508            mov eax,[ebp+0x8]
00008CED  C7400400000000    mov dword [eax+0x4],0x0
00008CF4  8B4508            mov eax,[ebp+0x8]
00008CF7  8B5004            mov edx,[eax+0x4]
00008CFA  8B4508            mov eax,[ebp+0x8]
00008CFD  8910              mov [eax],edx
00008CFF  8B4508            mov eax,[ebp+0x8]
00008D02  C780880000000000  mov dword [eax+0x88],0x0
         -0000
00008D0C  5D                pop ebp
00008D0D  C3                ret
00008D0E  0000              add [eax],al
00008D10  55                push ebp
00008D11  89E5              mov ebp,esp
00008D13  83EC28            sub esp,byte +0x28
00008D16  C745F401000000    mov dword [ebp-0xc],0x1
00008D1D  EB34              jmp short 0x8d53
00008D1F  8B45F4            mov eax,[ebp-0xc]
00008D22  83E801            sub eax,byte +0x1
00008D25  69C094000000      imul eax,eax,dword 0x94
00008D2B  05E04C0100        add eax,0x14ce0
00008D30  8B4004            mov eax,[eax+0x4]
00008D33  85C0              test eax,eax
00008D35  7518              jnz 0x8d4f
00008D37  8B45F4            mov eax,[ebp-0xc]
00008D3A  89442404          mov [esp+0x4],eax
00008D3E  C70424302C0100    mov dword [esp],0x12c30
00008D45  E87A8AFFFF        call dword 0x17c4
00008D4A  8B45F4            mov eax,[ebp-0xc]
00008D4D  EB0F              jmp short 0x8d5e
00008D4F  8345F401          add dword [ebp-0xc],byte +0x1
00008D53  837DF440          cmp dword [ebp-0xc],byte +0x40
00008D57  76C6              jna 0x8d1f
00008D59  B800000000        mov eax,0x0
00008D5E  C9                leave
00008D5F  C3                ret
00008D60  55                push ebp
00008D61  89E5              mov ebp,esp
00008D63  83EC18            sub esp,byte +0x18
00008D66  837D0840          cmp dword [ebp+0x8],byte +0x40
00008D6A  762C              jna 0x8d98
00008D6C  FA                cli
00008D6D  C7442408682D0100  mov dword [esp+0x8],0x12d68
00008D75  C7442404422C0100  mov dword [esp+0x4],0x12c42
00008D7D  C704244C2C0100    mov dword [esp],0x12c4c
00008D84  E83B8AFFFF        call dword 0x17c4
00008D89  C704245C2C0100    mov dword [esp],0x12c5c
00008D90  E82F8AFFFF        call dword 0x17c4
00008D95  F4                hlt
00008D96  EB4A              jmp short 0x8de2
00008D98  8B4508            mov eax,[ebp+0x8]
00008D9B  83E801            sub eax,byte +0x1
00008D9E  69C094000000      imul eax,eax,dword 0x94
00008DA4  05E04C0100        add eax,0x14ce0
00008DA9  8B4004            mov eax,[eax+0x4]
00008DAC  83F8FF            cmp eax,byte -0x1
00008DAF  7531              jnz 0x8de2
00008DB1  FA                cli
00008DB2  C7442408682D0100  mov dword [esp+0x8],0x12d68
00008DBA  C7442404422C0100  mov dword [esp+0x4],0x12c42
00008DC2  C704244C2C0100    mov dword [esp],0x12c4c
00008DC9  E8F689FFFF        call dword 0x17c4
00008DCE  8B4508            mov eax,[ebp+0x8]
00008DD1  89442404          mov [esp+0x4],eax
00008DD5  C70424702C0100    mov dword [esp],0x12c70
00008DDC  E8E389FFFF        call dword 0x17c4
00008DE1  F4                hlt
00008DE2  8B4508            mov eax,[ebp+0x8]
00008DE5  83E801            sub eax,byte +0x1
00008DE8  69C094000000      imul eax,eax,dword 0x94
00008DEE  05E04C0100        add eax,0x14ce0
00008DF3  8B4004            mov eax,[eax+0x4]
00008DF6  89442408          mov [esp+0x8],eax
00008DFA  8B4508            mov eax,[ebp+0x8]
00008DFD  89442404          mov [esp+0x4],eax
00008E01  C70424942C0100    mov dword [esp],0x12c94
00008E08  E8B789FFFF        call dword 0x17c4
00008E0D  8B4508            mov eax,[ebp+0x8]
00008E10  83E801            sub eax,byte +0x1
00008E13  69D094000000      imul edx,eax,dword 0x94
00008E19  81C2E04C0100      add edx,0x14ce0
00008E1F  8B5204            mov edx,[edx+0x4]
00008E22  83C201            add edx,byte +0x1
00008E25  69C094000000      imul eax,eax,dword 0x94
00008E2B  05E04C0100        add eax,0x14ce0
00008E30  895004            mov [eax+0x4],edx
00008E33  C9                leave
00008E34  C3                ret
00008E35  55                push ebp
00008E36  89E5              mov ebp,esp
00008E38  83EC18            sub esp,byte +0x18
00008E3B  837D0840          cmp dword [ebp+0x8],byte +0x40
00008E3F  762C              jna 0x8e6d
00008E41  FA                cli
00008E42  C74424085D2D0100  mov dword [esp+0x8],0x12d5d
00008E4A  C7442404422C0100  mov dword [esp+0x4],0x12c42
00008E52  C704244C2C0100    mov dword [esp],0x12c4c
00008E59  E86689FFFF        call dword 0x17c4
00008E5E  C704245C2C0100    mov dword [esp],0x12c5c
00008E65  E85A89FFFF        call dword 0x17c4
00008E6A  F4                hlt
00008E6B  EB49              jmp short 0x8eb6
00008E6D  8B4508            mov eax,[ebp+0x8]
00008E70  83E801            sub eax,byte +0x1
00008E73  69C094000000      imul eax,eax,dword 0x94
00008E79  05E04C0100        add eax,0x14ce0
00008E7E  8B4004            mov eax,[eax+0x4]
00008E81  85C0              test eax,eax
00008E83  7531              jnz 0x8eb6
00008E85  FA                cli
00008E86  C74424085D2D0100  mov dword [esp+0x8],0x12d5d
00008E8E  C7442404422C0100  mov dword [esp+0x4],0x12c42
00008E96  C704244C2C0100    mov dword [esp],0x12c4c
00008E9D  E82289FFFF        call dword 0x17c4
00008EA2  8B4508            mov eax,[ebp+0x8]
00008EA5  89442404          mov [esp+0x4],eax
00008EA9  C70424C42C0100    mov dword [esp],0x12cc4
00008EB0  E80F89FFFF        call dword 0x17c4
00008EB5  F4                hlt
00008EB6  8B4508            mov eax,[ebp+0x8]
00008EB9  83E801            sub eax,byte +0x1
00008EBC  69C094000000      imul eax,eax,dword 0x94
00008EC2  05E04C0100        add eax,0x14ce0
00008EC7  8B4004            mov eax,[eax+0x4]
00008ECA  89442408          mov [esp+0x8],eax
00008ECE  8B4508            mov eax,[ebp+0x8]
00008ED1  89442404          mov [esp+0x4],eax
00008ED5  C70424F42C0100    mov dword [esp],0x12cf4
00008EDC  E8E388FFFF        call dword 0x17c4
00008EE1  8B4508            mov eax,[ebp+0x8]
00008EE4  83E801            sub eax,byte +0x1
00008EE7  69D094000000      imul edx,eax,dword 0x94
00008EED  81C2E04C0100      add edx,0x14ce0
00008EF3  8B5204            mov edx,[edx+0x4]
00008EF6  83EA01            sub edx,byte +0x1
00008EF9  69C094000000      imul eax,eax,dword 0x94
00008EFF  05E04C0100        add eax,0x14ce0
00008F04  895004            mov [eax+0x4],edx
00008F07  8B4508            mov eax,[ebp+0x8]
00008F0A  83E801            sub eax,byte +0x1
00008F0D  69C094000000      imul eax,eax,dword 0x94
00008F13  05E04C0100        add eax,0x14ce0
00008F18  8B4004            mov eax,[eax+0x4]
00008F1B  85C0              test eax,eax
00008F1D  7513              jnz 0x8f32
00008F1F  8B4508            mov eax,[ebp+0x8]
00008F22  89442404          mov [esp+0x4],eax
00008F26  C70424232D0100    mov dword [esp],0x12d23
00008F2D  E89288FFFF        call dword 0x17c4
00008F32  C9                leave
00008F33  C3                ret
00008F34  55                push ebp
00008F35  89E5              mov ebp,esp
00008F37  83EC10            sub esp,byte +0x10
00008F3A  A180AA0300        mov eax,[0x3aa80]
00008F3F  C1E007            shl eax,0x7
00008F42  89C2              mov edx,eax
00008F44  C1E204            shl edx,0x4
00008F47  01D0              add eax,edx
00008F49  05808A0100        add eax,0x18a80
00008F4E  8945F8            mov [ebp-0x8],eax
00008F51  C745FC00000000    mov dword [ebp-0x4],0x0
00008F58  EB37              jmp short 0x8f91
00008F5A  8B45F8            mov eax,[ebp-0x8]
00008F5D  8B55FC            mov edx,[ebp-0x4]
00008F60  83C207            add edx,byte +0x7
00008F63  C1E204            shl edx,0x4
00008F66  01D0              add eax,edx
00008F68  83C008            add eax,byte +0x8
00008F6B  8B00              mov eax,[eax]
00008F6D  85C0              test eax,eax
00008F6F  751C              jnz 0x8f8d
00008F71  8B45F8            mov eax,[ebp-0x8]
00008F74  8B55FC            mov edx,[ebp-0x4]
00008F77  83C207            add edx,byte +0x7
00008F7A  C1E204            shl edx,0x4
00008F7D  01D0              add eax,edx
00008F7F  83C008            add eax,byte +0x8
00008F82  C70001000000      mov dword [eax],0x1
00008F88  8B45FC            mov eax,[ebp-0x4]
00008F8B  EB0F              jmp short 0x8f9c
00008F8D  8345FC01          add dword [ebp-0x4],byte +0x1
00008F91  837DFC1F          cmp dword [ebp-0x4],byte +0x1f
00008F95  7EC3              jng 0x8f5a
00008F97  B8FFFFFFFF        mov eax,0xffffffff
00008F9C  C9                leave
00008F9D  C3                ret
00008F9E  55                push ebp
00008F9F  89E5              mov ebp,esp
00008FA1  83EC18            sub esp,byte +0x18
00008FA4  837D0800          cmp dword [ebp+0x8],byte +0x0
00008FA8  7806              js 0x8fb0
00008FAA  837D081F          cmp dword [ebp+0x8],byte +0x1f
00008FAE  7E31              jng 0x8fe1
00008FB0  FA                cli
00008FB1  C7442408512D0100  mov dword [esp+0x8],0x12d51
00008FB9  C7442404422C0100  mov dword [esp+0x4],0x12c42
00008FC1  C704244C2C0100    mov dword [esp],0x12c4c
00008FC8  E8F787FFFF        call dword 0x17c4
00008FCD  8B4508            mov eax,[ebp+0x8]
00008FD0  89442404          mov [esp+0x4],eax
00008FD4  C704243A2D0100    mov dword [esp],0x12d3a
00008FDB  E8E487FFFF        call dword 0x17c4
00008FE0  F4                hlt
00008FE1  A180AA0300        mov eax,[0x3aa80]
00008FE6  C1E003            shl eax,0x3
00008FE9  89C2              mov edx,eax
00008FEB  C1E204            shl edx,0x4
00008FEE  01D0              add eax,edx
00008FF0  034508            add eax,[ebp+0x8]
00008FF3  83C007            add eax,byte +0x7
00008FF6  C1E004            shl eax,0x4
00008FF9  05888A0100        add eax,0x18a88
00008FFE  C70000000000      mov dword [eax],0x0
00009004  C9                leave
00009005  C3                ret
00009006  0000              add [eax],al
00009008  55                push ebp
00009009  89E5              mov ebp,esp
0000900B  53                push ebx
0000900C  83EC24            sub esp,byte +0x24
0000900F  A180AA0300        mov eax,[0x3aa80]
00009014  C1E007            shl eax,0x7
00009017  89C2              mov edx,eax
00009019  C1E204            shl edx,0x4
0000901C  01D0              add eax,edx
0000901E  0570020000        add eax,0x270
00009023  05808A0100        add eax,0x18a80
00009028  83C008            add eax,byte +0x8
0000902B  890424            mov [esp],eax
0000902E  E80F84FFFF        call dword 0x1442
00009033  8945E8            mov [ebp-0x18],eax
00009036  8B4508            mov eax,[ebp+0x8]
00009039  890424            mov [esp],eax
0000903C  E80184FFFF        call dword 0x1442
00009041  8945F4            mov [ebp-0xc],eax
00009044  8B4508            mov eax,[ebp+0x8]
00009047  0FB600            movzx eax,byte [eax]
0000904A  3C2F              cmp al,0x2f
0000904C  7509              jnz 0x9057
0000904E  817DF4FF030000    cmp dword [ebp-0xc],0x3ff
00009055  771C              ja 0x9073
00009057  8B4508            mov eax,[ebp+0x8]
0000905A  0FB600            movzx eax,byte [eax]
0000905D  3C2F              cmp al,0x2f
0000905F  741C              jz 0x907d
00009061  8B45F4            mov eax,[ebp-0xc]
00009064  8B55E8            mov edx,[ebp-0x18]
00009067  01D0              add eax,edx
00009069  83C001            add eax,byte +0x1
0000906C  3DFF030000        cmp eax,0x3ff
00009071  760A              jna 0x907d
00009073  B8FEFFFFFF        mov eax,0xfffffffe
00009078  E971020000        jmp dword 0x92ee
0000907D  8B4508            mov eax,[ebp+0x8]
00009080  0FB600            movzx eax,byte [eax]
00009083  3C2F              cmp al,0x2f
00009085  0F84A3000000      jz dword 0x912e
0000908B  A180AA0300        mov eax,[0x3aa80]
00009090  C1E007            shl eax,0x7
00009093  89C2              mov edx,eax
00009095  C1E204            shl edx,0x4
00009098  01D0              add eax,edx
0000909A  0570020000        add eax,0x270
0000909F  05808A0100        add eax,0x18a80
000090A4  8D5008            lea edx,[eax+0x8]
000090A7  8B45E8            mov eax,[ebp-0x18]
000090AA  89442408          mov [esp+0x8],eax
000090AE  89542404          mov [esp+0x4],edx
000090B2  C70424E0FF0300    mov dword [esp],0x3ffe0
000090B9  E82783FFFF        call dword 0x13e5
000090BE  8B45E8            mov eax,[ebp-0x18]
000090C1  05E0FF0300        add eax,0x3ffe0
000090C6  C744240801000000  mov dword [esp+0x8],0x1
000090CE  C7442404742D0100  mov dword [esp+0x4],0x12d74
000090D6  890424            mov [esp],eax
000090D9  E80783FFFF        call dword 0x13e5
000090DE  B800040000        mov eax,0x400
000090E3  2B45E8            sub eax,[ebp-0x18]
000090E6  8B55E8            mov edx,[ebp-0x18]
000090E9  83C201            add edx,byte +0x1
000090EC  81C2E0FF0300      add edx,0x3ffe0
000090F2  89442408          mov [esp+0x8],eax
000090F6  8B4508            mov eax,[ebp+0x8]
000090F9  89442404          mov [esp+0x4],eax
000090FD  891424            mov [esp],edx
00009100  E8E082FFFF        call dword 0x13e5
00009105  C744240801040000  mov dword [esp+0x8],0x401
0000910D  C7442404E0FF0300  mov dword [esp+0x4],0x3ffe0
00009115  8B4508            mov eax,[ebp+0x8]
00009118  890424            mov [esp],eax
0000911B  E8C582FFFF        call dword 0x13e5
00009120  8B4508            mov eax,[ebp+0x8]
00009123  890424            mov [esp],eax
00009126  E81783FFFF        call dword 0x1442
0000912B  8945F4            mov [ebp-0xc],eax
0000912E  C745F000000000    mov dword [ebp-0x10],0x0
00009135  E9A7010000        jmp dword 0x92e1
0000913A  8B45F0            mov eax,[ebp-0x10]
0000913D  83C001            add eax,byte +0x1
00009140  034508            add eax,[ebp+0x8]
00009143  0FB600            movzx eax,byte [eax]
00009146  3C2E              cmp al,0x2e
00009148  0F8522010000      jnz dword 0x9270
0000914E  8B45F0            mov eax,[ebp-0x10]
00009151  83C002            add eax,byte +0x2
00009154  034508            add eax,[ebp+0x8]
00009157  0FB600            movzx eax,byte [eax]
0000915A  3C2E              cmp al,0x2e
0000915C  0F85B7000000      jnz dword 0x9219
00009162  8B45F0            mov eax,[ebp-0x10]
00009165  83C003            add eax,byte +0x3
00009168  034508            add eax,[ebp+0x8]
0000916B  0FB600            movzx eax,byte [eax]
0000916E  3C2F              cmp al,0x2f
00009170  7414              jz 0x9186
00009172  8B45F0            mov eax,[ebp-0x10]
00009175  83C003            add eax,byte +0x3
00009178  034508            add eax,[ebp+0x8]
0000917B  0FB600            movzx eax,byte [eax]
0000917E  84C0              test al,al
00009180  0F858A000000      jnz dword 0x9210
00009186  837DF000          cmp dword [ebp-0x10],byte +0x0
0000918A  7439              jz 0x91c5
0000918C  8B45F0            mov eax,[ebp-0x10]
0000918F  83E801            sub eax,byte +0x1
00009192  8945EC            mov [ebp-0x14],eax
00009195  EB04              jmp short 0x919b
00009197  836DEC01          sub dword [ebp-0x14],byte +0x1
0000919B  837DEC00          cmp dword [ebp-0x14],byte +0x0
0000919F  780D              js 0x91ae
000091A1  8B45EC            mov eax,[ebp-0x14]
000091A4  034508            add eax,[ebp+0x8]
000091A7  0FB600            movzx eax,byte [eax]
000091AA  3C2F              cmp al,0x2f
000091AC  75E9              jnz 0x9197
000091AE  8B45EC            mov eax,[ebp-0x14]
000091B1  034508            add eax,[ebp+0x8]
000091B4  0FB600            movzx eax,byte [eax]
000091B7  3C2F              cmp al,0x2f
000091B9  7410              jz 0x91cb
000091BB  B8FEFFFFFF        mov eax,0xfffffffe
000091C0  E929010000        jmp dword 0x92ee
000091C5  8B45F0            mov eax,[ebp-0x10]
000091C8  8945EC            mov [ebp-0x14],eax
000091CB  B800040000        mov eax,0x400
000091D0  2B45EC            sub eax,[ebp-0x14]
000091D3  89C1              mov ecx,eax
000091D5  8B45F0            mov eax,[ebp-0x10]
000091D8  83C003            add eax,byte +0x3
000091DB  89C2              mov edx,eax
000091DD  035508            add edx,[ebp+0x8]
000091E0  8B45EC            mov eax,[ebp-0x14]
000091E3  034508            add eax,[ebp+0x8]
000091E6  894C2408          mov [esp+0x8],ecx
000091EA  89542404          mov [esp+0x4],edx
000091EE  890424            mov [esp],eax
000091F1  E8EF81FFFF        call dword 0x13e5
000091F6  8B45EC            mov eax,[ebp-0x14]
000091F9  2B45F0            sub eax,[ebp-0x10]
000091FC  0345F4            add eax,[ebp-0xc]
000091FF  83E803            sub eax,byte +0x3
00009202  8945F4            mov [ebp-0xc],eax
00009205  8B45EC            mov eax,[ebp-0x14]
00009208  8945F0            mov [ebp-0x10],eax
0000920B  E9B2000000        jmp dword 0x92c2
00009210  8345F003          add dword [ebp-0x10],byte +0x3
00009214  E9A9000000        jmp dword 0x92c2
00009219  8B45F0            mov eax,[ebp-0x10]
0000921C  83C002            add eax,byte +0x2
0000921F  034508            add eax,[ebp+0x8]
00009222  0FB600            movzx eax,byte [eax]
00009225  3C2F              cmp al,0x2f
00009227  7410              jz 0x9239
00009229  8B45F0            mov eax,[ebp-0x10]
0000922C  83C002            add eax,byte +0x2
0000922F  034508            add eax,[ebp+0x8]
00009232  0FB600            movzx eax,byte [eax]
00009235  84C0              test al,al
00009237  7531              jnz 0x926a
00009239  B800040000        mov eax,0x400
0000923E  89C2              mov edx,eax
00009240  2B55F0            sub edx,[ebp-0x10]
00009243  8B45F0            mov eax,[ebp-0x10]
00009246  83C002            add eax,byte +0x2
00009249  034508            add eax,[ebp+0x8]
0000924C  8B4DF0            mov ecx,[ebp-0x10]
0000924F  8B5D08            mov ebx,[ebp+0x8]
00009252  01D9              add ecx,ebx
00009254  89542408          mov [esp+0x8],edx
00009258  89442404          mov [esp+0x4],eax
0000925C  890C24            mov [esp],ecx
0000925F  E88181FFFF        call dword 0x13e5
00009264  836DF402          sub dword [ebp-0xc],byte +0x2
00009268  EB58              jmp short 0x92c2
0000926A  8345F001          add dword [ebp-0x10],byte +0x1
0000926E  EB52              jmp short 0x92c2
00009270  8B45F0            mov eax,[ebp-0x10]
00009273  83C001            add eax,byte +0x1
00009276  034508            add eax,[ebp+0x8]
00009279  0FB600            movzx eax,byte [eax]
0000927C  3C2F              cmp al,0x2f
0000927E  7410              jz 0x9290
00009280  8B45F0            mov eax,[ebp-0x10]
00009283  83C001            add eax,byte +0x1
00009286  034508            add eax,[ebp+0x8]
00009289  0FB600            movzx eax,byte [eax]
0000928C  84C0              test al,al
0000928E  754D              jnz 0x92dd
00009290  B800040000        mov eax,0x400
00009295  89C2              mov edx,eax
00009297  2B55F0            sub edx,[ebp-0x10]
0000929A  8B45F0            mov eax,[ebp-0x10]
0000929D  83C001            add eax,byte +0x1
000092A0  034508            add eax,[ebp+0x8]
000092A3  8B4DF0            mov ecx,[ebp-0x10]
000092A6  8B5D08            mov ebx,[ebp+0x8]
000092A9  01D9              add ecx,ebx
000092AB  89542408          mov [esp+0x8],edx
000092AF  89442404          mov [esp+0x4],eax
000092B3  890C24            mov [esp],ecx
000092B6  E82A81FFFF        call dword 0x13e5
000092BB  836DF401          sub dword [ebp-0xc],byte +0x1
000092BF  EB01              jmp short 0x92c2
000092C1  90                nop
000092C2  8B45F0            mov eax,[ebp-0x10]
000092C5  8B5508            mov edx,[ebp+0x8]
000092C8  01D0              add eax,edx
000092CA  0FB600            movzx eax,byte [eax]
000092CD  3C2F              cmp al,0x2f
000092CF  750C              jnz 0x92dd
000092D1  8B45F0            mov eax,[ebp-0x10]
000092D4  3B45F4            cmp eax,[ebp-0xc]
000092D7  0F825DFEFFFF      jc dword 0x913a
000092DD  8345F001          add dword [ebp-0x10],byte +0x1
000092E1  8B45F0            mov eax,[ebp-0x10]
000092E4  3B45F4            cmp eax,[ebp-0xc]
000092E7  72D8              jc 0x92c1
000092E9  B800000000        mov eax,0x0
000092EE  83C424            add esp,byte +0x24
000092F1  5B                pop ebx
000092F2  5D                pop ebp
000092F3  C3                ret
000092F4  55                push ebp
000092F5  89E5              mov ebp,esp
000092F7  83EC78            sub esp,byte +0x78
000092FA  A100F50300        mov eax,[0x3f500]
000092FF  894598            mov [ebp-0x68],eax
00009302  A104F50300        mov eax,[0x3f504]
00009307  89459C            mov [ebp-0x64],eax
0000930A  A108F50300        mov eax,[0x3f508]
0000930F  8945A0            mov [ebp-0x60],eax
00009312  A10CF50300        mov eax,[0x3f50c]
00009317  8945A4            mov [ebp-0x5c],eax
0000931A  A110F50300        mov eax,[0x3f510]
0000931F  8945A8            mov [ebp-0x58],eax
00009322  A114F50300        mov eax,[0x3f514]
00009327  8945AC            mov [ebp-0x54],eax
0000932A  A118F50300        mov eax,[0x3f518]
0000932F  8945B0            mov [ebp-0x50],eax
00009332  A11CF50300        mov eax,[0x3f51c]
00009337  8945B4            mov [ebp-0x4c],eax
0000933A  A120F50300        mov eax,[0x3f520]
0000933F  8945B8            mov [ebp-0x48],eax
00009342  A124F50300        mov eax,[0x3f524]
00009347  8945BC            mov [ebp-0x44],eax
0000934A  8B4508            mov eax,[ebp+0x8]
0000934D  8945F4            mov [ebp-0xc],eax
00009350  E9DC000000        jmp dword 0x9431
00009355  8B4598            mov eax,[ebp-0x68]
00009358  8945C0            mov [ebp-0x40],eax
0000935B  8B459C            mov eax,[ebp-0x64]
0000935E  8945C4            mov [ebp-0x3c],eax
00009361  8B45A0            mov eax,[ebp-0x60]
00009364  8945C8            mov [ebp-0x38],eax
00009367  8B45A4            mov eax,[ebp-0x5c]
0000936A  8945CC            mov [ebp-0x34],eax
0000936D  8B45A8            mov eax,[ebp-0x58]
00009370  8945D0            mov [ebp-0x30],eax
00009373  8B45AC            mov eax,[ebp-0x54]
00009376  8945D4            mov [ebp-0x2c],eax
00009379  8B45B0            mov eax,[ebp-0x50]
0000937C  8945D8            mov [ebp-0x28],eax
0000937F  8B45B4            mov eax,[ebp-0x4c]
00009382  8945DC            mov [ebp-0x24],eax
00009385  8B45B8            mov eax,[ebp-0x48]
00009388  8945E0            mov [ebp-0x20],eax
0000938B  8B45BC            mov eax,[ebp-0x44]
0000938E  8945E4            mov [ebp-0x1c],eax
00009391  8B45F4            mov eax,[ebp-0xc]
00009394  83C001            add eax,byte +0x1
00009397  8945F0            mov [ebp-0x10],eax
0000939A  8345F401          add dword [ebp-0xc],byte +0x1
0000939E  EB04              jmp short 0x93a4
000093A0  8345F401          add dword [ebp-0xc],byte +0x1
000093A4  8B45F4            mov eax,[ebp-0xc]
000093A7  0FB600            movzx eax,byte [eax]
000093AA  3C2F              cmp al,0x2f
000093AC  740A              jz 0x93b8
000093AE  8B45F4            mov eax,[ebp-0xc]
000093B1  0FB600            movzx eax,byte [eax]
000093B4  84C0              test al,al
000093B6  75E8              jnz 0x93a0
000093B8  8B55F4            mov edx,[ebp-0xc]
000093BB  8B45F0            mov eax,[ebp-0x10]
000093BE  89D1              mov ecx,edx
000093C0  29C1              sub ecx,eax
000093C2  89C8              mov eax,ecx
000093C4  3DFF000000        cmp eax,0xff
000093C9  7E0A              jng 0x93d5
000093CB  B8FEFFFFFF        mov eax,0xfffffffe
000093D0  E9AD000000        jmp dword 0x9482
000093D5  8B55F4            mov edx,[ebp-0xc]
000093D8  8B45F0            mov eax,[ebp-0x10]
000093DB  89D1              mov ecx,edx
000093DD  29C1              sub ecx,eax
000093DF  89C8              mov eax,ecx
000093E1  8945EC            mov [ebp-0x14],eax
000093E4  8B45EC            mov eax,[ebp-0x14]
000093E7  89442408          mov [esp+0x8],eax
000093EB  8B45F0            mov eax,[ebp-0x10]
000093EE  89442404          mov [esp+0x4],eax
000093F2  C7042480F90300    mov dword [esp],0x3f980
000093F9  E8E77FFFFF        call dword 0x13e5
000093FE  8B45EC            mov eax,[ebp-0x14]
00009401  0580F90300        add eax,0x3f980
00009406  C60000            mov byte [eax],0x0
00009409  C744240880F90300  mov dword [esp+0x8],0x3f980
00009411  8D4598            lea eax,[ebp-0x68]
00009414  89442404          mov [esp+0x4],eax
00009418  8D45C0            lea eax,[ebp-0x40]
0000941B  890424            mov [esp],eax
0000941E  E818EDFFFF        call dword 0x813b
00009423  8945E8            mov [ebp-0x18],eax
00009426  837DE800          cmp dword [ebp-0x18],byte +0x0
0000942A  7405              jz 0x9431
0000942C  8B45E8            mov eax,[ebp-0x18]
0000942F  EB51              jmp short 0x9482
00009431  8B45F4            mov eax,[ebp-0xc]
00009434  0FB600            movzx eax,byte [eax]
00009437  84C0              test al,al
00009439  0F8516FFFFFF      jnz dword 0x9355
0000943F  8B450C            mov eax,[ebp+0xc]
00009442  8B5598            mov edx,[ebp-0x68]
00009445  8910              mov [eax],edx
00009447  8B559C            mov edx,[ebp-0x64]
0000944A  895004            mov [eax+0x4],edx
0000944D  8B55A0            mov edx,[ebp-0x60]
00009450  895008            mov [eax+0x8],edx
00009453  8B55A4            mov edx,[ebp-0x5c]
00009456  89500C            mov [eax+0xc],edx
00009459  8B55A8            mov edx,[ebp-0x58]
0000945C  895010            mov [eax+0x10],edx
0000945F  8B55AC            mov edx,[ebp-0x54]
00009462  895014            mov [eax+0x14],edx
00009465  8B55B0            mov edx,[ebp-0x50]
00009468  895018            mov [eax+0x18],edx
0000946B  8B55B4            mov edx,[ebp-0x4c]
0000946E  89501C            mov [eax+0x1c],edx
00009471  8B55B8            mov edx,[ebp-0x48]
00009474  895020            mov [eax+0x20],edx
00009477  8B55BC            mov edx,[ebp-0x44]
0000947A  895024            mov [eax+0x24],edx
0000947D  B800000000        mov eax,0x0
00009482  C9                leave
00009483  C3                ret
00009484  55                push ebp
00009485  89E5              mov ebp,esp
00009487  83EC78            sub esp,byte +0x78
0000948A  A100F50300        mov eax,[0x3f500]
0000948F  894598            mov [ebp-0x68],eax
00009492  A104F50300        mov eax,[0x3f504]
00009497  89459C            mov [ebp-0x64],eax
0000949A  A108F50300        mov eax,[0x3f508]
0000949F  8945A0            mov [ebp-0x60],eax
000094A2  A10CF50300        mov eax,[0x3f50c]
000094A7  8945A4            mov [ebp-0x5c],eax
000094AA  A110F50300        mov eax,[0x3f510]
000094AF  8945A8            mov [ebp-0x58],eax
000094B2  A114F50300        mov eax,[0x3f514]
000094B7  8945AC            mov [ebp-0x54],eax
000094BA  A118F50300        mov eax,[0x3f518]
000094BF  8945B0            mov [ebp-0x50],eax
000094C2  A11CF50300        mov eax,[0x3f51c]
000094C7  8945B4            mov [ebp-0x4c],eax
000094CA  A120F50300        mov eax,[0x3f520]
000094CF  8945B8            mov [ebp-0x48],eax
000094D2  A124F50300        mov eax,[0x3f524]
000094D7  8945BC            mov [ebp-0x44],eax
000094DA  8B4508            mov eax,[ebp+0x8]
000094DD  8945F4            mov [ebp-0xc],eax
000094E0  E9B8010000        jmp dword 0x969d
000094E5  8B4598            mov eax,[ebp-0x68]
000094E8  8945C0            mov [ebp-0x40],eax
000094EB  8B459C            mov eax,[ebp-0x64]
000094EE  8945C4            mov [ebp-0x3c],eax
000094F1  8B45A0            mov eax,[ebp-0x60]
000094F4  8945C8            mov [ebp-0x38],eax
000094F7  8B45A4            mov eax,[ebp-0x5c]
000094FA  8945CC            mov [ebp-0x34],eax
000094FD  8B45A8            mov eax,[ebp-0x58]
00009500  8945D0            mov [ebp-0x30],eax
00009503  8B45AC            mov eax,[ebp-0x54]
00009506  8945D4            mov [ebp-0x2c],eax
00009509  8B45B0            mov eax,[ebp-0x50]
0000950C  8945D8            mov [ebp-0x28],eax
0000950F  8B45B4            mov eax,[ebp-0x4c]
00009512  8945DC            mov [ebp-0x24],eax
00009515  8B45B8            mov eax,[ebp-0x48]
00009518  8945E0            mov [ebp-0x20],eax
0000951B  8B45BC            mov eax,[ebp-0x44]
0000951E  8945E4            mov [ebp-0x1c],eax
00009521  8B45F4            mov eax,[ebp-0xc]
00009524  83C001            add eax,byte +0x1
00009527  8945EC            mov [ebp-0x14],eax
0000952A  8345F401          add dword [ebp-0xc],byte +0x1
0000952E  EB04              jmp short 0x9534
00009530  8345F401          add dword [ebp-0xc],byte +0x1
00009534  8B45F4            mov eax,[ebp-0xc]
00009537  0FB600            movzx eax,byte [eax]
0000953A  3C2F              cmp al,0x2f
0000953C  740A              jz 0x9548
0000953E  8B45F4            mov eax,[ebp-0xc]
00009541  0FB600            movzx eax,byte [eax]
00009544  84C0              test al,al
00009546  75E8              jnz 0x9530
00009548  8B55F4            mov edx,[ebp-0xc]
0000954B  8B45EC            mov eax,[ebp-0x14]
0000954E  89D1              mov ecx,edx
00009550  29C1              sub ecx,eax
00009552  89C8              mov eax,ecx
00009554  3DFF000000        cmp eax,0xff
00009559  7E0A              jng 0x9565
0000955B  B8FEFFFFFF        mov eax,0xfffffffe
00009560  E989010000        jmp dword 0x96ee
00009565  8B55F4            mov edx,[ebp-0xc]
00009568  8B45EC            mov eax,[ebp-0x14]
0000956B  89D1              mov ecx,edx
0000956D  29C1              sub ecx,eax
0000956F  89C8              mov eax,ecx
00009571  8945E8            mov [ebp-0x18],eax
00009574  8B45E8            mov eax,[ebp-0x18]
00009577  89442408          mov [esp+0x8],eax
0000957B  8B45EC            mov eax,[ebp-0x14]
0000957E  89442404          mov [esp+0x4],eax
00009582  C7042480F90300    mov dword [esp],0x3f980
00009589  E8577EFFFF        call dword 0x13e5
0000958E  8B45E8            mov eax,[ebp-0x18]
00009591  0580F90300        add eax,0x3f980
00009596  C60000            mov byte [eax],0x0
00009599  C744240880F90300  mov dword [esp+0x8],0x3f980
000095A1  8D4598            lea eax,[ebp-0x68]
000095A4  89442404          mov [esp+0x4],eax
000095A8  8D45C0            lea eax,[ebp-0x40]
000095AB  890424            mov [esp],eax
000095AE  E888EBFFFF        call dword 0x813b
000095B3  8945F0            mov [ebp-0x10],eax
000095B6  837DF0FB          cmp dword [ebp-0x10],byte -0x5
000095BA  0F85D2000000      jnz dword 0x9692
000095C0  8B45F4            mov eax,[ebp-0xc]
000095C3  0FB600            movzx eax,byte [eax]
000095C6  3C2F              cmp al,0x2f
000095C8  7545              jnz 0x960f
000095CA  8D45C0            lea eax,[ebp-0x40]
000095CD  83C008            add eax,byte +0x8
000095D0  89442408          mov [esp+0x8],eax
000095D4  C744240480F90300  mov dword [esp+0x4],0x3f980
000095DC  C70424782D0100    mov dword [esp],0x12d78
000095E3  E8DC81FFFF        call dword 0x17c4
000095E8  C744240C01000000  mov dword [esp+0xc],0x1
000095F0  C744240880F90300  mov dword [esp+0x8],0x3f980
000095F8  8D4598            lea eax,[ebp-0x68]
000095FB  89442404          mov [esp+0x4],eax
000095FF  8D45C0            lea eax,[ebp-0x40]
00009602  890424            mov [esp],eax
00009605  E89AEDFFFF        call dword 0x83a4
0000960A  8945F0            mov [ebp-0x10],eax
0000960D  EB78              jmp short 0x9687
0000960F  8B45F4            mov eax,[ebp-0xc]
00009612  0FB600            movzx eax,byte [eax]
00009615  84C0              test al,al
00009617  7544              jnz 0x965d
00009619  8D45C0            lea eax,[ebp-0x40]
0000961C  83C008            add eax,byte +0x8
0000961F  89442408          mov [esp+0x8],eax
00009623  C744240480F90300  mov dword [esp+0x4],0x3f980
0000962B  C70424992D0100    mov dword [esp],0x12d99
00009632  E88D81FFFF        call dword 0x17c4
00009637  8B450C            mov eax,[ebp+0xc]
0000963A  8944240C          mov [esp+0xc],eax
0000963E  C744240880F90300  mov dword [esp+0x8],0x3f980
00009646  8D4598            lea eax,[ebp-0x68]
00009649  89442404          mov [esp+0x4],eax
0000964D  8D45C0            lea eax,[ebp-0x40]
00009650  890424            mov [esp],eax
00009653  E84CEDFFFF        call dword 0x83a4
00009658  8945F0            mov [ebp-0x10],eax
0000965B  EB2A              jmp short 0x9687
0000965D  FA                cli
0000965E  C7442408DF2D0100  mov dword [esp+0x8],0x12ddf
00009666  C7442404B52D0100  mov dword [esp+0x4],0x12db5
0000966E  C70424BF2D0100    mov dword [esp],0x12dbf
00009675  E84A81FFFF        call dword 0x17c4
0000967A  C70424CF2D0100    mov dword [esp],0x12dcf
00009681  E83E81FFFF        call dword 0x17c4
00009686  F4                hlt
00009687  837DF000          cmp dword [ebp-0x10],byte +0x0
0000968B  7410              jz 0x969d
0000968D  8B45F0            mov eax,[ebp-0x10]
00009690  EB5C              jmp short 0x96ee
00009692  837DF000          cmp dword [ebp-0x10],byte +0x0
00009696  7405              jz 0x969d
00009698  8B45F0            mov eax,[ebp-0x10]
0000969B  EB51              jmp short 0x96ee
0000969D  8B45F4            mov eax,[ebp-0xc]
000096A0  0FB600            movzx eax,byte [eax]
000096A3  84C0              test al,al
000096A5  0F853AFEFFFF      jnz dword 0x94e5
000096AB  8B4510            mov eax,[ebp+0x10]
000096AE  8B5598            mov edx,[ebp-0x68]
000096B1  8910              mov [eax],edx
000096B3  8B559C            mov edx,[ebp-0x64]
000096B6  895004            mov [eax+0x4],edx
000096B9  8B55A0            mov edx,[ebp-0x60]
000096BC  895008            mov [eax+0x8],edx
000096BF  8B55A4            mov edx,[ebp-0x5c]
000096C2  89500C            mov [eax+0xc],edx
000096C5  8B55A8            mov edx,[ebp-0x58]
000096C8  895010            mov [eax+0x10],edx
000096CB  8B55AC            mov edx,[ebp-0x54]
000096CE  895014            mov [eax+0x14],edx
000096D1  8B55B0            mov edx,[ebp-0x50]
000096D4  895018            mov [eax+0x18],edx
000096D7  8B55B4            mov edx,[ebp-0x4c]
000096DA  89501C            mov [eax+0x1c],edx
000096DD  8B55B8            mov edx,[ebp-0x48]
000096E0  895020            mov [eax+0x20],edx
000096E3  8B55BC            mov edx,[ebp-0x44]
000096E6  895024            mov [eax+0x24],edx
000096E9  B800000000        mov eax,0x0
000096EE  C9                leave
000096EF  C3                ret
000096F0  55                push ebp
000096F1  89E5              mov ebp,esp
000096F3  83EC28            sub esp,byte +0x28
000096F6  EB01              jmp short 0x96f9
000096F8  90                nop
000096F9  FB                sti
000096FA  C7042401000000    mov dword [esp],0x1
00009701  E81280FFFF        call dword 0x1718
00009706  FA                cli
00009707  A1ECEF0300        mov eax,[0x3efec]
0000970C  85C0              test eax,eax
0000970E  75E8              jnz 0x96f8
00009710  A180AA0300        mov eax,[0x3aa80]
00009715  A3ECEF0300        mov [0x3efec],eax
0000971A  90                nop
0000971B  A1EC710100        mov eax,[0x171ec]
00009720  83E002            and eax,byte +0x2
00009723  85C0              test eax,eax
00009725  0F84A8010000      jz dword 0x98d3
0000972B  A1E8EF0300        mov eax,[0x3efe8]
00009730  85C0              test eax,eax
00009732  0F85E5000000      jnz dword 0x981d
00009738  C744240801000000  mov dword [esp+0x8],0x1
00009740  8D45EF            lea eax,[ebp-0x11]
00009743  89442404          mov [esp+0x4],eax
00009747  C70424C0EE0300    mov dword [esp],0x3eec0
0000974E  E891F3FFFF        call dword 0x8ae4
00009753  85C0              test eax,eax
00009755  742A              jz 0x9781
00009757  FA                cli
00009758  C7442408742E0100  mov dword [esp+0x8],0x12e74
00009760  C7442404EC2D0100  mov dword [esp+0x4],0x12dec
00009768  C70424F52D0100    mov dword [esp],0x12df5
0000976F  E85080FFFF        call dword 0x17c4
00009774  C70424052E0100    mov dword [esp],0x12e05
0000977B  E84480FFFF        call dword 0x17c4
00009780  F4                hlt
00009781  0FB645EF          movzx eax,byte [ebp-0x11]
00009785  3C08              cmp al,0x8
00009787  750E              jnz 0x9797
00009789  C7042460EF0300    mov dword [esp],0x3ef60
00009790  E806F5FFFF        call dword 0x8c9b
00009795  EB4D              jmp short 0x97e4
00009797  0FB645EF          movzx eax,byte [ebp-0x11]
0000979B  0FB6C0            movzx eax,al
0000979E  C744240801000000  mov dword [esp+0x8],0x1
000097A6  89442404          mov [esp+0x4],eax
000097AA  C7042460EF0300    mov dword [esp],0x3ef60
000097B1  E802F4FFFF        call dword 0x8bb8
000097B6  85C0              test eax,eax
000097B8  742A              jz 0x97e4
000097BA  FA                cli
000097BB  C7442408742E0100  mov dword [esp+0x8],0x12e74
000097C3  C7442404EC2D0100  mov dword [esp+0x4],0x12dec
000097CB  C70424F52D0100    mov dword [esp],0x12df5
000097D2  E8ED7FFFFF        call dword 0x17c4
000097D7  C70424232E0100    mov dword [esp],0x12e23
000097DE  E8E17FFFFF        call dword 0x17c4
000097E3  F4                hlt
000097E4  0FB645EF          movzx eax,byte [ebp-0x11]
000097E8  3C0A              cmp al,0xa
000097EA  7431              jz 0x981d
000097EC  0FB615FB710100    movzx edx,byte [dword 0x171fb]
000097F3  0FB645EF          movzx eax,byte [ebp-0x11]
000097F7  38C2              cmp dl,al
000097F9  7422              jz 0x981d
000097FB  0FB61500720100    movzx edx,byte [dword 0x17200]
00009802  0FB645EF          movzx eax,byte [ebp-0x11]
00009806  38C2              cmp dl,al
00009808  7413              jz 0x981d
0000980A  0FB615F4710100    movzx edx,byte [dword 0x171f4]
00009811  0FB645EF          movzx eax,byte [ebp-0x11]
00009815  38C2              cmp dl,al
00009817  0F851BFFFFFF      jnz dword 0x9738
0000981D  C745F400000000    mov dword [ebp-0xc],0x0
00009824  EB5B              jmp short 0x9881
00009826  C744240800000000  mov dword [esp+0x8],0x0
0000982E  8D45EF            lea eax,[ebp-0x11]
00009831  89442404          mov [esp+0x4],eax
00009835  C7042460EF0300    mov dword [esp],0x3ef60
0000983C  E8A3F2FFFF        call dword 0x8ae4
00009841  85C0              test eax,eax
00009843  742A              jz 0x986f
00009845  FA                cli
00009846  C7442408742E0100  mov dword [esp+0x8],0x12e74
0000984E  C7442404EC2D0100  mov dword [esp+0x4],0x12dec
00009856  C70424F52D0100    mov dword [esp],0x12df5
0000985D  E8627FFFFF        call dword 0x17c4
00009862  C70424382E0100    mov dword [esp],0x12e38
00009869  E8567FFFFF        call dword 0x17c4
0000986E  F4                hlt
0000986F  8B45F4            mov eax,[ebp-0xc]
00009872  8B5508            mov edx,[ebp+0x8]
00009875  01C2              add edx,eax
00009877  0FB645EF          movzx eax,byte [ebp-0x11]
0000987B  8802              mov [edx],al
0000987D  8345F401          add dword [ebp-0xc],byte +0x1
00009881  8B45F4            mov eax,[ebp-0xc]
00009884  3B450C            cmp eax,[ebp+0xc]
00009887  733F              jnc 0x98c8
00009889  837DF400          cmp dword [ebp-0xc],byte +0x0
0000988D  7497              jz 0x9826
0000988F  0FB645EF          movzx eax,byte [ebp-0x11]
00009893  3C0A              cmp al,0xa
00009895  7431              jz 0x98c8
00009897  0FB615FB710100    movzx edx,byte [dword 0x171fb]
0000989E  0FB645EF          movzx eax,byte [ebp-0x11]
000098A2  38C2              cmp dl,al
000098A4  7422              jz 0x98c8
000098A6  0FB61500720100    movzx edx,byte [dword 0x17200]
000098AD  0FB645EF          movzx eax,byte [ebp-0x11]
000098B1  38C2              cmp dl,al
000098B3  7413              jz 0x98c8
000098B5  0FB615F4710100    movzx edx,byte [dword 0x171f4]
000098BC  0FB645EF          movzx eax,byte [ebp-0x11]
000098C0  38C2              cmp dl,al
000098C2  0F855EFFFFFF      jnz dword 0x9826
000098C8  8B45F4            mov eax,[ebp-0xc]
000098CB  8945F0            mov [ebp-0x10],eax
000098CE  E906010000        jmp dword 0x99d9
000098D3  A1E8EF0300        mov eax,[0x3efe8]
000098D8  85C0              test eax,eax
000098DA  0F85AE000000      jnz dword 0x998e
000098E0  C744240801000000  mov dword [esp+0x8],0x1
000098E8  8D45EF            lea eax,[ebp-0x11]
000098EB  89442404          mov [esp+0x4],eax
000098EF  C70424C0EE0300    mov dword [esp],0x3eec0
000098F6  E8E9F1FFFF        call dword 0x8ae4
000098FB  85C0              test eax,eax
000098FD  742A              jz 0x9929
000098FF  FA                cli
00009900  C7442408742E0100  mov dword [esp+0x8],0x12e74
00009908  C7442404EC2D0100  mov dword [esp+0x4],0x12dec
00009910  C70424F52D0100    mov dword [esp],0x12df5
00009917  E8A87EFFFF        call dword 0x17c4
0000991C  C70424052E0100    mov dword [esp],0x12e05
00009923  E89C7EFFFF        call dword 0x17c4
00009928  F4                hlt
00009929  0FB645EF          movzx eax,byte [ebp-0x11]
0000992D  0FB6C0            movzx eax,al
00009930  C744240801000000  mov dword [esp+0x8],0x1
00009938  89442404          mov [esp+0x4],eax
0000993C  C7042460EF0300    mov dword [esp],0x3ef60
00009943  E870F2FFFF        call dword 0x8bb8
00009948  85C0              test eax,eax
0000994A  742A              jz 0x9976
0000994C  FA                cli
0000994D  C7442408742E0100  mov dword [esp+0x8],0x12e74
00009955  C7442404EC2D0100  mov dword [esp+0x4],0x12dec
0000995D  C70424F52D0100    mov dword [esp],0x12df5
00009964  E85B7EFFFF        call dword 0x17c4
00009969  C70424572E0100    mov dword [esp],0x12e57
00009970  E84F7EFFFF        call dword 0x17c4
00009975  F4                hlt
00009976  8B15E8EF0300      mov edx,[dword 0x3efe8]
0000997C  0FB605F6710100    movzx eax,byte [dword 0x171f6]
00009983  0FBEC0            movsx eax,al
00009986  39C2              cmp edx,eax
00009988  0F8252FFFFFF      jc dword 0x98e0
0000998E  C745F400000000    mov dword [ebp-0xc],0x0
00009995  EB31              jmp short 0x99c8
00009997  C744240800000000  mov dword [esp+0x8],0x0
0000999F  8D45EF            lea eax,[ebp-0x11]
000099A2  89442404          mov [esp+0x4],eax
000099A6  C7042460EF0300    mov dword [esp],0x3ef60
000099AD  E832F1FFFF        call dword 0x8ae4
000099B2  85C0              test eax,eax
000099B4  751C              jnz 0x99d2
000099B6  8B45F4            mov eax,[ebp-0xc]
000099B9  8B5508            mov edx,[ebp+0x8]
000099BC  01C2              add edx,eax
000099BE  0FB645EF          movzx eax,byte [ebp-0x11]
000099C2  8802              mov [edx],al
000099C4  8345F401          add dword [ebp-0xc],byte +0x1
000099C8  8B45F4            mov eax,[ebp-0xc]
000099CB  3B450C            cmp eax,[ebp+0xc]
000099CE  72C7              jc 0x9997
000099D0  EB01              jmp short 0x99d3
000099D2  90                nop
000099D3  8B45F4            mov eax,[ebp-0xc]
000099D6  8945F0            mov [ebp-0x10],eax
000099D9  C705ECEF03000000  mov dword [dword 0x3efec],0x0
         -0000
000099E3  8B45F0            mov eax,[ebp-0x10]
000099E6  C9                leave
000099E7  C3                ret
000099E8  55                push ebp
000099E9  89E5              mov ebp,esp
000099EB  83EC38            sub esp,byte +0x38
000099EE  8B4508            mov eax,[ebp+0x8]
000099F1  8845E4            mov [ebp-0x1c],al
000099F4  0FB645E4          movzx eax,byte [ebp-0x1c]
000099F8  0FB6C0            movzx eax,al
000099FB  C744240800000000  mov dword [esp+0x8],0x0
00009A03  89442404          mov [esp+0x4],eax
00009A07  C70424C0EE0300    mov dword [esp],0x3eec0
00009A0E  E8A5F1FFFF        call dword 0x8bb8
00009A13  8945F4            mov [ebp-0xc],eax
00009A16  837DF400          cmp dword [ebp-0xc],byte +0x0
00009A1A  7405              jz 0x9a21
00009A1C  8B45F4            mov eax,[ebp-0xc]
00009A1F  EB11              jmp short 0x9a32
00009A21  0FBE45E4          movsx eax,byte [ebp-0x1c]
00009A25  890424            mov [esp],eax
00009A28  E8188BFFFF        call dword 0x2545
00009A2D  B800000000        mov eax,0x0
00009A32  C9                leave
00009A33  C3                ret
00009A34  55                push ebp
00009A35  89E5              mov ebp,esp
00009A37  83EC28            sub esp,byte +0x28
00009A3A  C745F400000000    mov dword [ebp-0xc],0x0
00009A41  EB25              jmp short 0x9a68
00009A43  8B45F4            mov eax,[ebp-0xc]
00009A46  8B5508            mov edx,[ebp+0x8]
00009A49  01D0              add eax,edx
00009A4B  0FB600            movzx eax,byte [eax]
00009A4E  0FBEC0            movsx eax,al
00009A51  890424            mov [esp],eax
00009A54  E88FFFFFFF        call dword 0x99e8
00009A59  85C0              test eax,eax
00009A5B  7407              jz 0x9a64
00009A5D  B8FFFFFFFF        mov eax,0xffffffff
00009A62  EB0F              jmp short 0x9a73
00009A64  8345F401          add dword [ebp-0xc],byte +0x1
00009A68  8B45F4            mov eax,[ebp-0xc]
00009A6B  3B450C            cmp eax,[ebp+0xc]
00009A6E  72D3              jc 0x9a43
00009A70  8B45F4            mov eax,[ebp-0xc]
00009A73  C9                leave
00009A74  C3                ret
00009A75  0000              add [eax],al
00009A77  00696E            add [ecx+0x6e],ch
00009A7A  6974207069632E2E  imul esi,[eax+0x70],dword 0x2e2e6369
00009A82  2E0900            or [cs:eax],eax
00009A85  6F                outsd
00009A86  6B0A00            imul ecx,[edx],byte +0x0
00009A89  696E6974206764    imul ebp,[esi+0x69],dword 0x64672074
00009A90  742E              jz 0x9ac0
00009A92  2E2E0900          or [cs:eax],eax
00009A96  696E6974206964    imul ebp,[esi+0x69],dword 0x64692074
00009A9D  742E              jz 0x9acd
00009A9F  2E2E0900          or [cs:eax],eax
00009AA3  696E6974207061    imul ebp,[esi+0x69],dword 0x61702074
00009AAA  67696E672E2E2E09  imul ebp,[bp+0x67],dword 0x92e2e2e
00009AB2  00696E            add [ecx+0x6e],ch
00009AB5  6974206174612E2E  imul esi,[eax+0x61],dword 0x2e2e6174
00009ABD  2E0900            or [cs:eax],eax
00009AC0  696E6974206361    imul ebp,[esi+0x69],dword 0x61632074
00009AC7  636865            arpl [eax+0x65],bp
00009ACA  2E2E0900          or [cs:eax],eax
00009ACE  696E6974206661    imul ebp,[esi+0x69],dword 0x61662074
00009AD5  7433              jz 0x9b0a
00009AD7  322E              xor ch,[esi]
00009AD9  2E2E0900          or [cs:eax],eax
00009ADD  0000              add [eax],al
00009ADF  006B65            add [ebx+0x65],ch
00009AE2  726E              jc 0x9b52
00009AE4  656C              gs insb
00009AE6  207374            and [ebx+0x74],dh
00009AE9  61                popad
00009AEA  7274              jc 0x9b60
00009AEC  65640A6D65        or ch,[fs:ebp+0x65]
00009AF1  6D                insd
00009AF2  6F                outsd
00009AF3  7279              jc 0x9b6e
00009AF5  3A20              cmp ah,[eax]
00009AF7  307825            xor [eax+0x25],bh
00009AFA  782F              js 0x9b2b
00009AFC  307825            xor [eax+0x25],bh
00009AFF  7820              js 0x9b21
00009B01  627974            bound edi,[ecx+0x74]
00009B04  657320            gs jnc 0x9b27
00009B07  6C                insb
00009B08  6566740A          gs o16 jz 0x9b16
00009B0C  006B65            add [ebx+0x65],ch
00009B0F  726E              jc 0x9b7f
00009B11  656C              gs insb
00009B13  2F                das
00009B14  6B65726E          imul esp,[ebp+0x72],byte +0x6e
00009B18  656C              gs insb
00009B1A  2E6300            arpl [cs:eax],ax
00009B1D  25733A2025        and eax,0x25203a73
00009B22  733A              jnc 0x9b5e
00009B24  207061            and [eax+0x61],dh
00009B27  6E                outsb
00009B28  69633A20006661    imul esp,[ebx+0x3a],dword 0x61660020
00009B2F  696C656420637265  imul ebp,[ebp+0x64],dword 0x65726320
00009B37  61                popad
00009B38  7469              jz 0x9ba3
00009B3A  6E                outsb
00009B3B  6720726F          and [bp+si+0x6f],dh
00009B3F  6F                outsd
00009B40  7420              jz 0x9b62
00009B42  7072              jo 0x9bb6
00009B44  6F                outsd
00009B45  636573            arpl [ebp+0x73],sp
00009B48  7300              jnc 0x9b4a
00009B4A  0000              add [eax],al
00009B4C  6661              popaw
00009B4E  696C656420737769  imul ebp,[ebp+0x64],dword 0x69777320
00009B56  7463              jz 0x9bbb
00009B58  68696E6720        push dword 0x20676e69
00009B5D  746F              jz 0x9bce
00009B5F  20726F            and [edx+0x6f],dh
00009B62  6F                outsd
00009B63  7420              jz 0x9b85
00009B65  7072              jo 0x9bd9
00009B67  6F                outsd
00009B68  636573            arpl [ebp+0x73],sp
00009B6B  7300              jnc 0x9b6d
00009B6D  2F                das
00009B6E  62696E            bound ebp,[ecx+0x6e]
00009B71  2F                das
00009B72  7368              jnc 0x9bdc
00009B74  006661            add [esi+0x61],ah
00009B77  696C656420666F72  imul ebp,[ebp+0x64],dword 0x726f6620
00009B7F  6B696E67          imul ebp,[ecx+0x6e],byte +0x67
00009B83  006661            add [esi+0x61],ah
00009B86  696C6564206C6F61  imul ebp,[ebp+0x64],dword 0x616f6c20
00009B8E  64696E672062696E  imul ebp,[fs:esi+0x67],dword 0x6e696220
00009B96  61                popad
00009B97  7279              jc 0x9c12
00009B99  00696E            add [ecx+0x6e],ch
00009B9C  636C7564          arpl [ebp+esi*2+0x64],bp
00009BA0  65006661          add [gs:esi+0x61],ah
00009BA4  696C65642066696E  imul ebp,[ebp+0x64],dword 0x6e696620
00009BAC  64696E6720696E63  imul ebp,[fs:esi+0x67],dword 0x636e6920
00009BB4  6C                insb
00009BB5  7564              jnz 0x9c1b
00009BB7  65006D79          add [gs:ebp+0x79],ch
00009BBB  66696C652E7478    imul bp,[ebp+0x2e],word 0x7874
00009BC2  7400              jz 0x9bc4
00009BC4  6661              popaw
00009BC6  696C65642066696E  imul ebp,[ebp+0x64],dword 0x6e696620
00009BCE  64696E672066696C  imul ebp,[fs:esi+0x67],dword 0x6c696620
00009BD6  650A00            or al,[gs:eax]
00009BD9  6661              popaw
00009BDB  696C656420617070  imul ebp,[ebp+0x64],dword 0x70706120
00009BE3  656E              gs outsb
00009BE5  64696E6700666169  imul ebp,[fs:esi+0x67],dword 0x69616600
00009BED  6C                insb
00009BEE  6564207379        and [fs:ebx+0x79],dh
00009BF3  6E                outsb
00009BF4  63696E            arpl [ecx+0x6e],bp
00009BF7  67206669          and [bp+0x69],ah
00009BFB  6C                insb
00009BFC  65207379          and [gs:ebx+0x79],dh
00009C00  7374              jnc 0x9c76
00009C02  656D              gs insd
00009C04  007379            add [ebx+0x79],dh
00009C07  6E                outsb
00009C08  636564            arpl [ebp+0x64],sp
00009C0B  206673            and [esi+0x73],ah
00009C0E  0A00              or al,[eax]
00009C10  6661              popaw
00009C12  696C65642073796E  imul ebp,[ebp+0x64],dword 0x6e797320
00009C1A  63696E            arpl [ecx+0x6e],bp
00009C1D  67206469          and [si+0x69],ah
00009C21  736B              jnc 0x9c8e
00009C23  007379            add [ebx+0x79],dh
00009C26  6E                outsb
00009C27  636564            arpl [ebp+0x64],sp
00009C2A  20646973          and [ecx+ebp*2+0x73],ah
00009C2E  6B0A00            imul ecx,[edx],byte +0x0
00009C31  7461              jz 0x9c94
00009C33  736B              jnc 0x9ca0
00009C35  310A              xor [edx],ecx
00009C37  00746173          add [ecx+0x73],dh
00009C3B  6B320A            imul esi,[edx],byte +0xa
00009C3E  00746173          add [ecx+0x73],dh
00009C42  6B330A            imul esi,[ebx],byte +0xa
00009C45  007061            add [eax+0x61],dh
00009C48  7265              jc 0x9caf
00009C4A  6E                outsb
00009C4B  740A              jz 0x9c57
00009C4D  00736F            add [ebx+0x6f],dh
00009C50  6E                outsb
00009C51  0A00              or al,[eax]
00009C53  657272            gs jc 0x9cc8
00009C56  6F                outsd
00009C57  720A              jc 0x9c63
00009C59  00746173          add [ecx+0x73],dh
00009C5D  6B352028626566    imul esi,[dword 0x65622820],byte +0x66
00009C64  6F                outsd
00009C65  7265              jc 0x9ccc
00009C67  206B69            and [ebx+0x69],ch
00009C6A  6C                insb
00009C6B  6C                insb
00009C6C  207379            and [ebx+0x79],dh
00009C6F  7363              jnc 0x9cd4
00009C71  61                popad
00009C72  6C                insb
00009C73  6C                insb
00009C74  290A              sub [edx],ecx
00009C76  00746173          add [ecx+0x73],dh
00009C7A  6B352028616674    imul esi,[dword 0x66612820],byte +0x74
00009C81  657220            gs jc 0x9ca4
00009C84  6B696C6C          imul ebp,[ecx+0x6c],byte +0x6c
00009C88  207379            and [ebx+0x79],dh
00009C8B  7363              jnc 0x9cf0
00009C8D  61                popad
00009C8E  6C                insb
00009C8F  6C                insb
00009C90  290A              sub [edx],ecx
00009C92  00746173          add [ecx+0x73],dh
00009C96  6B360A            imul esi,[esi],byte +0xa
00009C99  0000              add [eax],al
00009C9B  00746173          add [ecx+0x73],dh
00009C9F  6B3720            imul esi,[edi],byte +0x20
00009CA2  286265            sub [edx+0x65],ah
00009CA5  666F              outsw
00009CA7  7265              jc 0x9d0e
00009CA9  207369            and [ebx+0x69],dh
00009CAC  6761              a16 popad
00009CAE  6374696F          arpl [ecx+ebp*2+0x6f],si
00009CB2  6E                outsb
00009CB3  207379            and [ebx+0x79],dh
00009CB6  7363              jnc 0x9d1b
00009CB8  61                popad
00009CB9  6C                insb
00009CBA  6C                insb
00009CBB  290A              sub [edx],ecx
00009CBD  0000              add [eax],al
00009CBF  00746173          add [ecx+0x73],dh
00009CC3  6B3720            imul esi,[edi],byte +0x20
00009CC6  286166            sub [ecx+0x66],ah
00009CC9  7465              jz 0x9d30
00009CCB  7220              jc 0x9ced
00009CCD  7369              jnc 0x9d38
00009CCF  6761              a16 popad
00009CD1  6374696F          arpl [ecx+ebp*2+0x6f],si
00009CD5  6E                outsb
00009CD6  207379            and [ebx+0x79],dh
00009CD9  7363              jnc 0x9d3e
00009CDB  61                popad
00009CDC  6C                insb
00009CDD  6C                insb
00009CDE  290A              sub [edx],ecx
00009CE0  0000              add [eax],al
00009CE2  0000              add [eax],al
00009CE4  7461              jz 0x9d47
00009CE6  736B              jnc 0x9d53
00009CE8  37                aaa
00009CE9  3A20              cmp ah,[eax]
00009CEB  7379              jnc 0x9d66
00009CED  735F              jnc 0x9d4e
00009CEF  7369              jnc 0x9d5a
00009CF1  6761              a16 popad
00009CF3  6374696F          arpl [ecx+ebp*2+0x6f],si
00009CF7  6E                outsb
00009CF8  207365            and [ebx+0x65],dh
00009CFB  656D              gs insd
00009CFD  7320              jnc 0x9d1f
00009CFF  746F              jz 0x9d70
00009D01  206861            and [eax+0x61],ch
00009D04  7665              jna 0x9d6b
00009D06  206661            and [esi+0x61],ah
00009D09  696C65640A007461  imul ebp,[ebp+0x64],dword 0x6174000a
00009D11  736B              jnc 0x9d7e
00009D13  37                aaa
00009D14  0A00              or al,[eax]
00009D16  7461              jz 0x9d79
00009D18  736B              jnc 0x9d85
00009D1A  380A              cmp [edx],cl
00009D1C  0000              add [eax],al
00009D1E  0000              add [eax],al
00009D20  7461              jz 0x9d83
00009D22  736B              jnc 0x9d8f
00009D24  37                aaa
00009D25  626973            bound ebp,[ecx+0x73]
00009D28  2028              and [eax],ch
00009D2A  626566            bound esp,[ebp+0x66]
00009D2D  6F                outsd
00009D2E  7265              jc 0x9d95
00009D30  207369            and [ebx+0x69],dh
00009D33  6761              a16 popad
00009D35  6374696F          arpl [ecx+ebp*2+0x6f],si
00009D39  6E                outsb
00009D3A  207379            and [ebx+0x79],dh
00009D3D  7363              jnc 0x9da2
00009D3F  61                popad
00009D40  6C                insb
00009D41  6C                insb
00009D42  290A              sub [edx],ecx
00009D44  0000              add [eax],al
00009D46  0000              add [eax],al
00009D48  7461              jz 0x9dab
00009D4A  736B              jnc 0x9db7
00009D4C  37                aaa
00009D4D  626973            bound ebp,[ecx+0x73]
00009D50  2028              and [eax],ch
00009D52  61                popad
00009D53  667465            o16 jz 0x9dbb
00009D56  7220              jc 0x9d78
00009D58  7369              jnc 0x9dc3
00009D5A  6761              a16 popad
00009D5C  6374696F          arpl [ecx+ebp*2+0x6f],si
00009D60  6E                outsb
00009D61  207379            and [ebx+0x79],dh
00009D64  7363              jnc 0x9dc9
00009D66  61                popad
00009D67  6C                insb
00009D68  6C                insb
00009D69  290A              sub [edx],ecx
00009D6B  00746173          add [ecx+0x73],dh
00009D6F  6B3762            imul esi,[edi],byte +0x62
00009D72  69733A20737973    imul esi,[ebx+0x3a],dword 0x73797320
00009D79  5F                pop edi
00009D7A  7369              jnc 0x9de5
00009D7C  6761              a16 popad
00009D7E  6374696F          arpl [ecx+ebp*2+0x6f],si
00009D82  6E                outsb
00009D83  207365            and [ebx+0x65],dh
00009D86  656D              gs insd
00009D88  7320              jnc 0x9daa
00009D8A  746F              jz 0x9dfb
00009D8C  206861            and [eax+0x61],ch
00009D8F  7665              jna 0x9df6
00009D91  206661            and [esi+0x61],ah
00009D94  696C65640A007461  imul ebp,[ebp+0x64],dword 0x6174000a
00009D9C  736B              jnc 0x9e09
00009D9E  37                aaa
00009D9F  626973            bound ebp,[ecx+0x73]
00009DA2  0A00              or al,[eax]
00009DA4  7461              jz 0x9e07
00009DA6  736B              jnc 0x9e13
00009DA8  386269            cmp [edx+0x69],ah
00009DAB  730A              jnc 0x9db7
00009DAD  00746173          add [ecx+0x73],dh
00009DB1  6B390A            imul edi,[ecx],byte +0xa
00009DB4  00746173          add [ecx+0x73],dh
00009DB8  6B3130            imul esi,[ecx],byte +0x30
00009DBB  0A00              or al,[eax]
00009DBD  7461              jz 0x9e20
00009DBF  736B              jnc 0x9e2c
00009DC1  3131              xor [ecx],esi
00009DC3  0A00              or al,[eax]
00009DC5  7761              ja 0x9e28
00009DC7  6974696E672E2E2E  imul esi,[ecx+ebp*2+0x6e],dword 0x2e2e2e67
00009DCF  0A00              or al,[eax]
00009DD1  656E              gs outsb
00009DD3  64206F66          and [fs:edi+0x66],ch
00009DD7  207761            and [edi+0x61],dh
00009DDA  6974696E67203B20  imul esi,[ecx+ebp*2+0x6e],dword 0x203b2067
00009DE2  646561            gs popad
00009DE5  6420736F          and [fs:ebx+0x6f],dh
00009DE9  6E                outsb
00009DEA  3A20              cmp ah,[eax]
00009DEC  0020              add [eax],ah
00009DEE  3B20              cmp esp,[eax]
00009DF0  7374              jnc 0x9e66
00009DF2  61                popad
00009DF3  7475              jz 0x9e6a
00009DF5  733A              jnc 0x9e31
00009DF7  2000              and [eax],al
00009DF9  0A00              or al,[eax]
00009DFB  7461              jz 0x9e5e
00009DFD  736B              jnc 0x9e6a
00009DFF  3133              xor [ebx],esi
00009E01  0A00              or al,[eax]
00009E03  7465              jz 0x9e6a
00009E05  7374              jnc 0x9e7b
00009E07  006B6D            add [ebx+0x6d],ch
00009E0A  61                popad
00009E0B  696E000000FF00    imul ebp,[esi+0x0],dword 0xff0000
00009E12  1B00              sbb eax,[eax]
00009E14  3100              xor [eax],eax
00009E16  2100              and [eax],eax
00009E18  3200              xor al,[eax]
00009E1A  40                inc eax
00009E1B  0033              add [ebx],dh
00009E1D  0023              add [ebx],ah
00009E1F  003400            add [eax+eax],dh
00009E22  2400              and al,0x0
00009E24  3500250036        xor eax,0x36002500
00009E29  005E00            add [esi+0x0],bl
00009E2C  37                aaa
00009E2D  0026              add [esi],ah
00009E2F  0038              add [eax],bh
00009E31  002A              add [edx],ch
00009E33  0039              add [ecx],bh
00009E35  0028              add [eax],ch
00009E37  0030              add [eax],dh
00009E39  0029              add [ecx],ch
00009E3B  002D005F003D      add [dword 0x3d005f00],ch
00009E41  002B              add [ebx],ch
00009E43  0008              add [eax],cl
00009E45  007F00            add [edi+0x0],bh
00009E48  0900              or [eax],eax
00009E4A  7100              jno 0x9e4c
00009E4C  51                push ecx
00009E4D  007700            add [edi+0x0],dh
00009E50  57                push edi
00009E51  006500            add [ebp+0x0],ah
00009E54  45                inc ebp
00009E55  007200            add [edx+0x0],dh
00009E58  52                push edx
00009E59  00740054          add [eax+eax+0x54],dh
00009E5D  007900            add [ecx+0x0],bh
00009E60  59                pop ecx
00009E61  007500            add [ebp+0x0],dh
00009E64  55                push ebp
00009E65  006900            add [ecx+0x0],ch
00009E68  49                dec ecx
00009E69  006F00            add [edi+0x0],ch
00009E6C  4F                dec edi
00009E6D  007000            add [eax+0x0],dh
00009E70  50                push eax
00009E71  005B00            add [ebx+0x0],bl
00009E74  7B00              jpo 0x9e76
00009E76  5D                pop ebp
00009E77  007D00            add [ebp+0x0],bh
00009E7A  0A00              or al,[eax]
00009E7C  61                popad
00009E7D  004100            add [ecx+0x0],al
00009E80  7300              jnc 0x9e82
00009E82  53                push ebx
00009E83  00640044          add [eax+eax+0x44],ah
00009E87  006600            add [esi+0x0],ah
00009E8A  46                inc esi
00009E8B  006700            add [edi+0x0],ah
00009E8E  47                inc edi
00009E8F  006800            add [eax+0x0],ch
00009E92  48                dec eax
00009E93  006A00            add [edx+0x0],ch
00009E96  4A                dec edx
00009E97  006B00            add [ebx+0x0],ch
00009E9A  4B                dec ebx
00009E9B  006C004C          add [eax+eax+0x4c],ch
00009E9F  003B              add [ebx],bh
00009EA1  003A              add [edx],bh
00009EA3  0027              add [edi],ah
00009EA5  0022              add [edx],ah
00009EA7  006000            add [eax+0x0],ah
00009EAA  7E00              jng 0x9eac
00009EAC  5C                pop esp
00009EAD  007C007A          add [eax+eax+0x7a],bh
00009EB1  005A00            add [edx+0x0],bl
00009EB4  7800              js 0x9eb6
00009EB6  58                pop eax
00009EB7  006300            add [ebx+0x0],ah
00009EBA  43                inc ebx
00009EBB  007600            add [esi+0x0],dh
00009EBE  56                push esi
00009EBF  006200            add [edx+0x0],ah
00009EC2  42                inc edx
00009EC3  006E00            add [esi+0x0],ch
00009EC6  4E                dec esi
00009EC7  006D00            add [ebp+0x0],ch
00009ECA  4D                dec ebp
00009ECB  002C00            add [eax+eax],ch
00009ECE  3C00              cmp al,0x0
00009ED0  2E003E            add [cs:esi],bh
00009ED3  002F              add [edi],ch
00009ED5  003F              add [edi],bh
00009ED7  0020              add [eax],ah
00009ED9  006B65            add [ebx+0x65],ch
00009EDC  726E              jc 0x9f4c
00009EDE  656C              gs insb
00009EE0  2F                das
00009EE1  6973722E630025    imul esi,[ebx+0x72],dword 0x2500632e
00009EE8  733A              jnc 0x9f24
00009EEA  2025733A2070      and [dword 0x70203a73],ah
00009EF0  61                popad
00009EF1  6E                outsb
00009EF2  69633A20006578    imul esp,[ebx+0x3a],dword 0x78650020
00009EF9  636570            arpl [ebp+0x70],sp
00009EFC  7469              jz 0x9f67
00009EFE  6F                outsd
00009EFF  6E                outsb
00009F00  00696E            add [ecx+0x6e],ch
00009F03  7661              jna 0x9f66
00009F05  6C                insb
00009F06  6964206572726F72  imul esp,[eax+0x65],dword 0x726f7272
00009F0E  20636F            and [ebx+0x6f],ah
00009F11  646520257800636F  and [dword gs:0x6f630078],ah
00009F19  7079              jo 0x9f94
00009F1B  206F6E            and [edi+0x6e],ch
00009F1E  207772            and [edi+0x72],dh
00009F21  6974650A006E6F20  imul esi,[ebp+0xa],dword 0x206f6e00
00009F29  7068              jo 0x9f93
00009F2B  7973              jns 0x9fa0
00009F2D  6963616C206D65    imul esp,[ebx+0x61],dword 0x656d206c
00009F34  6D                insd
00009F35  6F                outsd
00009F36  7279              jc 0x9fb1
00009F38  206C6566          and [ebp+0x66],ch
00009F3C  7400              jz 0x9f3e
00009F3E  0000              add [eax],al
00009F40  6E                outsb
00009F41  6F                outsd
00009F42  207068            and [eax+0x68],dh
00009F45  7973              jns 0x9fba
00009F47  6963616C206D65    imul esp,[ebx+0x61],dword 0x656d206c
00009F4E  6D                insd
00009F4F  6F                outsd
00009F50  7279              jc 0x9fcb
00009F52  206C6566          and [ebp+0x66],ch
00009F56  7420              jz 0x9f78
00009F58  28636F            sub [ebx+0x6f],ah
00009F5B  756C              jnz 0x9fc9
00009F5D  64206E6F          and [fs:esi+0x6f],ch
00009F61  7420              jz 0x9f83
00009F63  6D                insd
00009F64  61                popad
00009F65  7020              jo 0x9f87
00009F67  7061              jo 0x9fca
00009F69  67652900          sub [gs:bx+si],eax
00009F6D  756E              jnz 0x9fdd
00009F6F  7573              jnz 0x9fe4
00009F71  7561              jnz 0x9fd4
00009F73  6C                insb
00009F74  207061            and [eax+0x61],dh
00009F77  6765206661        and [gs:bp+0x61],ah
00009F7C  756C              jnz 0x9fea
00009F7E  7420              jz 0x9fa0
00009F80  657863            gs js 0x9fe6
00009F83  657074            gs jo 0x9ffa
00009F86  696F6E00706963    imul ebp,[edi+0x6e],dword 0x63697000
00009F8D  3120              xor [eax],esp
00009F8F  6972710A007069    imul esi,[edx+0x71],dword 0x6970000a
00009F96  6332              arpl [edx],si
00009F98  206972            and [ecx+0x72],ch
00009F9B  710A              jno 0x9fa7
00009F9D  005349            add [ebx+0x49],dl
00009FA0  47                inc edi
00009FA1  54                push esp
00009FA2  53                push ebx
00009FA3  54                push esp
00009FA4  50                push eax
00009FA5  0A00              or al,[eax]
00009FA7  53                push ebx
00009FA8  49                dec ecx
00009FA9  47                inc edi
00009FAA  49                dec ecx
00009FAB  4E                dec esi
00009FAC  54                push esp
00009FAD  0A00              or al,[eax]
00009FAF  6661              popaw
00009FB1  696C656420777269  imul ebp,[ebp+0x64],dword 0x69727720
00009FB9  7469              jz 0xa024
00009FBB  6E                outsb
00009FBC  6720746F          and [si+0x6f],dh
00009FC0  20746572          and [ebp+0x72],dh
00009FC4  6D                insd
00009FC5  696E616C0A0030    imul ebp,[esi+0x61],dword 0x30000a6c
00009FCC  7830              js 0x9ffe
00009FCE  3920              cmp [eax],esp
00009FD0  6972710A005F69    imul esi,[edx+0x71],dword 0x695f000a
00009FD7  7372              jnc 0xa04b
00009FD9  5F                pop edi
00009FDA  7066              jo 0xa042
00009FDC  5F                pop edi
00009FDD  657863            gs js 0xa043
00009FE0  005F69            add [edi+0x69],bl
00009FE3  7372              jnc 0xa057
00009FE5  5F                pop edi
00009FE6  64656661          gs popaw
00009FEA  756C              jnz 0xa058
00009FEC  745F              jz 0xa04d
00009FEE  657863            gs js 0xa054
00009FF1  0030              add [eax],dh
00009FF3  3132              xor [edx],esi
00009FF5  33343536373839    xor esi,[esi+0x39383736]
00009FFC  61                popad
00009FFD  626364            bound esp,[ebx+0x64]
0000A000  6566006B65        o16 add [gs:ebx+0x65],ch
0000A005  726E              jc 0xa075
0000A007  656C              gs insb
0000A009  2F                das
0000A00A  7072              jo 0xa07e
0000A00C  6F                outsd
0000A00D  636573            arpl [ebp+0x73],sp
0000A010  732E              jnc 0xa040
0000A012  6300              arpl [eax],ax
0000A014  25733A2025        and eax,0x25203a73
0000A019  733A              jnc 0xa055
0000A01B  207061            and [eax+0x61],dh
0000A01E  6E                outsb
0000A01F  69633A20007072    imul esp,[ebx+0x3a],dword 0x72700020
0000A026  6F                outsd
0000A027  636573            arpl [ebp+0x73],sp
0000A02A  7320              jnc 0xa04c
0000A02C  7461              jz 0xa08f
0000A02E  626C6520          bound ebp,[ebp+0x20]
0000A032  636F72            arpl [edi+0x72],bp
0000A035  7275              jc 0xa0ac
0000A037  7074              jo 0xa0ad
0000A039  6564002F          add [fs:edi],ch
0000A03D  007072            add [eax+0x72],dh
0000A040  6F                outsd
0000A041  636573            arpl [ebp+0x73],sp
0000A044  735F              jnc 0xa0a5
0000A046  637265            arpl [edx+0x65],si
0000A049  61                popad
0000A04A  7465              jz 0xa0b1
0000A04C  006E6F            add [esi+0x6f],ch
0000A04F  207072            and [eax+0x72],dh
0000A052  6F                outsd
0000A053  636573            arpl [ebp+0x73],sp
0000A056  730A              jnc 0xa062
0000A058  006F6E            add [edi+0x6e],ch
0000A05B  65207072          and [gs:eax+0x72],dh
0000A05F  6F                outsd
0000A060  636573            arpl [ebp+0x73],sp
0000A063  730A              jnc 0xa06f
0000A065  006B65            add [ebx+0x65],ch
0000A068  726E              jc 0xa0d8
0000A06A  656C              gs insb
0000A06C  2F                das
0000A06D  7363              jnc 0xa0d2
0000A06F  686564756C        push dword 0x6c756465
0000A074  652E6300          arpl [cs:eax],ax
0000A078  25733A2025        and eax,0x25203a73
0000A07D  733A              jnc 0xa0b9
0000A07F  207061            and [eax+0x61],dh
0000A082  6E                outsb
0000A083  69633A20006E6F    imul esp,[ebx+0x3a],dword 0x6f6e0020
0000A08A  206176            and [ecx+0x76],ah
0000A08D  61                popad
0000A08E  696C61626C652070  imul ebp,[ecx+0x62],dword 0x7020656c
0000A096  726F              jc 0xa107
0000A098  636573            arpl [ebp+0x73],sp
0000A09B  7300              jnc 0xa09d
0000A09D  696E76616C6964    imul ebp,[esi+0x76],dword 0x64696c61
0000A0A4  207069            and [eax+0x69],dh
0000A0A7  64202578007363    and [dword fs:0x63730078],ah
0000A0AE  686564756C        push dword 0x6c756465
0000A0B3  655F              gs pop edi
0000A0B5  7377              jnc 0xa12e
0000A0B7  6974636800736368  imul esi,[ebx+0x68],dword 0x68637300
0000A0BF  6564756C          fs jnz 0xa12f
0000A0C3  650000            add [gs:eax],al
0000A0C6  0000              add [eax],al
0000A0C8  2578207265        and eax,0x65722078
0000A0CD  636569            arpl [ebp+0x69],sp
0000A0D0  7665              jna 0xa137
0000A0D2  64207369          and [fs:ebx+0x69],dh
0000A0D6  676E              a16 outsb
0000A0D8  61                popad
0000A0D9  6C                insb
0000A0DA  2025780A0000      and [dword 0xa78],ah
0000A0E0  69676E6F726520    imul esp,[edi+0x6e],dword 0x2065726f
0000A0E7  7369              jnc 0xa152
0000A0E9  676E              a16 outsb
0000A0EB  61                popad
0000A0EC  6C                insb
0000A0ED  202578207265      and [dword 0x65722078],ah
0000A0F3  636569            arpl [ebp+0x69],sp
0000A0F6  7665              jna 0xa15d
0000A0F8  64206279          and [fs:edx+0x79],ah
0000A0FC  2025780A0000      and [dword 0xa78],ah
0000A102  0000              add [eax],al
0000A104  64656661          gs popaw
0000A108  756C              jnz 0xa176
0000A10A  7420              jz 0xa12c
0000A10C  68616E646C        push dword 0x6c646e61
0000A111  696E6720666F72    imul ebp,[esi+0x67],dword 0x726f6620
0000A118  207369            and [ebx+0x69],dh
0000A11B  676E              a16 outsb
0000A11D  61                popad
0000A11E  6C                insb
0000A11F  202578207265      and [dword 0x65722078],ah
0000A125  636569            arpl [ebp+0x69],sp
0000A128  7665              jna 0xa18f
0000A12A  64206279          and [fs:edx+0x79],ah
0000A12E  2025780A0000      and [dword 0xa78],ah
0000A134  7379              jnc 0xa1af
0000A136  7363              jnc 0xa19b
0000A138  61                popad
0000A139  6C                insb
0000A13A  6C                insb
0000A13B  202578206672      and [dword 0x72662078],ah
0000A141  6F                outsd
0000A142  6D                insd
0000A143  2025780A0025      and [dword 0x25000a78],ah
0000A149  7800              js 0xa14b
0000A14B  676F              a16 outsd
0000A14D  7420              jz 0xa16f
0000A14F  7067              jo 0xa1b8
0000A151  69642025780A006B  imul esp,[eax+0x25],dword 0x6b000a78
0000A159  65726E            gs jc 0xa1ca
0000A15C  656C              gs insb
0000A15E  2F                das
0000A15F  7379              jnc 0xa1da
0000A161  7363              jnc 0xa1c6
0000A163  61                popad
0000A164  6C                insb
0000A165  6C                insb
0000A166  2E6300            arpl [cs:eax],ax
0000A169  25733A2025        and eax,0x25203a73
0000A16E  733A              jnc 0xa1aa
0000A170  207061            and [eax+0x61],dh
0000A173  6E                outsb
0000A174  69633A20006661    imul esp,[ebx+0x3a],dword 0x61660020
0000A17B  696C65642073796E  imul ebp,[ebp+0x64],dword 0x6e797320
0000A183  636872            arpl [eax+0x72],bp
0000A186  6F                outsd
0000A187  6E                outsb
0000A188  697A696E672066    imul edi,[edx+0x69],dword 0x6620676e
0000A18F  7300              jnc 0xa191
0000A191  6661              popaw
0000A193  696C65642073796E  imul ebp,[ebp+0x64],dword 0x6e797320
0000A19B  636872            arpl [eax+0x72],bp
0000A19E  6F                outsd
0000A19F  6E                outsb
0000A1A0  697A696E672064    imul edi,[edx+0x69],dword 0x6420676e
0000A1A7  69736B00756E73    imul esi,[ebx+0x6b],dword 0x736e7500
0000A1AE  7570              jnz 0xa220
0000A1B0  706F              jo 0xa221
0000A1B2  7274              jc 0xa228
0000A1B4  6564207379        and [fs:ebx+0x79],dh
0000A1B9  7363              jnc 0xa21e
0000A1BB  61                popad
0000A1BC  6C                insb
0000A1BD  6C                insb
0000A1BE  20257800656E      and [dword 0x6e650078],ah
0000A1C4  64206F66          and [fs:edi+0x66],ch
0000A1C8  207379            and [ebx+0x79],dh
0000A1CB  7363              jnc 0xa230
0000A1CD  61                popad
0000A1CE  6C                insb
0000A1CF  6C                insb
0000A1D0  0A00              or al,[eax]
0000A1D2  0000              add [eax],al
0000A1D4  12AD000024AD      adc ch,[ebp-0x52dc0000]
0000A1DA  0000              add [eax],al
0000A1DC  BAB20000BA        mov edx,0xba0000b2
0000A1E1  B200              mov dl,0x0
0000A1E3  00BAB20000BA      add [edx-0x45ffff4e],bh
0000A1E9  B200              mov dl,0x0
0000A1EB  00BAB20000BA      add [edx-0x45ffff4e],bh
0000A1F1  B200              mov dl,0x0
0000A1F3  00BAB20000BA      add [edx-0x45ffff4e],bh
0000A1F9  B200              mov dl,0x0
0000A1FB  00BAB20000BA      add [edx-0x45ffff4e],bh
0000A201  B200              mov dl,0x0
0000A203  00BAB20000BA      add [edx-0x45ffff4e],bh
0000A209  B200              mov dl,0x0
0000A20B  00BAB20000BA      add [edx-0x45ffff4e],bh
0000A211  B200              mov dl,0x0
0000A213  00BAB20000BA      add [edx-0x45ffff4e],bh
0000A219  B200              mov dl,0x0
0000A21B  00BAB20000BA      add [edx-0x45ffff4e],bh
0000A221  B200              mov dl,0x0
0000A223  00BAB20000BA      add [edx-0x45ffff4e],bh
0000A229  B200              mov dl,0x0
0000A22B  00BAB20000BA      add [edx-0x45ffff4e],bh
0000A231  B200              mov dl,0x0
0000A233  00BAB20000BA      add [edx-0x45ffff4e],bh
0000A239  B200              mov dl,0x0
0000A23B  00BAB20000BA      add [edx-0x45ffff4e],bh
0000A241  B200              mov dl,0x0
0000A243  00BAB20000BA      add [edx-0x45ffff4e],bh
0000A249  B200              mov dl,0x0
0000A24B  00BAB20000BA      add [edx-0x45ffff4e],bh
0000A251  B200              mov dl,0x0
0000A253  0040AD            add [eax-0x53],al
0000A256  0000              add [eax],al
0000A258  4F                dec edi
0000A259  AD                lodsd
0000A25A  0000              add [eax],al
0000A25C  5A                pop edx
0000A25D  AD                lodsd
0000A25E  0000              add [eax],al
0000A260  7DAD              jnl 0xa20f
0000A262  0000              add [eax],al
0000A264  B0AD              mov al,0xad
0000A266  0000              add [eax],al
0000A268  C3                ret
0000A269  AD                lodsd
0000A26A  0000              add [eax],al
0000A26C  63AE000096AE      arpl [esi-0x516a0000],bp
0000A272  0000              add [eax],al
0000A274  A3AE000003        mov [0x30000ae],eax
0000A279  AF                scasd
0000A27A  0000              add [eax],al
0000A27C  0E                push cs
0000A27D  AF                scasd
0000A27E  0000              add [eax],al
0000A280  41                inc ecx
0000A281  AF                scasd
0000A282  0000              add [eax],al
0000A284  64AF              fs scasd
0000A286  0000              add [eax],al
0000A288  D8AD000009AE      fsubr dword [ebp-0x51f70000]
0000A28E  0000              add [eax],al
0000A290  87AF0000BAB2      xchg ebp,[edi-0x4d460000]
0000A296  0000              add [eax],al
0000A298  BAB20000BA        mov edx,0xba0000b2
0000A29D  B200              mov dl,0x0
0000A29F  00BAB20000BA      add [edx-0x45ffff4e],bh
0000A2A5  B200              mov dl,0x0
0000A2A7  00BAB20000BA      add [edx-0x45ffff4e],bh
0000A2AD  B200              mov dl,0x0
0000A2AF  00BAB20000BA      add [edx-0x45ffff4e],bh
0000A2B5  B200              mov dl,0x0
0000A2B7  00BAB20000BA      add [edx-0x45ffff4e],bh
0000A2BD  B200              mov dl,0x0
0000A2BF  00BAB20000BA      add [edx-0x45ffff4e],bh
0000A2C5  B200              mov dl,0x0
0000A2C7  00BAB20000BA      add [edx-0x45ffff4e],bh
0000A2CD  B200              mov dl,0x0
0000A2CF  00BAB200009C      add [edx-0x63ffff4e],bh
0000A2D5  AF                scasd
0000A2D6  0000              add [eax],al
0000A2D8  BFAF0000D6        mov edi,0xd60000af
0000A2DD  AF                scasd
0000A2DE  0000              add [eax],al
0000A2E0  07                pop es
0000A2E1  B000              mov al,0x0
0000A2E3  0038              add [eax],bh
0000A2E5  B000              mov al,0x0
0000A2E7  0067B0            add [edi-0x50],ah
0000A2EA  0000              add [eax],al
0000A2EC  8CB00000A1B0      mov [eax-0x4f5f0000],segr6
0000A2F2  0000              add [eax],al
0000A2F4  C6                db 0xc6
0000A2F5  B000              mov al,0x0
0000A2F7  00DD              add ch,bl
0000A2F9  B000              mov al,0x0
0000A2FB  000E              add [esi],cl
0000A2FD  B100              mov cl,0x0
0000A2FF  0023              add [ebx],ah
0000A301  B100              mov cl,0x0
0000A303  0046B1            add [esi-0x4f],al
0000A306  0000              add [eax],al
0000A308  69B100008CB10000  imul esi,[ecx-0x4e740000],dword 0xb1a10000
         -A1B1
0000A312  0000              add [eax],al
0000A314  BAB20000BA        mov edx,0xba0000b2
0000A319  B200              mov dl,0x0
0000A31B  00BAB20000BA      add [edx-0x45ffff4e],bh
0000A321  B200              mov dl,0x0
0000A323  00BAB20000BA      add [edx-0x45ffff4e],bh
0000A329  B200              mov dl,0x0
0000A32B  00BAB20000BA      add [edx-0x45ffff4e],bh
0000A331  B200              mov dl,0x0
0000A333  00BAB20000BA      add [edx-0x45ffff4e],bh
0000A339  B200              mov dl,0x0
0000A33B  00BAB20000BA      add [edx-0x45ffff4e],bh
0000A341  B200              mov dl,0x0
0000A343  00BAB20000BA      add [edx-0x45ffff4e],bh
0000A349  B200              mov dl,0x0
0000A34B  00BAB20000BA      add [edx-0x45ffff4e],bh
0000A351  B200              mov dl,0x0
0000A353  000E              add [esi],cl
0000A355  B200              mov dl,0x0
0000A357  0033              add [ebx],dh
0000A359  B200              mov dl,0x0
0000A35B  0064B200          add [edx+esi*4+0x0],ah
0000A35F  0084B2000098B2    add [edx+esi*4-0x4d680000],al
0000A366  0000              add [eax],al
0000A368  5F                pop edi
0000A369  6973725F737973    imul esi,[ebx+0x72],dword 0x7379735f
0000A370  63616C            arpl [ecx+0x6c],sp
0000A373  6C                insb
0000A374  0000              add [eax],al
0000A376  0000              add [eax],al
0000A378  6B65726E          imul esp,[ebp+0x72],byte +0x6e
0000A37C  656C              gs insb
0000A37E  2F                das
0000A37F  7379              jnc 0xa3fa
0000A381  7363              jnc 0xa3e6
0000A383  61                popad
0000A384  6C                insb
0000A385  6C                insb
0000A386  732F              jnc 0xa3b7
0000A388  657869            gs js 0xa3f4
0000A38B  742E              jz 0xa3bb
0000A38D  6300              arpl [eax],ax
0000A38F  25733A2025        and eax,0x25203a73
0000A394  733A              jnc 0xa3d0
0000A396  207061            and [eax+0x61],dh
0000A399  6E                outsb
0000A39A  69633A20000072    imul esp,[ebx+0x3a],dword 0x72000020
0000A3A1  6F                outsd
0000A3A2  6F                outsd
0000A3A3  7420              jz 0xa3c5
0000A3A5  7072              jo 0xa419
0000A3A7  6F                outsd
0000A3A8  636573            arpl [ebp+0x73],sp
0000A3AB  7320              jnc 0xa3cd
0000A3AD  69732074727969    imul esi,[ebx+0x20],dword 0x69797274
0000A3B4  6E                outsb
0000A3B5  6720746F          and [si+0x6f],dh
0000A3B9  206578            and [ebp+0x78],ah
0000A3BC  69740070726F6365  imul esi,[eax+eax+0x70],dword 0x65636f72
0000A3C4  7373              jnc 0xa439
0000A3C6  206861            and [eax+0x61],ch
0000A3C9  7320              jnc 0xa3eb
0000A3CB  6E                outsb
0000A3CC  6F                outsd
0000A3CD  207061            and [eax+0x61],dh
0000A3D0  7265              jc 0xa437
0000A3D2  6E                outsb
0000A3D3  7400              jz 0xa3d5
0000A3D5  726F              jc 0xa446
0000A3D7  6F                outsd
0000A3D8  7420              jz 0xa3fa
0000A3DA  7072              jo 0xa44e
0000A3DC  6F                outsd
0000A3DD  636573            arpl [ebp+0x73],sp
0000A3E0  7320              jnc 0xa402
0000A3E2  686173206E        push dword 0x6e207361
0000A3E7  6F                outsd
0000A3E8  20736F            and [ebx+0x6f],dh
0000A3EB  6E                outsb
0000A3EC  007379            add [ebx+0x79],dh
0000A3EF  735F              jnc 0xa450
0000A3F1  657869            gs js 0xa45d
0000A3F4  7400              jz 0xa3f6
0000A3F6  756E              jnz 0xa466
0000A3F8  696D706C656D65    imul ebp,[ebp+0x70],dword 0x656d656c
0000A3FF  6E                outsb
0000A400  7465              jz 0xa467
0000A402  6420636F          and [fs:ebx+0x6f],ah
0000A406  6D                insd
0000A407  6D                insd
0000A408  61                popad
0000A409  6E                outsb
0000A40A  642025780A006B    and [dword fs:0x6b000a78],ah
0000A411  65726E            gs jc 0xa482
0000A414  656C              gs insb
0000A416  2F                das
0000A417  7379              jnc 0xa492
0000A419  7363              jnc 0xa47e
0000A41B  61                popad
0000A41C  6C                insb
0000A41D  6C                insb
0000A41E  732F              jnc 0xa44f
0000A420  666F              outsw
0000A422  726B              jc 0xa48f
0000A424  2E6300            arpl [cs:eax],ax
0000A427  25733A2025        and eax,0x25203a73
0000A42C  733A              jnc 0xa468
0000A42E  207061            and [eax+0x61],dh
0000A431  6E                outsb
0000A432  69633A20000066    imul esp,[ebx+0x3a],dword 0x66000020
0000A439  6F                outsd
0000A43A  726B              jc 0xa4a7
0000A43C  206E6F            and [esi+0x6f],ch
0000A43F  7420              jz 0xa461
0000A441  61                popad
0000A442  6C                insb
0000A443  6C                insb
0000A444  6F                outsd
0000A445  7765              ja 0xa4ac
0000A447  6420696E          and [fs:ecx+0x6e],ch
0000A44B  206B65            and [ebx+0x65],ch
0000A44E  726E              jc 0xa4be
0000A450  656C              gs insb
0000A452  206D6F            and [ebp+0x6f],ch
0000A455  6465007379        add [gs:ebx+0x79],dh
0000A45A  735F              jnc 0xa4bb
0000A45C  666F              outsw
0000A45E  726B              jc 0xa4cb
0000A460  0000              add [eax],al
0000A462  0000              add [eax],al
0000A464  6B65726E          imul esp,[ebp+0x72],byte +0x6e
0000A468  656C              gs insb
0000A46A  2F                das
0000A46B  7379              jnc 0xa4e6
0000A46D  7363              jnc 0xa4d2
0000A46F  61                popad
0000A470  6C                insb
0000A471  6C                insb
0000A472  732F              jnc 0xa4a3
0000A474  667374            o16 jnc 0xa4eb
0000A477  61                popad
0000A478  742E              jz 0xa4a8
0000A47A  6300              arpl [eax],ax
0000A47C  25733A2025        and eax,0x25203a73
0000A481  733A              jnc 0xa4bd
0000A483  207061            and [eax+0x61],dh
0000A486  6E                outsb
0000A487  69633A2000696E    imul esp,[ebx+0x3a],dword 0x6e690020
0000A48E  6F                outsd
0000A48F  64652032          and [gs:edx],dh
0000A493  207368            and [ebx+0x68],dh
0000A496  6F                outsd
0000A497  756C              jnz 0xa505
0000A499  64206265          and [fs:edx+0x65],ah
0000A49D  20746861          and [eax+ebp*2+0x61],dh
0000A4A1  7420              jz 0xa4c3
0000A4A3  6F                outsd
0000A4A4  6620746865        o16 and [eax+ebp*2+0x65],dh
0000A4A9  20646973          and [ecx+ebp*2+0x73],ah
0000A4AD  6B0000            imul eax,[eax],byte +0x0
0000A4B0  696E6F64652031    imul ebp,[esi+0x6f],dword 0x31206564
0000A4B7  207368            and [ebx+0x68],dh
0000A4BA  6F                outsd
0000A4BB  756C              jnz 0xa529
0000A4BD  64206265          and [fs:edx+0x65],ah
0000A4C1  20746861          and [eax+ebp*2+0x61],dh
0000A4C5  7420              jz 0xa4e7
0000A4C7  6F                outsd
0000A4C8  6620746865        o16 and [eax+ebp*2+0x65],dh
0000A4CD  20747479          and [esp+esi*2+0x79],dh
0000A4D1  007379            add [ebx+0x79],dh
0000A4D4  735F              jnc 0xa535
0000A4D6  667374            o16 jnc 0xa54d
0000A4D9  61                popad
0000A4DA  7400              jz 0xa4dc
0000A4DC  6B65726E          imul esp,[ebp+0x72],byte +0x6e
0000A4E0  656C              gs insb
0000A4E2  2F                das
0000A4E3  7379              jnc 0xa55e
0000A4E5  7363              jnc 0xa54a
0000A4E7  61                popad
0000A4E8  6C                insb
0000A4E9  6C                insb
0000A4EA  732F              jnc 0xa51b
0000A4EC  67657463          gs jz 0xa553
0000A4F0  7764              ja 0xa556
0000A4F2  2E6300            arpl [cs:eax],ax
0000A4F5  25733A2025        and eax,0x25203a73
0000A4FA  733A              jnc 0xa536
0000A4FC  207061            and [eax+0x61],dh
0000A4FF  6E                outsb
0000A500  69633A20006275    imul esp,[ebx+0x3a],dword 0x75620020
0000A507  66206973          o16 and [ecx+0x73],ch
0000A50B  206E75            and [esi+0x75],ch
0000A50E  6C                insb
0000A50F  6C                insb
0000A510  007379            add [ebx+0x79],dh
0000A513  735F              jnc 0xa574
0000A515  67657463          gs jz 0xa57c
0000A519  7764              ja 0xa57f
0000A51B  007379            add [ebx+0x79],dh
0000A51E  735F              jnc 0xa57f
0000A520  6B696C6C          imul ebp,[ecx+0x6c],byte +0x6c
0000A524  2825782C2025      sub [dword 0x25202c78],ah
0000A52A  7829              js 0xa555
0000A52C  0A00              or al,[eax]
0000A52E  7379              jnc 0xa5a9
0000A530  735F              jnc 0xa591
0000A532  6B696C6C          imul ebp,[ecx+0x6c],byte +0x6c
0000A536  7067              jo 0xa59f
0000A538  2825782C2025      sub [dword 0x25202c78],ah
0000A53E  7829              js 0xa569
0000A540  0A00              or al,[eax]
0000A542  6B65726E          imul esp,[ebp+0x72],byte +0x6e
0000A546  656C              gs insb
0000A548  2F                das
0000A549  7379              jnc 0xa5c4
0000A54B  7363              jnc 0xa5b0
0000A54D  61                popad
0000A54E  6C                insb
0000A54F  6C                insb
0000A550  732F              jnc 0xa581
0000A552  6C                insb
0000A553  696E6B2E630025    imul ebp,[esi+0x6b],dword 0x2500632e
0000A55A  733A              jnc 0xa596
0000A55C  2025733A2070      and [dword 0x70203a73],ah
0000A562  61                popad
0000A563  6E                outsb
0000A564  69633A20006661    imul esp,[ebx+0x3a],dword 0x61660020
0000A56B  696C65642072656D  imul ebp,[ebp+0x64],dword 0x6d657220
0000A573  6F                outsd
0000A574  7669              jna 0xa5df
0000A576  6E                outsb
0000A577  67206669          and [bp+0x69],ah
0000A57B  6C                insb
0000A57C  65007379          add [gs:ebx+0x79],dh
0000A580  735F              jnc 0xa5e1
0000A582  6C                insb
0000A583  696E6B0066696C    imul ebp,[esi+0x6b],dword 0x6c696600
0000A58A  65207369          and [gs:ebx+0x69],dh
0000A58E  7A65              jpe 0xa5f5
0000A590  3A20              cmp ah,[eax]
0000A592  25780A006F        and eax,0x6f000a78
0000A597  7065              jo 0xa5fe
0000A599  6E                outsb
0000A59A  2822              sub [edx],ah
0000A59C  2573222C20        and eax,0x202c2273
0000A5A1  2578290A00        and eax,0xa2978
0000A5A6  2F                das
0000A5A7  6465762F          gs jna 0xa5da
0000A5AB  7474              jz 0xa621
0000A5AD  7900              jns 0xa5af
0000A5AF  007379            add [ebx+0x79],dh
0000A5B2  735F              jnc 0xa613
0000A5B4  7265              jc 0xa61b
0000A5B6  61                popad
0000A5B7  643A20            cmp ah,[fs:eax]
0000A5BA  6E                outsb
0000A5BB  756C              jnz 0xa629
0000A5BD  6C                insb
0000A5BE  207265            and [edx+0x65],dh
0000A5C1  66657265          gs o16 jc 0xa62a
0000A5C5  6E                outsb
0000A5C6  636520            arpl [ebp+0x20],sp
0000A5C9  636F75            arpl [edi+0x75],bp
0000A5CC  6E                outsb
0000A5CD  740A              jz 0xa5d9
0000A5CF  006572            add [ebp+0x72],ah
0000A5D2  726F              jc 0xa643
0000A5D4  7220              jc 0xa5f6
0000A5D6  330A              xor ecx,[edx]
0000A5D8  007067            add [eax+0x67],dh
0000A5DB  7270              jc 0xa64d
0000A5DD  3A20              cmp ah,[eax]
0000A5DF  25780A0077        and eax,0x77000a78
0000A5E4  61                popad
0000A5E5  6974696E6720666F  imul esi,[ecx+ebp*2+0x6e],dword 0x6f662067
0000A5ED  7220              jc 0xa60f
0000A5EF  53                push ebx
0000A5F0  49                dec ecx
0000A5F1  47                inc edi
0000A5F2  43                inc ebx
0000A5F3  48                dec eax
0000A5F4  4C                dec esp
0000A5F5  44                inc esp
0000A5F6  2E2E2E0A00        or al,[cs:eax]
0000A5FB  7265              jc 0xa662
0000A5FD  636569            arpl [ebp+0x69],sp
0000A600  7665              jna 0xa667
0000A602  64205349          and [fs:ebx+0x49],dl
0000A606  47                inc edi
0000A607  43                inc ebx
0000A608  48                dec eax
0000A609  4C                dec esp
0000A60A  44                inc esp
0000A60B  0A00              or al,[eax]
0000A60D  0000              add [eax],al
0000A60F  007379            add [ebx+0x79],dh
0000A612  735F              jnc 0xa673
0000A614  7772              ja 0xa688
0000A616  6974653A206E756C  imul esi,[ebp+0x3a],dword 0x6c756e20
0000A61E  6C                insb
0000A61F  207265            and [edx+0x65],dh
0000A622  66657265          gs o16 jc 0xa68b
0000A626  6E                outsb
0000A627  636520            arpl [ebp+0x20],sp
0000A62A  636F75            arpl [edi+0x75],bp
0000A62D  6E                outsb
0000A62E  740A              jz 0xa63a
0000A630  006170            add [ecx+0x70],ah
0000A633  7065              jo 0xa69a
0000A635  6E                outsb
0000A636  64696E6720257820  imul ebp,[fs:esi+0x67],dword 0x20782520
0000A63E  627974            bound edi,[ecx+0x74]
0000A641  657320            gs jnc 0xa664
0000A644  746F              jz 0xa6b5
0000A646  206669            and [esi+0x69],ah
0000A649  6C                insb
0000A64A  650A00            or al,[gs:eax]
0000A64D  6B65726E          imul esp,[ebp+0x72],byte +0x6e
0000A651  656C              gs insb
0000A653  2F                das
0000A654  7379              jnc 0xa6cf
0000A656  7363              jnc 0xa6bb
0000A658  61                popad
0000A659  6C                insb
0000A65A  6C                insb
0000A65B  732F              jnc 0xa68c
0000A65D  7772              ja 0xa6d1
0000A65F  6974652E63002573  imul esi,[ebp+0x2e],dword 0x73250063
0000A667  3A20              cmp ah,[eax]
0000A669  25733A2070        and eax,0x70203a73
0000A66E  61                popad
0000A66F  6E                outsb
0000A670  69633A20000000    imul esp,[ebx+0x3a],dword 0x20
0000A677  00696E            add [ecx+0x6e],ch
0000A67A  6F                outsd
0000A67B  64652031          and [gs:ecx],dh
0000A67F  207368            and [ebx+0x68],dh
0000A682  6F                outsd
0000A683  756C              jnz 0xa6f1
0000A685  64206265          and [fs:edx+0x65],ah
0000A689  20746861          and [eax+ebp*2+0x61],dh
0000A68D  7420              jz 0xa6af
0000A68F  6F                outsd
0000A690  6620746865        o16 and [eax+ebp*2+0x65],dh
0000A695  20747479          and [esp+esi*2+0x79],dh
0000A699  007379            add [ebx+0x79],dh
0000A69C  735F              jnc 0xa6fd
0000A69E  7772              ja 0xa712
0000A6A0  697465006D6D2F70  imul esi,[ebp+0x0],dword 0x702f6d6d
0000A6A8  61                popad
0000A6A9  67696E672E630025  imul ebp,[bp+0x67],dword 0x2500632e
0000A6B1  733A              jnc 0xa6ed
0000A6B3  2025733A2070      and [dword 0x70203a73],ah
0000A6B9  61                popad
0000A6BA  6E                outsb
0000A6BB  69633A20006B65    imul esp,[ebx+0x3a],dword 0x656b0020
0000A6C2  726E              jc 0xa732
0000A6C4  656C              gs insb
0000A6C6  207074            and [eax+0x74],dh
0000A6C9  206172            and [ecx+0x72],ah
0000A6CC  65207375          and [gs:ebx+0x75],dh
0000A6D0  7070              jo 0xa742
0000A6D2  6F                outsd
0000A6D3  7365              jnc 0xa73a
0000A6D5  6420746F20        and [fs:edi+ebp*2+0x20],dh
0000A6DA  626520            bound esp,[ebp+0x20]
0000A6DD  7072              jo 0xa751
0000A6DF  6561              gs popad
0000A6E1  6C                insb
0000A6E2  6C                insb
0000A6E3  6F                outsd
0000A6E4  636174            arpl [ecx+0x74],sp
0000A6E7  65640000          add [fs:eax],al
0000A6EB  007061            add [eax+0x61],dh
0000A6EE  6765207072        and [gs:bx+si+0x72],dh
0000A6F3  657365            gs jnc 0xa75b
0000A6F6  6E                outsb
0000A6F7  7420              jz 0xa719
0000A6F9  287670            sub [esi+0x70],dh
0000A6FC  61                popad
0000A6FD  67652025          and [gs:di],ah
0000A701  782C              js 0xa72f
0000A703  207070            and [eax+0x70],dh
0000A706  61                popad
0000A707  67652025          and [gs:di],ah
0000A70B  7829              js 0xa736
0000A70D  0000              add [eax],al
0000A70F  007068            add [eax+0x68],dh
0000A712  7973              jns 0xa787
0000A714  6963616C207061    imul esp,[ebx+0x61],dword 0x6170206c
0000A71B  67652025          and [gs:di],ah
0000A71F  7820              js 0xa741
0000A721  6D                insd
0000A722  61                popad
0000A723  7070              jo 0xa795
0000A725  656420696E        and [fs:ecx+0x6e],ch
0000A72A  20746F6F          and [edi+ebp*2+0x6f],dh
0000A72E  206D61            and [ebp+0x61],ch
0000A731  6E                outsb
0000A732  7920              jns 0xa754
0000A734  6C                insb
0000A735  6F                outsd
0000A736  636174            arpl [ecx+0x74],sp
0000A739  696F6E73007061    imul ebp,[edi+0x6e],dword 0x61700073
0000A740  67652025          and [gs:di],ah
0000A744  7820              js 0xa766
0000A746  63616E            arpl [ecx+0x6e],sp
0000A749  6E                outsb
0000A74A  6F                outsd
0000A74B  7420              jz 0xa76d
0000A74D  626520            bound esp,[ebp+0x20]
0000A750  756E              jnz 0xa7c0
0000A752  6D                insd
0000A753  61                popad
0000A754  7070              jo 0xa7c6
0000A756  65640000          add [fs:eax],al
0000A75A  0000              add [eax],al
0000A75C  7061              jo 0xa7bf
0000A75E  67652022          and [gs:bp+si],ah
0000A762  62656C            bound esp,[ebp+0x6c]
0000A765  6F                outsd
0000A766  6E                outsb
0000A767  677322            jnc 0xa78c
0000A76A  20746F20          and [edi+ebp*2+0x20],dh
0000A76E  61                popad
0000A76F  206E6F            and [esi+0x6f],ch
0000A772  6E                outsb
0000A773  2D70726573        sub eax,0x73657270
0000A778  656E              gs outsb
0000A77A  7420              jz 0xa79c
0000A77C  7061              jo 0xa7df
0000A77E  6765207461        and [gs:si+0x61],dh
0000A783  626C6500          bound ebp,[ebp+0x0]
0000A787  7061              jo 0xa7ea
0000A789  6765206973        and [gs:bx+di+0x73],ch
0000A78E  206E6F            and [esi+0x6f],ch
0000A791  7420              jz 0xa7b3
0000A793  7072              jo 0xa807
0000A795  657365            gs jnc 0xa7fd
0000A798  6E                outsb
0000A799  7400              jz 0xa79b
0000A79B  006E75            add [esi+0x75],ch
0000A79E  6C                insb
0000A79F  6C                insb
0000A7A0  207265            and [edx+0x65],dh
0000A7A3  66657265          gs o16 jc 0xa80c
0000A7A7  6E                outsb
0000A7A8  636520            arpl [ebp+0x20],sp
0000A7AB  636F75            arpl [edi+0x75],bp
0000A7AE  6E                outsb
0000A7AF  7465              jz 0xa816
0000A7B1  7220              jc 0xa7d3
0000A7B3  666F              outsw
0000A7B5  7220              jc 0xa7d7
0000A7B7  6D                insd
0000A7B8  61                popad
0000A7B9  7070              jo 0xa82b
0000A7BB  6564207061        and [fs:eax+0x61],dh
0000A7C0  67650000          add [gs:bx+si],al
0000A7C4  7061              jo 0xa827
0000A7C6  67696E675F756E6D  imul ebp,[bp+0x67],dword 0x6d6e755f
0000A7CE  61                popad
0000A7CF  7020              jo 0xa7f1
0000A7D1  667265            o16 jc 0xa839
0000A7D4  657320            gs jnc 0xa7f7
0000A7D7  7068              jo 0xa841
0000A7D9  7973              jns 0xa84e
0000A7DB  6963616C207061    imul esp,[ebx+0x61],dword 0x6170206c
0000A7E2  67652025          and [gs:di],ah
0000A7E6  780A              js 0xa7f2
0000A7E8  007061            add [eax+0x61],dh
0000A7EB  67652025          and [gs:di],ah
0000A7EF  7820              js 0xa811
0000A7F1  696E2070742025    imul ebp,[esi+0x20],dword 0x25207470
0000A7F8  780A              js 0xa804
0000A7FA  006E75            add [esi+0x75],ch
0000A7FD  6C                insb
0000A7FE  6C                insb
0000A7FF  207265            and [edx+0x65],dh
0000A802  66657265          gs o16 jc 0xa86b
0000A806  6E                outsb
0000A807  636520            arpl [ebp+0x20],sp
0000A80A  636F75            arpl [edi+0x75],bp
0000A80D  6E                outsb
0000A80E  7400              jz 0xa810
0000A810  7061              jo 0xa873
0000A812  6765207461        and [gs:si+0x61],dh
0000A817  626C6520          bound ebp,[ebp+0x20]
0000A81B  7365              jnc 0xa882
0000A81D  656D              gs insd
0000A81F  7320              jnc 0xa841
0000A821  746F              jz 0xa892
0000A823  206265            and [edx+0x65],ah
0000A826  206D61            and [ebp+0x61],ch
0000A829  7070              jo 0xa89b
0000A82B  65640000          add [fs:eax],al
0000A82F  007074            add [eax+0x74],dh
0000A832  207365            and [ebx+0x65],dh
0000A835  656D              gs insd
0000A837  7320              jnc 0xa859
0000A839  746F              jz 0xa8aa
0000A83B  206265            and [edx+0x65],ah
0000A83E  206D61            and [ebp+0x61],ch
0000A841  7070              jo 0xa8b3
0000A843  656420616E        and [fs:ecx+0x6e],ah
0000A848  64207368          and [fs:ebx+0x68],dh
0000A84C  61                popad
0000A84D  7265              jc 0xa8b4
0000A84F  64007067          add [fs:eax+0x67],dh
0000A853  20257820696E      and [dword 0x6e692078],ah
0000A859  207074            and [eax+0x74],dh
0000A85C  2025782C2070      and [dword 0x70202c78],ah
0000A862  7061              jo 0xa8c5
0000A864  67652025          and [gs:di],ah
0000A868  780A              js 0xa874
0000A86A  007070            add [eax+0x70],dh
0000A86D  61                popad
0000A86E  67652025          and [gs:di],ah
0000A872  780A              js 0xa87e
0000A874  006361            add [ebx+0x61],ah
0000A877  6E                outsb
0000A878  6E                outsb
0000A879  6F                outsd
0000A87A  7420              jz 0xa89c
0000A87C  696E6320726566    imul ebp,[esi+0x63],dword 0x66657220
0000A883  20636F            and [ebx+0x6f],ah
0000A886  756E              jnz 0xa8f6
0000A888  7400              jz 0xa88a
0000A88A  7061              jo 0xa8ed
0000A88C  67696E675F636F77  imul ebp,[bp+0x67],dword 0x776f635f
0000A894  5F                pop edi
0000A895  696E6974007061    imul ebp,[esi+0x69],dword 0x61700074
0000A89C  67696E675F646573  imul ebp,[bp+0x67],dword 0x7365645f
0000A8A4  7472              jz 0xa918
0000A8A6  6F                outsd
0000A8A7  795F              jns 0xa908
0000A8A9  7064              jo 0xa90f
0000A8AB  007061            add [eax+0x61],dh
0000A8AE  67696E675F756E6D  imul ebp,[bp+0x67],dword 0x6d6e755f
0000A8B6  61                popad
0000A8B7  7000              jo 0xa8b9
0000A8B9  7061              jo 0xa91c
0000A8BB  67696E675F6D6170  imul ebp,[bp+0x67],dword 0x70616d5f
0000A8C3  006673            add [esi+0x73],ah
0000A8C6  2F                das
0000A8C7  636163            arpl [ecx+0x63],sp
0000A8CA  68652E6300        push dword 0x632e65
0000A8CF  25733A2025        and eax,0x25203a73
0000A8D4  733A              jnc 0xa910
0000A8D6  207061            and [eax+0x61],dh
0000A8D9  6E                outsb
0000A8DA  69633A20006E6F    imul esp,[ebx+0x3a],dword 0x6f6e0020
0000A8E1  207068            and [eax+0x68],dh
0000A8E4  7973              jns 0xa959
0000A8E6  6963616C206D65    imul esp,[ebx+0x61],dword 0x656d206c
0000A8ED  6D                insd
0000A8EE  6F                outsd
0000A8EF  7279              jc 0xa96a
0000A8F1  206C6566          and [ebp+0x66],ch
0000A8F5  7400              jz 0xa8f7
0000A8F7  6661              popaw
0000A8F9  696C6564206D6170  imul ebp,[ebp+0x64],dword 0x70616d20
0000A901  7069              jo 0xa96c
0000A903  6E                outsb
0000A904  67207061          and [bx+si+0x61],dh
0000A908  676500696E        add [gs:bx+di+0x6e],ch
0000A90D  7661              jna 0xa970
0000A90F  6C                insb
0000A910  6964206469727479  imul esp,[eax+0x64],dword 0x79747269
0000A918  20626C            and [edx+0x6c],ah
0000A91B  6F                outsd
0000A91C  636B20            arpl [ebx+0x20],bp
0000A91F  636F75            arpl [edi+0x75],bp
0000A922  6E                outsb
0000A923  7400              jz 0xa925
0000A925  636163            arpl [ecx+0x63],sp
0000A928  68655F7772        push dword 0x72775f65
0000A92D  6974650063616368  imul esi,[ebp+0x0],dword 0x68636163
0000A935  655F              gs pop edi
0000A937  696E6974006673    imul ebp,[esi+0x69],dword 0x73660074
0000A93E  2F                das
0000A93F  6661              popaw
0000A941  7433              jz 0xa976
0000A943  322E              xor ch,[esi]
0000A945  6300              arpl [eax],ax
0000A947  25733A2025        and eax,0x25203a73
0000A94C  733A              jnc 0xa988
0000A94E  207061            and [eax+0x61],dh
0000A951  6E                outsb
0000A952  69633A20000066    imul esp,[ebx+0x3a],dword 0x66000020
0000A959  61                popad
0000A95A  696C656420726561  imul ebp,[ebp+0x64],dword 0x61657220
0000A962  64696E6720464154  imul ebp,[fs:esi+0x67],dword 0x54414620
0000A96A  3332              xor esi,[edx]
0000A96C  207375            and [ebx+0x75],dh
0000A96F  7065              jo 0xa9d6
0000A971  7262              jc 0xa9d5
0000A973  6C                insb
0000A974  6F                outsd
0000A975  636B00            arpl [ebx+0x0],bp
0000A978  6661              popaw
0000A97A  696C656420726561  imul ebp,[ebp+0x64],dword 0x61657220
0000A982  64696E6720465369  imul ebp,[fs:esi+0x67],dword 0x69534620
0000A98A  6E                outsb
0000A98B  666F              outsw
0000A98D  207365            and [ebx+0x65],dh
0000A990  63746F72          arpl [edi+ebp*2+0x72],si
0000A994  0000              add [eax],al
0000A996  0000              add [eax],al
0000A998  6661              popaw
0000A99A  696C656420726561  imul ebp,[ebp+0x64],dword 0x61657220
0000A9A2  64696E6720746865  imul ebp,[fs:esi+0x67],dword 0x65687420
0000A9AA  206669            and [esi+0x69],ah
0000A9AD  7273              jc 0xaa22
0000A9AF  7420              jz 0xa9d1
0000A9B1  7365              jnc 0xaa18
0000A9B3  63746F72          arpl [edi+ebp*2+0x72],si
0000A9B7  206F66            and [edi+0x66],ch
0000A9BA  20746865          and [eax+ebp*2+0x65],dh
0000A9BE  204641            and [esi+0x41],al
0000A9C1  54                push esp
0000A9C2  00696E            add [ecx+0x6e],ch
0000A9C5  7661              jna 0xaa28
0000A9C7  6C                insb
0000A9C8  6964204641543332  imul esp,[eax+0x46],dword 0x32335441
0000A9D0  206669            and [esi+0x69],ah
0000A9D3  6C                insb
0000A9D4  657379            gs jnc 0xaa50
0000A9D7  7374              jnc 0xaa4d
0000A9D9  656D              gs insd
0000A9DB  006661            add [esi+0x61],ah
0000A9DE  745F              jz 0xaa3f
0000A9E0  7365              jnc 0xaa47
0000A9E2  6320              arpl [eax],sp
0000A9E4  3D2025780A        cmp eax,0xa782520
0000A9E9  00696E            add [ecx+0x6e],ch
0000A9EC  7465              jz 0xaa53
0000A9EE  726E              jc 0xaa5e
0000A9F0  61                popad
0000A9F1  6C                insb
0000A9F2  206572            and [ebp+0x72],ah
0000A9F5  726F              jc 0xaa66
0000A9F7  7200              jc 0xa9f9
0000A9F9  6661              popaw
0000A9FB  696C656420667265  imul ebp,[ebp+0x64],dword 0x65726620
0000AA03  65696E6720636C75  imul ebp,[gs:esi+0x67],dword 0x756c6320
0000AA0B  7374              jnc 0xaa81
0000AA0D  2E006E6F          add [cs:esi+0x6f],ch
0000AA11  7420              jz 0xaa33
0000AA13  656E              gs outsb
0000AA15  6F                outsd
0000AA16  7567              jnz 0xaa7f
0000AA18  6820636C75        push dword 0x756c6320
0000AA1D  7374              jnc 0xaa93
0000AA1F  657273            gs jc 0xaa95
0000AA22  0A00              or al,[eax]
0000AA24  636F75            arpl [edi+0x75],bp
0000AA27  6C                insb
0000AA28  64206E6F          and [fs:esi+0x6f],ch
0000AA2C  7420              jz 0xaa4e
0000AA2E  667265            o16 jc 0xaa96
0000AA31  6520636C          and [gs:ebx+0x6c],ah
0000AA35  7573              jnz 0xaaaa
0000AA37  7465              jz 0xaa9e
0000AA39  7273              jc 0xaaae
0000AA3B  0A00              or al,[eax]
0000AA3D  696E76616C6964    imul ebp,[esi+0x76],dword 0x64696c61
0000AA44  20636C            and [ebx+0x6c],ah
0000AA47  7573              jnz 0xaabc
0000AA49  7465              jz 0xaab0
0000AA4B  7220              jc 0xaa6d
0000AA4D  2578006672        and eax,0x72660078
0000AA52  6565696E67206672  imul ebp,[gs:esi+0x67],dword 0x6f726620
         -6F
0000AA5B  6D                insd
0000AA5C  20636C            and [ebx+0x6c],ah
0000AA5F  7573              jnz 0xaad4
0000AA61  7465              jz 0xaac8
0000AA63  7220              jc 0xaa85
0000AA65  25780A0066        and eax,0x66000a78
0000AA6A  7265              jc 0xaad1
0000AA6C  65696E672025780A  imul ebp,[gs:esi+0x67],dword 0xa782520
0000AA74  006672            add [esi+0x72],ah
0000AA77  6565643A20        cmp ah,[fs:eax]
0000AA7C  25780A0066        and eax,0x66000a78
0000AA81  61                popad
0000AA82  696C656420726573  imul ebp,[ebp+0x64],dword 0x73657220
0000AA8A  746F              jz 0xaafb
0000AA8C  7269              jc 0xaaf7
0000AA8E  6E                outsb
0000AA8F  67207072          and [bx+si+0x72],dh
0000AA93  657669            gs jna 0xaaff
0000AA96  6F                outsd
0000AA97  7573              jnz 0xab0c
0000AA99  20656F            and [ebp+0x6f],ah
0000AA9C  66006661          o16 add [esi+0x61],ah
0000AAA0  696C656420667265  imul ebp,[ebp+0x64],dword 0x65726620
0000AAA8  65696E6720636C75  imul ebp,[gs:esi+0x67],dword 0x756c6320
0000AAB0  7374              jnc 0xab26
0000AAB2  657273            gs jc 0xab28
0000AAB5  0000              add [eax],al
0000AAB7  006E6F            add [esi+0x6f],ch
0000AABA  206E75            and [esi+0x75],ch
0000AABD  6C                insb
0000AABE  6C                insb
0000AABF  20656E            and [ebp+0x6e],ah
0000AAC2  7472              jz 0xab36
0000AAC4  7920              jns 0xaae6
0000AAC6  61                popad
0000AAC7  7420              jz 0xaae9
0000AAC9  7468              jz 0xab33
0000AACB  6520656E          and [gs:ebp+0x6e],ah
0000AACF  64206F66          and [fs:edi+0x66],ch
0000AAD3  20746865          and [eax+ebp*2+0x65],dh
0000AAD7  20646972          and [ecx+ebp*2+0x72],ah
0000AADB  6563746F72        arpl [gs:edi+ebp*2+0x72],si
0000AAE0  7900              jns 0xaae2
0000AAE2  656E              gs outsb
0000AAE4  64206F66          and [fs:edi+0x66],ch
0000AAE8  20646972          and [ecx+ebp*2+0x72],ah
0000AAEC  6563746F72        arpl [gs:edi+ebp*2+0x72],si
0000AAF1  790A              jns 0xaafd
0000AAF3  00616C            add [ecx+0x6c],ah
0000AAF6  6C                insb
0000AAF7  6F                outsd
0000AAF8  636174            arpl [ecx+0x74],sp
0000AAFB  696E672061206E    imul ebp,[esi+0x67],dword 0x6e206120
0000AB02  657720            gs ja 0xab25
0000AB05  636C7573          arpl [ebp+esi*2+0x73],bp
0000AB09  7465              jz 0xab70
0000AB0B  720A              jc 0xab17
0000AB0D  006661            add [esi+0x61],ah
0000AB10  696C656420667265  imul ebp,[ebp+0x64],dword 0x65726620
0000AB18  65696E6720636C75  imul ebp,[gs:esi+0x67],dword 0x756c6320
0000AB20  7374              jnc 0xab96
0000AB22  657273            gs jc 0xab98
0000AB25  0A00              or al,[eax]
0000AB27  006E6F            add [esi+0x6f],ch
0000AB2A  6E                outsb
0000AB2B  2D656D7074        sub eax,0x74706d65
0000AB30  7920              jns 0xab52
0000AB32  6469726563746F72  imul esi,[fs:edx+0x65],dword 0x726f7463
0000AB3A  7920              jns 0xab5c
0000AB3C  282578206469      sub [dword 0x69642078],ah
0000AB42  7265              jc 0xaba9
0000AB44  63746F72          arpl [edi+ebp*2+0x72],si
0000AB48  7920              jns 0xab6a
0000AB4A  656E              gs outsb
0000AB4C  7472              jz 0xabc0
0000AB4E  696573290A0066    imul esp,[ebp+0x73],dword 0x66000a29
0000AB55  61                popad
0000AB56  7433              jz 0xab8b
0000AB58  325F63            xor bl,[edi+0x63]
0000AB5B  7265              jc 0xabc2
0000AB5D  61                popad
0000AB5E  7465              jz 0xabc5
0000AB60  006661            add [esi+0x61],ah
0000AB63  7433              jz 0xab98
0000AB65  325F63            xor bl,[edi+0x63]
0000AB68  6F                outsd
0000AB69  756E              jnz 0xabd9
0000AB6B  745F              jz 0xabcc
0000AB6D  64656E            gs outsb
0000AB70  7400              jz 0xab72
0000AB72  6661              popaw
0000AB74  7433              jz 0xaba9
0000AB76  325F6C            xor bl,[edi+0x6c]
0000AB79  6F                outsd
0000AB7A  6F                outsd
0000AB7B  6B5F666F          imul ebx,[edi+0x66],byte +0x6f
0000AB7F  725F              jc 0xabe0
0000AB81  64656E            gs outsb
0000AB84  7400              jz 0xab86
0000AB86  6661              popaw
0000AB88  7433              jz 0xabbd
0000AB8A  325F61            xor bl,[edi+0x61]
0000AB8D  7070              jo 0xabff
0000AB8F  656E              gs outsb
0000AB91  64006661          add [fs:esi+0x61],ah
0000AB95  7433              jz 0xabca
0000AB97  325F66            xor bl,[edi+0x66]
0000AB9A  7265              jc 0xac01
0000AB9C  655F              gs pop edi
0000AB9E  636C7573          arpl [ebp+esi*2+0x73],bp
0000ABA2  7465              jz 0xac09
0000ABA4  7273              jc 0xac19
0000ABA6  006661            add [esi+0x61],ah
0000ABA9  7433              jz 0xabde
0000ABAB  325F61            xor bl,[edi+0x61]
0000ABAE  6C                insb
0000ABAF  6C                insb
0000ABB0  6F                outsd
0000ABB1  635F63            arpl [edi+0x63],bx
0000ABB4  6C                insb
0000ABB5  7573              jnz 0xac2a
0000ABB7  7465              jz 0xac1e
0000ABB9  7273              jc 0xac2e
0000ABBB  006661            add [esi+0x61],ah
0000ABBE  7433              jz 0xabf3
0000ABC0  325F69            xor bl,[edi+0x69]
0000ABC3  6E                outsb
0000ABC4  69740066732F6669  imul esi,[eax+eax+0x66],dword 0x69662f73
0000ABCC  666F              outsw
0000ABCE  2E6300            arpl [cs:eax],ax
0000ABD1  25733A2025        and eax,0x25203a73
0000ABD6  733A              jnc 0xac12
0000ABD8  207061            and [eax+0x61],dh
0000ABDB  6E                outsb
0000ABDC  69633A20006669    imul esp,[ebx+0x3a],dword 0x69660020
0000ABE3  666F              outsw
0000ABE5  207265            and [edx+0x65],dh
0000ABE8  61                popad
0000ABE9  64206375          and [fs:ebx+0x75],ah
0000ABED  7273              jc 0xac62
0000ABEF  6F                outsd
0000ABF0  7220              jc 0xac12
0000ABF2  69732025780066    imul esi,[ebx+0x20],dword 0x66007825
0000ABF9  69666F20777269    imul esp,[esi+0x6f],dword 0x69727720
0000AC00  7465              jz 0xac67
0000AC02  206375            and [ebx+0x75],ah
0000AC05  7273              jc 0xac7a
0000AC07  6F                outsd
0000AC08  7220              jc 0xac2a
0000AC0A  69732025780066    imul esi,[ebx+0x20],dword 0x66007825
0000AC11  69666F5F777269    imul esp,[esi+0x6f],dword 0x6972775f
0000AC18  7465              jz 0xac7f
0000AC1A  5F                pop edi
0000AC1B  627974            bound edi,[ecx+0x74]
0000AC1E  65006669          add [gs:esi+0x69],ah
0000AC22  666F              outsw
0000AC24  5F                pop edi
0000AC25  7265              jc 0xac8c
0000AC27  61                popad
0000AC28  645F              fs pop edi
0000AC2A  627974            bound edi,[ecx+0x74]
0000AC2D  650000            add [gs:eax],al
0000AC30  696E6F64652025    imul ebp,[esi+0x6f],dword 0x25206564
0000AC37  7820              js 0xac59
0000AC39  69732066726565    imul esi,[ebx+0x20],dword 0x65657266
0000AC40  0A00              or al,[eax]
0000AC42  66732F            o16 jnc 0xac74
0000AC45  66696C652E6300    imul bp,[ebp+0x2e],word 0x63
0000AC4C  25733A2025        and eax,0x25203a73
0000AC51  733A              jnc 0xac8d
0000AC53  207061            and [eax+0x61],dh
0000AC56  6E                outsb
0000AC57  69633A20006261    imul esp,[ebx+0x3a],dword 0x61620020
0000AC5E  6420696E          and [fs:ecx+0x6e],ch
0000AC62  6F                outsd
0000AC63  6465206E75        and [gs:esi+0x75],ch
0000AC68  6D                insd
0000AC69  626572            bound esp,[ebp+0x72]
0000AC6C  0000              add [eax],al
0000AC6E  0000              add [eax],al
0000AC70  63616E            arpl [ecx+0x6e],sp
0000AC73  6E                outsb
0000AC74  6F                outsd
0000AC75  7420              jz 0xac97
0000AC77  7265              jc 0xacde
0000AC79  66657265          gs o16 jc 0xace2
0000AC7D  6E                outsb
0000AC7E  636520            arpl [ebp+0x20],sp
0000AC81  66696C65202578    imul bp,[ebp+0x20],word 0x7825
0000AC88  20616E            and [ecx+0x6e],ah
0000AC8B  796D              jns 0xacfa
0000AC8D  6F                outsd
0000AC8E  7265              jc 0xacf5
0000AC90  0000              add [eax],al
0000AC92  0000              add [eax],al
0000AC94  7265              jc 0xacfb
0000AC96  66657265          gs o16 jc 0xacff
0000AC9A  6E                outsb
0000AC9B  636520            arpl [ebp+0x20],sp
0000AC9E  66696C65202578    imul bp,[ebp+0x20],word 0x7825
0000ACA5  2028              and [eax],ch
0000ACA7  6F                outsd
0000ACA8  6C                insb
0000ACA9  64207265          and [fs:edx+0x65],dh
0000ACAD  66657265          gs o16 jc 0xad16
0000ACB1  6E                outsb
0000ACB2  636520            arpl [ebp+0x20],sp
0000ACB5  636F75            arpl [edi+0x75],bp
0000ACB8  6E                outsb
0000ACB9  743A              jz 0xacf5
0000ACBB  202578290A00      and [dword 0xa2978],ah
0000ACC1  0000              add [eax],al
0000ACC3  00747279          add [edx+esi*2+0x79],dh
0000ACC7  696E6720746F20    imul ebp,[esi+0x67],dword 0x206f7420
0000ACCE  756E              jnz 0xad3e
0000ACD0  7265              jc 0xad37
0000ACD2  66657265          gs o16 jc 0xad3b
0000ACD6  6E                outsb
0000ACD7  636520            arpl [ebp+0x20],sp
0000ACDA  61                popad
0000ACDB  206672            and [esi+0x72],ah
0000ACDE  6565206669        and [gs:esi+0x69],ah
0000ACE3  6C                insb
0000ACE4  652028            and [gs:eax],ch
0000ACE7  696E756D3A2025    imul ebp,[esi+0x75],dword 0x25203a6d
0000ACEE  7829              js 0xad19
0000ACF0  0000              add [eax],al
0000ACF2  0000              add [eax],al
0000ACF4  756E              jnz 0xad64
0000ACF6  7265              jc 0xad5d
0000ACF8  66657265          gs o16 jc 0xad61
0000ACFC  6E                outsb
0000ACFD  636520            arpl [ebp+0x20],sp
0000AD00  66696C65202578    imul bp,[ebp+0x20],word 0x7825
0000AD07  2028              and [eax],ch
0000AD09  6F                outsd
0000AD0A  6C                insb
0000AD0B  64207265          and [fs:edx+0x65],dh
0000AD0F  66657265          gs o16 jc 0xad78
0000AD13  6E                outsb
0000AD14  636520            arpl [ebp+0x20],sp
0000AD17  636F75            arpl [edi+0x75],bp
0000AD1A  6E                outsb
0000AD1B  743A              jz 0xad57
0000AD1D  202578290A00      and [dword 0xa2978],ah
0000AD23  696E6F64652025    imul ebp,[esi+0x6f],dword 0x25206564
0000AD2A  7820              js 0xad4c
0000AD2C  626563            bound esp,[ebp+0x63]
0000AD2F  6F                outsd
0000AD30  6D                insd
0000AD31  657320            gs jnc 0xad54
0000AD34  667265            o16 jc 0xad9c
0000AD37  650A00            or al,[gs:eax]
0000AD3A  626164            bound esp,[ecx+0x64]
0000AD3D  206669            and [esi+0x69],ah
0000AD40  6C                insb
0000AD41  6520646573        and [gs:ebp+0x73],ah
0000AD46  637269            arpl [edx+0x69],si
0000AD49  7074              jo 0xadbf
0000AD4B  6F                outsd
0000AD4C  7220              jc 0xad6e
0000AD4E  2578006669        and eax,0x69660078
0000AD53  6C                insb
0000AD54  6465735F          gs jnc 0xadb7
0000AD58  667265            o16 jc 0xadc0
0000AD5B  65006669          add [gs:esi+0x69],ah
0000AD5F  6C                insb
0000AD60  655F              gs pop edi
0000AD62  756E              jnz 0xadd2
0000AD64  7265              jc 0xadcb
0000AD66  66006669          o16 add [esi+0x69],ah
0000AD6A  6C                insb
0000AD6B  655F              gs pop edi
0000AD6D  7265              jc 0xadd4
0000AD6F  660000            o16 add [eax],al
0000AD72  0000              add [eax],al
0000AD74  2F                das
0000AD75  0000              add [eax],al
0000AD77  006372            add [ebx+0x72],ah
0000AD7A  6561              gs popad
0000AD7C  7469              jz 0xade7
0000AD7E  6E                outsb
0000AD7F  67206469          and [si+0x69],ah
0000AD83  7265              jc 0xadea
0000AD85  63746F72          arpl [edi+ebp*2+0x72],si
0000AD89  7920              jns 0xadab
0000AD8B  222573222069      and ah,[dword 0x69202273]
0000AD91  6E                outsb
0000AD92  2022              and [edx],ah
0000AD94  2573220A00        and eax,0xa2273
0000AD99  637265            arpl [edx+0x65],si
0000AD9C  61                popad
0000AD9D  7469              jz 0xae08
0000AD9F  6E                outsb
0000ADA0  67206669          and [bp+0x69],ah
0000ADA4  6C                insb
0000ADA5  652022            and [gs:edx],ah
0000ADA8  2573222069        and eax,0x69202273
0000ADAD  6E                outsb
0000ADAE  2022              and [edx],ah
0000ADB0  2573220A00        and eax,0xa2273
0000ADB5  66732F            o16 jnc 0xade7
0000ADB8  7061              jo 0xae1b
0000ADBA  7468              jz 0xae24
0000ADBC  2E6300            arpl [cs:eax],ax
0000ADBF  25733A2025        and eax,0x25203a73
0000ADC4  733A              jnc 0xae00
0000ADC6  207061            and [eax+0x61],dh
0000ADC9  6E                outsb
0000ADCA  69633A20006261    imul esp,[ebx+0x3a],dword 0x61620020
0000ADD1  64202A            and [fs:edx],ch
0000ADD4  656E              gs outsb
0000ADD6  647020            fs jo 0xadf9
0000ADD9  7661              jna 0xae3c
0000ADDB  6C                insb
0000ADDC  7565              jnz 0xae43
0000ADDE  007061            add [eax+0x61],dh
0000ADE1  7468              jz 0xae4b
0000ADE3  5F                pop edi
0000ADE4  637265            arpl [edx+0x65],si
0000ADE7  61                popad
0000ADE8  7465              jz 0xae4f
0000ADEA  0000              add [eax],al
0000ADEC  66732F            o16 jnc 0xae1e
0000ADEF  7474              jz 0xae65
0000ADF1  792E              jns 0xae21
0000ADF3  6300              arpl [eax],ax
0000ADF5  25733A2025        and eax,0x25203a73
0000ADFA  733A              jnc 0xae36
0000ADFC  207061            and [eax+0x61],dh
0000ADFF  6E                outsb
0000AE00  69633A2000636F    imul esp,[ebx+0x3a],dword 0x6f630020
0000AE07  756C              jnz 0xae75
0000AE09  646E              fs outsb
0000AE0B  27                daa
0000AE0C  7420              jz 0xae2e
0000AE0E  7265              jc 0xae75
0000AE10  61                popad
0000AE11  64206672          and [fs:esi+0x72],ah
0000AE15  6F                outsd
0000AE16  6D                insd
0000AE17  20747479          and [esp+esi*2+0x79],dh
0000AE1B  206669            and [esi+0x69],ah
0000AE1E  666F              outsw
0000AE20  2031              and [ecx],dh
0000AE22  00747479          add [esp+esi*2+0x79],dh
0000AE26  206669            and [esi+0x69],ah
0000AE29  666F              outsw
0000AE2B  2032              and [edx],dh
0000AE2D  207772            and [edi+0x72],dh
0000AE30  6974652065727200  imul esi,[ebp+0x20],dword 0x727265
0000AE38  6661              popaw
0000AE3A  696C656420726561  imul ebp,[ebp+0x64],dword 0x61657220
0000AE42  64696E672066726F  imul ebp,[fs:esi+0x67],dword 0x6f726620
0000AE4A  6D                insd
0000AE4B  20747479          and [esp+esi*2+0x79],dh
0000AE4F  206669            and [esi+0x69],ah
0000AE52  666F              outsw
0000AE54  2032              and [edx],dh
0000AE56  00636F            add [ebx+0x6f],ah
0000AE59  756C              jnz 0xaec7
0000AE5B  646E              fs outsb
0000AE5D  27                daa
0000AE5E  7420              jz 0xae80
0000AE60  7772              ja 0xaed4
0000AE62  69746520746F2074  imul esi,[ebp+0x20],dword 0x74206f74
0000AE6A  7479              jz 0xaee5
0000AE6C  206669            and [esi+0x69],ah
0000AE6F  666F              outsw
0000AE71  2032              and [edx],dh
0000AE73  00747479          add [esp+esi*2+0x79],dh
0000AE77  5F                pop edi
0000AE78  7265              jc 0xaedf
0000AE7A  61                popad
0000AE7B  640000            add [fs:eax],al
0000AE7E  0000              add [eax],al
0000AE80  1400              adc al,0x0
0000AE82  0000              add [eax],al
0000AE84  0000              add [eax],al
0000AE86  0000              add [eax],al
0000AE88  017A52            add [edx+0x52],edi
0000AE8B  0001              add [ecx],al
0000AE8D  7C08              jl 0xae97
0000AE8F  011B              add [ebx],ebx
0000AE91  0C04              or al,0x4
0000AE93  0488              add al,0x88
0000AE95  0100              add [eax],eax
0000AE97  0018              add [eax],bl
0000AE99  0000              add [eax],al
0000AE9B  001C00            add [eax+eax],bl
0000AE9E  0000              add [eax],al
0000AEA0  60                pushad
0000AEA1  51                push ecx
0000AEA2  FF                db 0xff
0000AEA3  FF9601000000      call dword near [esi+0x1]
0000AEA9  41                inc ecx
0000AEAA  0E                push cs
0000AEAB  088502420D05      or [ebp+0x50d4202],al
0000AEB1  0000              add [eax],al
0000AEB3  001C00            add [eax+eax],bl
0000AEB6  0000              add [eax],al
0000AEB8  3800              cmp [eax],al
0000AEBA  0000              add [eax],al
0000AEBC  DA52FF            ficom dword [edx-0x1]
0000AEBF  FF31              push dword [ecx]
0000AEC1  0000              add [eax],al
0000AEC3  0000              add [eax],al
0000AEC5  41                inc ecx
0000AEC6  0E                push cs
0000AEC7  088502420D05      or [ebp+0x50d4202],al
0000AECD  6D                insd
0000AECE  C50C04            lds ecx,[esp+eax]
0000AED1  0400              add al,0x0
0000AED3  0018              add [eax],bl
0000AED5  0000              add [eax],al
0000AED7  005800            add [eax+0x0],bl
0000AEDA  0000              add [eax],al
0000AEDC  EB52              jmp short 0xaf30
0000AEDE  FF                db 0xff
0000AEDF  FFA300000000      jmp dword near [ebx+0x0]
0000AEE5  41                inc ecx
0000AEE6  0E                push cs
0000AEE7  088502420D05      or [ebp+0x50d4202],al
0000AEED  7C86              jl 0xae75
0000AEEF  0318              add ebx,[eax]
0000AEF1  0000              add [eax],al
0000AEF3  00740000          add [eax+eax+0x0],dh
0000AEF7  007253            add [edx+0x53],dh
0000AEFA  FF                db 0xff
0000AEFB  FF6101            jmp dword near [ecx+0x1]
0000AEFE  0000              add [eax],al
0000AF00  00410E            add [ecx+0xe],al
0000AF03  088502420D05      or [ebp+0x50d4202],al
0000AF09  0000              add [eax],al
0000AF0B  0018              add [eax],bl
0000AF0D  0000              add [eax],al
0000AF0F  0090000000B7      add [eax-0x49000000],dl
0000AF15  54                push esp
0000AF16  FF                db 0xff
0000AF17  FF2400            jmp dword near [eax+eax]
0000AF1A  0000              add [eax],al
0000AF1C  00410E            add [ecx+0xe],al
0000AF1F  088502420D05      or [ebp+0x50d4202],al
0000AF25  52                push edx
0000AF26  8603              xchg al,[ebx]
0000AF28  1800              sbb [eax],al
0000AF2A  0000              add [eax],al
0000AF2C  AC                lodsb
0000AF2D  0000              add [eax],al
0000AF2F  00BF54FFFF24      add [edi+0x24ffff54],bh
0000AF35  0000              add [eax],al
0000AF37  0000              add [eax],al
0000AF39  41                inc ecx
0000AF3A  0E                push cs
0000AF3B  088502420D05      or [ebp+0x50d4202],al
0000AF41  52                push edx
0000AF42  8603              xchg al,[ebx]
0000AF44  1800              sbb [eax],al
0000AF46  0000              add [eax],al
0000AF48  C8000000          enter 0x0,0x0
0000AF4C  C7                db 0xc7
0000AF4D  54                push esp
0000AF4E  FF                db 0xff
0000AF4F  FF2400            jmp dword near [eax+eax]
0000AF52  0000              add [eax],al
0000AF54  00410E            add [ecx+0xe],al
0000AF57  088502420D05      or [ebp+0x50d4202],al
0000AF5D  52                push edx
0000AF5E  8603              xchg al,[ebx]
0000AF60  1800              sbb [eax],al
0000AF62  0000              add [eax],al
0000AF64  E400              in al,0x0
0000AF66  0000              add [eax],al
0000AF68  CF                iretd
0000AF69  54                push esp
0000AF6A  FF                db 0xff
0000AF6B  FF6B00            jmp dword far [ebx+0x0]
0000AF6E  0000              add [eax],al
0000AF70  00410E            add [ecx+0xe],al
0000AF73  088502420D05      or [ebp+0x50d4202],al
0000AF79  60                pushad
0000AF7A  8603              xchg al,[ebx]
0000AF7C  1800              sbb [eax],al
0000AF7E  0000              add [eax],al
0000AF80  0001              add [ecx],al
0000AF82  0000              add [eax],al
0000AF84  1E                push ds
0000AF85  55                push ebp
0000AF86  FF                db 0xff
0000AF87  FF7600            push dword [esi+0x0]
0000AF8A  0000              add [eax],al
0000AF8C  00410E            add [ecx+0xe],al
0000AF8F  088502420D05      or [ebp+0x50d4202],al
0000AF95  6F                outsd
0000AF96  8603              xchg al,[ebx]
0000AF98  1800              sbb [eax],al
0000AF9A  0000              add [eax],al
0000AF9C  1C01              sbb al,0x1
0000AF9E  0000              add [eax],al
0000AFA0  7855              js 0xaff7
0000AFA2  FF                db 0xff
0000AFA3  FF2400            jmp dword near [eax+eax]
0000AFA6  0000              add [eax],al
0000AFA8  00410E            add [ecx+0xe],al
0000AFAB  088502420D05      or [ebp+0x50d4202],al
0000AFB1  52                push edx
0000AFB2  8603              xchg al,[ebx]
0000AFB4  1C00              sbb al,0x0
0000AFB6  0000              add [eax],al
0000AFB8  3801              cmp [ecx],al
0000AFBA  0000              add [eax],al
0000AFBC  8055FFFF          adc byte [ebp-0x1],0xff
0000AFC0  C20000            ret 0x0
0000AFC3  0000              add [eax],al
0000AFC5  41                inc ecx
0000AFC6  0E                push cs
0000AFC7  088502420D05      or [ebp+0x50d4202],al
0000AFCD  025D86            add bl,[ebp-0x7a]
0000AFD0  0300              add eax,[eax]
0000AFD2  0000              add [eax],al
0000AFD4  1800              sbb [eax],al
0000AFD6  0000              add [eax],al
0000AFD8  58                pop eax
0000AFD9  0100              add [eax],eax
0000AFDB  0022              add [edx],ah
0000AFDD  56                push esi
0000AFDE  FF                db 0xff
0000AFDF  FF2400            jmp dword near [eax+eax]
0000AFE2  0000              add [eax],al
0000AFE4  00410E            add [ecx+0xe],al
0000AFE7  088502420D05      or [ebp+0x50d4202],al
0000AFED  52                push edx
0000AFEE  8603              xchg al,[ebx]
0000AFF0  1C00              sbb al,0x0
0000AFF2  0000              add [eax],al
0000AFF4  7401              jz 0xaff7
0000AFF6  0000              add [eax],al
0000AFF8  2A56FF            sub dl,[esi-0x1]
0000AFFB  FFC2              inc edx
0000AFFD  0000              add [eax],al
0000AFFF  0000              add [eax],al
0000B001  41                inc ecx
0000B002  0E                push cs
0000B003  088502420D05      or [ebp+0x50d4202],al
0000B009  025D86            add bl,[ebp-0x7a]
0000B00C  0300              add eax,[eax]
0000B00E  0000              add [eax],al
0000B010  2000              and [eax],al
0000B012  0000              add [eax],al
0000B014  94                xchg eax,esp
0000B015  0100              add [eax],eax
0000B017  00CC              add ah,cl
0000B019  56                push esi
0000B01A  FF                db 0xff
0000B01B  FF                db 0xff
0000B01C  3B00              cmp eax,[eax]
0000B01E  0000              add [eax],al
0000B020  00410E            add [ecx+0xe],al
0000B023  088502420D05      or [ebp+0x50d4202],al
0000B029  54                push esp
0000B02A  8603              xchg al,[ebx]
0000B02C  62                db 0x62
0000B02D  C6410C04          mov byte [ecx+0xc],0x4
0000B031  04C5              add al,0xc5
0000B033  0018              add [eax],bl
0000B035  0000              add [eax],al
0000B037  00B8010000E3      add [eax-0x1cffffff],bh
0000B03D  56                push esi
0000B03E  FF                db 0xff
0000B03F  FF2400            jmp dword near [eax+eax]
0000B042  0000              add [eax],al
0000B044  00410E            add [ecx+0xe],al
0000B047  088502420D05      or [ebp+0x50d4202],al
0000B04D  52                push edx
0000B04E  8603              xchg al,[ebx]
0000B050  1800              sbb [eax],al
0000B052  0000              add [eax],al
0000B054  D401              aam 0x1
0000B056  0000              add [eax],al
0000B058  EB56              jmp short 0xb0b0
0000B05A  FF                db 0xff
0000B05B  FF2400            jmp dword near [eax+eax]
0000B05E  0000              add [eax],al
0000B060  00410E            add [ecx+0xe],al
0000B063  088502420D05      or [ebp+0x50d4202],al
0000B069  52                push edx
0000B06A  8603              xchg al,[ebx]
0000B06C  1800              sbb [eax],al
0000B06E  0000              add [eax],al
0000B070  F00100            lock add [eax],eax
0000B073  00F3              add bl,dh
0000B075  56                push esi
0000B076  FF                db 0xff
0000B077  FF2400            jmp dword near [eax+eax]
0000B07A  0000              add [eax],al
0000B07C  00410E            add [ecx+0xe],al
0000B07F  088502420D05      or [ebp+0x50d4202],al
0000B085  52                push edx
0000B086  8603              xchg al,[ebx]
0000B088  1800              sbb [eax],al
0000B08A  0000              add [eax],al
0000B08C  0C02              or al,0x2
0000B08E  0000              add [eax],al
0000B090  FB                sti
0000B091  56                push esi
0000B092  FF                db 0xff
0000B093  FF                db 0xff
0000B094  BC00000000        mov esp,0x0
0000B099  41                inc ecx
0000B09A  0E                push cs
0000B09B  088502420D05      or [ebp+0x50d4202],al
0000B0A1  7386              jnc 0xb029
0000B0A3  0320              add esp,[eax]
0000B0A5  0000              add [eax],al
0000B0A7  0028              add [eax],ch
0000B0A9  0200              add al,[eax]
0000B0AB  009B57FFFF5C      add [ebx+0x5cffff57],bl
0000B0B1  0000              add [eax],al
0000B0B3  0000              add [eax],al
0000B0B5  41                inc ecx
0000B0B6  0E                push cs
0000B0B7  088502420D05      or [ebp+0x50d4202],al
0000B0BD  61                popad
0000B0BE  8603              xchg al,[ebx]
0000B0C0  76C6              jna 0xb088
0000B0C2  41                inc ecx
0000B0C3  0C04              or al,0x4
0000B0C5  04C5              add al,0xc5
0000B0C7  001400            add [eax+eax],dl
0000B0CA  0000              add [eax],al
0000B0CC  0000              add [eax],al
0000B0CE  0000              add [eax],al
0000B0D0  017A52            add [edx+0x52],edi
0000B0D3  0001              add [ecx],al
0000B0D5  7C08              jl 0xb0df
0000B0D7  011B              add [ebx],ebx
0000B0D9  0C04              or al,0x4
0000B0DB  0488              add al,0x88
0000B0DD  0100              add [eax],eax
0000B0DF  001C00            add [eax+eax],bl
0000B0E2  0000              add [eax],al
0000B0E4  1C00              sbb al,0x0
0000B0E6  0000              add [eax],al
0000B0E8  BC57FFFFC4        mov esp,0xc4ffff57
0000B0ED  0100              add [eax],eax
0000B0EF  0000              add [eax],al
0000B0F1  41                inc ecx
0000B0F2  0E                push cs
0000B0F3  088502420D05      or [ebp+0x50d4202],al
0000B0F9  03C0              add eax,eax
0000B0FB  01C5              add ebp,eax
0000B0FD  0C04              or al,0x4
0000B0FF  041C              add al,0x1c
0000B101  0000              add [eax],al
0000B103  003C00            add [eax+eax],bh
0000B106  0000              add [eax],al
0000B108  60                pushad
0000B109  59                pop ecx
0000B10A  FF                db 0xff
0000B10B  FF9100000000      call dword near [ecx+0x0]
0000B111  41                inc ecx
0000B112  0E                push cs
0000B113  088502420D05      or [ebp+0x50d4202],al
0000B119  028DC50C0404      add cl,[ebp+0x4040cc5]
0000B11F  001400            add [eax+eax],dl
0000B122  0000              add [eax],al
0000B124  0000              add [eax],al
0000B126  0000              add [eax],al
0000B128  017A52            add [edx+0x52],edi
0000B12B  0001              add [ecx],al
0000B12D  7C08              jl 0xb137
0000B12F  011B              add [ebx],ebx
0000B131  0C04              or al,0x4
0000B133  0488              add al,0x88
0000B135  0100              add [eax],eax
0000B137  001C00            add [eax+eax],bl
0000B13A  0000              add [eax],al
0000B13C  1C00              sbb al,0x0
0000B13E  0000              add [eax],al
0000B140  BC59FFFF38        mov esp,0x38ffff59
0000B145  0200              add al,[eax]
0000B147  0000              add [eax],al
0000B149  41                inc ecx
0000B14A  0E                push cs
0000B14B  088502420D05      or [ebp+0x50d4202],al
0000B151  033402            add esi,[edx+eax]
0000B154  C50C04            lds ecx,[esp+eax]
0000B157  041C              add al,0x1c
0000B159  0000              add [eax],al
0000B15B  003C00            add [eax+eax],bh
0000B15E  0000              add [eax],al
0000B160  D45B              aam 0x5b
0000B162  FF                db 0xff
0000B163  FF8100000000      inc dword [ecx+0x0]
0000B169  41                inc ecx
0000B16A  0E                push cs
0000B16B  088502420D05      or [ebp+0x50d4202],al
0000B171  027DC5            add bh,[ebp-0x3b]
0000B174  0C04              or al,0x4
0000B176  0400              add al,0x0
0000B178  1400              adc al,0x0
0000B17A  0000              add [eax],al
0000B17C  0000              add [eax],al
0000B17E  0000              add [eax],al
0000B180  017A52            add [edx+0x52],edi
0000B183  0001              add [ecx],al
0000B185  7C08              jl 0xb18f
0000B187  011B              add [ebx],ebx
0000B189  0C04              or al,0x4
0000B18B  0488              add al,0x88
0000B18D  0100              add [eax],eax
0000B18F  001C00            add [eax+eax],bl
0000B192  0000              add [eax],al
0000B194  1C00              sbb al,0x0
0000B196  0000              add [eax],al
0000B198  205CFFFF          and [edi+edi*8-0x1],bl
0000B19C  3200              xor al,[eax]
0000B19E  0000              add [eax],al
0000B1A0  00410E            add [ecx+0xe],al
0000B1A3  088502420D05      or [ebp+0x50d4202],al
0000B1A9  6E                outsb
0000B1AA  C50C04            lds ecx,[esp+eax]
0000B1AD  0400              add al,0x0
0000B1AF  001C00            add [eax+eax],bl
0000B1B2  0000              add [eax],al
0000B1B4  3C00              cmp al,0x0
0000B1B6  0000              add [eax],al
0000B1B8  325CFFFF          xor bl,[edi+edi*8-0x1]
0000B1BC  1B02              sbb eax,[edx]
0000B1BE  0000              add [eax],al
0000B1C0  00410E            add [ecx+0xe],al
0000B1C3  088502420D05      or [ebp+0x50d4202],al
0000B1C9  0317              add edx,[edi]
0000B1CB  02C5              add al,ch
0000B1CD  0C04              or al,0x4
0000B1CF  041C              add al,0x1c
0000B1D1  0000              add [eax],al
0000B1D3  005C0000          add [eax+eax+0x0],bl
0000B1D7  002D5EFFFF14      add [dword 0x14ffff5e],ch
0000B1DD  0000              add [eax],al
0000B1DF  0000              add [eax],al
0000B1E1  41                inc ecx
0000B1E2  0E                push cs
0000B1E3  088502420D05      or [ebp+0x50d4202],al
0000B1E9  50                push eax
0000B1EA  C50C04            lds ecx,[esp+eax]
0000B1ED  0400              add al,0x0
0000B1EF  001C00            add [eax+eax],bl
0000B1F2  0000              add [eax],al
0000B1F4  7C00              jl 0xb1f6
0000B1F6  0000              add [eax],al
0000B1F8  215EFF            and [esi-0x1],ebx
0000B1FB  FF1400            call dword near [eax+eax]
0000B1FE  0000              add [eax],al
0000B200  00410E            add [ecx+0xe],al
0000B203  088502420D05      or [ebp+0x50d4202],al
0000B209  50                push eax
0000B20A  C50C04            lds ecx,[esp+eax]
0000B20D  0400              add al,0x0
0000B20F  001C00            add [eax+eax],bl
0000B212  0000              add [eax],al
0000B214  9C                pushfd
0000B215  0000              add [eax],al
0000B217  00155EFFFF0D      add [dword 0xdffff5e],dl
0000B21D  0000              add [eax],al
0000B21F  0000              add [eax],al
0000B221  41                inc ecx
0000B222  0E                push cs
0000B223  088502420D05      or [ebp+0x50d4202],al
0000B229  49                dec ecx
0000B22A  C50C04            lds ecx,[esp+eax]
0000B22D  0400              add al,0x0
0000B22F  002400            add [eax+eax],ah
0000B232  0000              add [eax],al
0000B234  BC00000002        mov esp,0x2000000
0000B239  5E                pop esi
0000B23A  FF                db 0xff
0000B23B  FFA101000000      jmp dword near [ecx+0x1]
0000B241  41                inc ecx
0000B242  0E                push cs
0000B243  088502420D05      or [ebp+0x50d4202],al
0000B249  51                push ecx
0000B24A  830303            add dword [ebx],byte +0x3
0000B24D  8B01              mov eax,[ecx]
0000B24F  C3                ret
0000B250  41                inc ecx
0000B251  0C04              or al,0x4
0000B253  04C5              add al,0xc5
0000B255  0000              add [eax],al
0000B257  001C00            add [eax+eax],bl
0000B25A  0000              add [eax],al
0000B25C  E400              in al,0x0
0000B25E  0000              add [eax],al
0000B260  7B5F              jpo 0xb2c1
0000B262  FF                db 0xff
0000B263  FF1400            call dword near [eax+eax]
0000B266  0000              add [eax],al
0000B268  00410E            add [ecx+0xe],al
0000B26B  088502420D05      or [ebp+0x50d4202],al
0000B271  50                push eax
0000B272  C50C04            lds ecx,[esp+eax]
0000B275  0400              add al,0x0
0000B277  001C00            add [eax+eax],bl
0000B27A  0000              add [eax],al
0000B27C  0401              add al,0x1
0000B27E  0000              add [eax],al
0000B280  6F                outsd
0000B281  5F                pop edi
0000B282  FF                db 0xff
0000B283  FF1400            call dword near [eax+eax]
0000B286  0000              add [eax],al
0000B288  00410E            add [ecx+0xe],al
0000B28B  088502420D05      or [ebp+0x50d4202],al
0000B291  50                push eax
0000B292  C50C04            lds ecx,[esp+eax]
0000B295  0400              add al,0x0
0000B297  001C00            add [eax+eax],bl
0000B29A  0000              add [eax],al
0000B29C  2401              and al,0x1
0000B29E  0000              add [eax],al
0000B2A0  635FFF            arpl [edi-0x1],bx
0000B2A3  FF1400            call dword near [eax+eax]
0000B2A6  0000              add [eax],al
0000B2A8  00410E            add [ecx+0xe],al
0000B2AB  088502420D05      or [ebp+0x50d4202],al
0000B2B1  50                push eax
0000B2B2  C50C04            lds ecx,[esp+eax]
0000B2B5  0400              add al,0x0
0000B2B7  001400            add [eax+eax],dl
0000B2BA  0000              add [eax],al
0000B2BC  0000              add [eax],al
0000B2BE  0000              add [eax],al
0000B2C0  017A52            add [edx+0x52],edi
0000B2C3  0001              add [ecx],al
0000B2C5  7C08              jl 0xb2cf
0000B2C7  011B              add [ebx],ebx
0000B2C9  0C04              or al,0x4
0000B2CB  0488              add al,0x88
0000B2CD  0100              add [eax],eax
0000B2CF  001C00            add [eax+eax],bl
0000B2D2  0000              add [eax],al
0000B2D4  1C00              sbb al,0x0
0000B2D6  0000              add [eax],al
0000B2D8  3860FF            cmp [eax-0x1],ah
0000B2DB  FF3500000000      push dword [dword 0x0]
0000B2E1  41                inc ecx
0000B2E2  0E                push cs
0000B2E3  088502420D05      or [ebp+0x50d4202],al
0000B2E9  71C5              jno 0xb2b0
0000B2EB  0C04              or al,0x4
0000B2ED  0400              add al,0x0
0000B2EF  001C00            add [eax+eax],bl
0000B2F2  0000              add [eax],al
0000B2F4  3C00              cmp al,0x0
0000B2F6  0000              add [eax],al
0000B2F8  4D                dec ebp
0000B2F9  60                pushad
0000B2FA  FF                db 0xff
0000B2FB  FF6C0000          jmp dword far [eax+eax+0x0]
0000B2FF  0000              add [eax],al
0000B301  41                inc ecx
0000B302  0E                push cs
0000B303  088502420D05      or [ebp+0x50d4202],al
0000B309  0268C5            add ch,[eax-0x3b]
0000B30C  0C04              or al,0x4
0000B30E  0400              add al,0x0
0000B310  1C00              sbb al,0x0
0000B312  0000              add [eax],al
0000B314  5C                pop esp
0000B315  0000              add [eax],al
0000B317  009960FFFF34      add [ecx+0x34ffff60],bl
0000B31D  0000              add [eax],al
0000B31F  0000              add [eax],al
0000B321  41                inc ecx
0000B322  0E                push cs
0000B323  088502420D05      or [ebp+0x50d4202],al
0000B329  70C5              jo 0xb2f0
0000B32B  0C04              or al,0x4
0000B32D  0400              add al,0x0
0000B32F  001C00            add [eax+eax],bl
0000B332  0000              add [eax],al
0000B334  7C00              jl 0xb336
0000B336  0000              add [eax],al
0000B338  AD                lodsd
0000B339  60                pushad
0000B33A  FF                db 0xff
0000B33B  FF5D00            call dword far [ebp+0x0]
0000B33E  0000              add [eax],al
0000B340  00410E            add [ecx+0xe],al
0000B343  088502420D05      or [ebp+0x50d4202],al
0000B349  0259C5            add bl,[ecx-0x3b]
0000B34C  0C04              or al,0x4
0000B34E  0400              add al,0x0
0000B350  1C00              sbb al,0x0
0000B352  0000              add [eax],al
0000B354  9C                pushfd
0000B355  0000              add [eax],al
0000B357  00EA              add dl,ch
0000B359  60                pushad
0000B35A  FF                db 0xff
0000B35B  FF2B              jmp dword far [ebx]
0000B35D  0000              add [eax],al
0000B35F  0000              add [eax],al
0000B361  41                inc ecx
0000B362  0E                push cs
0000B363  088502420D05      or [ebp+0x50d4202],al
0000B369  67C50C            lds ecx,[si]
0000B36C  0404              add al,0x4
0000B36E  0000              add [eax],al
0000B370  1C00              sbb al,0x0
0000B372  0000              add [eax],al
0000B374  BC000000F5        mov esp,0xf5000000
0000B379  60                pushad
0000B37A  FF                db 0xff
0000B37B  FF8A00000000      dec dword [edx+0x0]
0000B381  41                inc ecx
0000B382  0E                push cs
0000B383  088502420D05      or [ebp+0x50d4202],al
0000B389  0286C50C0404      add al,[esi+0x4040cc5]
0000B38F  001C00            add [eax+eax],bl
0000B392  0000              add [eax],al
0000B394  DC00              fadd qword [eax]
0000B396  0000              add [eax],al
0000B398  5F                pop edi
0000B399  61                popad
0000B39A  FF                db 0xff
0000B39B  FF4900            dec dword [ecx+0x0]
0000B39E  0000              add [eax],al
0000B3A0  00410E            add [ecx+0xe],al
0000B3A3  088502420D05      or [ebp+0x50d4202],al
0000B3A9  0245C5            add al,[ebp-0x3b]
0000B3AC  0C04              or al,0x4
0000B3AE  0400              add al,0x0
0000B3B0  1C00              sbb al,0x0
0000B3B2  0000              add [eax],al
0000B3B4  FC                cld
0000B3B5  0000              add [eax],al
0000B3B7  008861FFFFD8      add [eax-0x2700009f],cl
0000B3BD  0100              add [eax],eax
0000B3BF  0000              add [eax],al
0000B3C1  41                inc ecx
0000B3C2  0E                push cs
0000B3C3  088502420D05      or [ebp+0x50d4202],al
0000B3C9  03D4              add edx,esp
0000B3CB  01C5              add ebp,eax
0000B3CD  0C04              or al,0x4
0000B3CF  041C              add al,0x1c
0000B3D1  0000              add [eax],al
0000B3D3  001C01            add [ecx+eax],bl
0000B3D6  0000              add [eax],al
0000B3D8  40                inc eax
0000B3D9  63FF              arpl di,di
0000B3DB  FF2400            jmp dword near [eax+eax]
0000B3DE  0000              add [eax],al
0000B3E0  00410E            add [ecx+0xe],al
0000B3E3  088502420D05      or [ebp+0x50d4202],al
0000B3E9  60                pushad
0000B3EA  C50C04            lds ecx,[esp+eax]
0000B3ED  0400              add al,0x0
0000B3EF  001400            add [eax+eax],dl
0000B3F2  0000              add [eax],al
0000B3F4  0000              add [eax],al
0000B3F6  0000              add [eax],al
0000B3F8  017A52            add [edx+0x52],edi
0000B3FB  0001              add [ecx],al
0000B3FD  7C08              jl 0xb407
0000B3FF  011B              add [ebx],ebx
0000B401  0C04              or al,0x4
0000B403  0488              add al,0x88
0000B405  0100              add [eax],eax
0000B407  001C00            add [eax+eax],bl
0000B40A  0000              add [eax],al
0000B40C  1C00              sbb al,0x0
0000B40E  0000              add [eax],al
0000B410  2C63              sub al,0x63
0000B412  FF                db 0xff
0000B413  FF8700000000      inc dword [edi+0x0]
0000B419  41                inc ecx
0000B41A  0E                push cs
0000B41B  088502420D05      or [ebp+0x50d4202],al
0000B421  02830C0404C5      add al,[ebx-0x3afbfbf4]
0000B427  001400            add [eax+eax],dl
0000B42A  0000              add [eax],al
0000B42C  0000              add [eax],al
0000B42E  0000              add [eax],al
0000B430  017A52            add [edx+0x52],edi
0000B433  0001              add [ecx],al
0000B435  7C08              jl 0xb43f
0000B437  011B              add [ebx],ebx
0000B439  0C04              or al,0x4
0000B43B  0488              add al,0x88
0000B43D  0100              add [eax],eax
0000B43F  001C00            add [eax+eax],bl
0000B442  0000              add [eax],al
0000B444  1C00              sbb al,0x0
0000B446  0000              add [eax],al
0000B448  7C63              jl 0xb4ad
0000B44A  FF                db 0xff
0000B44B  FF5100            call dword near [ecx+0x0]
0000B44E  0000              add [eax],al
0000B450  00410E            add [ecx+0xe],al
0000B453  088502420D05      or [ebp+0x50d4202],al
0000B459  024DC5            add cl,[ebp-0x3b]
0000B45C  0C04              or al,0x4
0000B45E  0400              add al,0x0
0000B460  1400              adc al,0x0
0000B462  0000              add [eax],al
0000B464  0000              add [eax],al
0000B466  0000              add [eax],al
0000B468  017A52            add [edx+0x52],edi
0000B46B  0001              add [ecx],al
0000B46D  7C08              jl 0xb477
0000B46F  011B              add [ebx],ebx
0000B471  0C04              or al,0x4
0000B473  0488              add al,0x88
0000B475  0100              add [eax],eax
0000B477  001C00            add [eax+eax],bl
0000B47A  0000              add [eax],al
0000B47C  1C00              sbb al,0x0
0000B47E  0000              add [eax],al
0000B480  98                cwde
0000B481  63FF              arpl di,di
0000B483  FF0F              dec dword [edi]
0000B485  0800              or [eax],al
0000B487  0000              add [eax],al
0000B489  41                inc ecx
0000B48A  0E                push cs
0000B48B  088502420D05      or [ebp+0x50d4202],al
0000B491  030B              add ecx,[ebx]
0000B493  08C5              or ch,al
0000B495  0C04              or al,0x4
0000B497  0414              add al,0x14
0000B499  0000              add [eax],al
0000B49B  0000              add [eax],al
0000B49D  0000              add [eax],al
0000B49F  0001              add [ecx],al
0000B4A1  7A52              jpe 0xb4f5
0000B4A3  0001              add [ecx],al
0000B4A5  7C08              jl 0xb4af
0000B4A7  011B              add [ebx],ebx
0000B4A9  0C04              or al,0x4
0000B4AB  0488              add al,0x88
0000B4AD  0100              add [eax],eax
0000B4AF  001C00            add [eax+eax],bl
0000B4B2  0000              add [eax],al
0000B4B4  1C00              sbb al,0x0
0000B4B6  0000              add [eax],al
0000B4B8  706B              jo 0xb525
0000B4BA  FF                db 0xff
0000B4BB  FF540300          call dword near [ebx+eax+0x0]
0000B4BF  0000              add [eax],al
0000B4C1  41                inc ecx
0000B4C2  0E                push cs
0000B4C3  088502420D05      or [ebp+0x50d4202],al
0000B4C9  035003            add edx,[eax+0x3]
0000B4CC  C50C04            lds ecx,[esp+eax]
0000B4CF  041C              add al,0x1c
0000B4D1  0000              add [eax],al
0000B4D3  003C00            add [eax+eax],bh
0000B4D6  0000              add [eax],al
0000B4D8  A4                movsb
0000B4D9  6E                outsb
0000B4DA  FF                db 0xff
0000B4DB  FF1D01000000      call dword far [dword 0x1]
0000B4E1  41                inc ecx
0000B4E2  0E                push cs
0000B4E3  088502420D05      or [ebp+0x50d4202],al
0000B4E9  0319              add ebx,[ecx]
0000B4EB  01C5              add ebp,eax
0000B4ED  0C04              or al,0x4
0000B4EF  0414              add al,0x14
0000B4F1  0000              add [eax],al
0000B4F3  0000              add [eax],al
0000B4F5  0000              add [eax],al
0000B4F7  0001              add [ecx],al
0000B4F9  7A52              jpe 0xb54d
0000B4FB  0001              add [ecx],al
0000B4FD  7C08              jl 0xb507
0000B4FF  011B              add [ebx],ebx
0000B501  0C04              or al,0x4
0000B503  0488              add al,0x88
0000B505  0100              add [eax],eax
0000B507  001C00            add [eax+eax],bl
0000B50A  0000              add [eax],al
0000B50C  1C00              sbb al,0x0
0000B50E  0000              add [eax],al
0000B510  8C6FFF            mov [edi-0x1],gs
0000B513  FF5200            call dword near [edx+0x0]
0000B516  0000              add [eax],al
0000B518  00410E            add [ecx+0xe],al
0000B51B  088502420D05      or [ebp+0x50d4202],al
0000B521  024EC5            add cl,[esi-0x3b]
0000B524  0C04              or al,0x4
0000B526  0400              add al,0x0
0000B528  1C00              sbb al,0x0
0000B52A  0000              add [eax],al
0000B52C  3C00              cmp al,0x0
0000B52E  0000              add [eax],al
0000B530  BE6FFFFF57        mov esi,0x57ffff6f
0000B535  0000              add [eax],al
0000B537  0000              add [eax],al
0000B539  41                inc ecx
0000B53A  0E                push cs
0000B53B  088502420D05      or [ebp+0x50d4202],al
0000B541  0253C5            add dl,[ebx-0x3b]
0000B544  0C04              or al,0x4
0000B546  0400              add al,0x0
0000B548  1C00              sbb al,0x0
0000B54A  0000              add [eax],al
0000B54C  5C                pop esp
0000B54D  0000              add [eax],al
0000B54F  00F5              add ch,dh
0000B551  6F                outsd
0000B552  FF                db 0xff
0000B553  FF                db 0xff
0000B554  7801              js 0xb557
0000B556  0000              add [eax],al
0000B558  00410E            add [ecx+0xe],al
0000B55B  088502420D05      or [ebp+0x50d4202],al
0000B561  037401C5          add esi,[ecx+eax-0x3b]
0000B565  0C04              or al,0x4
0000B567  041C              add al,0x1c
0000B569  0000              add [eax],al
0000B56B  007C0000          add [eax+eax+0x0],bh
0000B56F  004D71            add [ebp+0x71],cl
0000B572  FF                db 0xff
0000B573  FF29              jmp dword far [ecx]
0000B575  0000              add [eax],al
0000B577  0000              add [eax],al
0000B579  41                inc ecx
0000B57A  0E                push cs
0000B57B  088502420D05      or [ebp+0x50d4202],al
0000B581  65C50C04          lds ecx,[gs:esp+eax]
0000B585  0400              add al,0x0
0000B587  0020              add [eax],ah
0000B589  0000              add [eax],al
0000B58B  009C0000005671    add [eax+eax+0x71560000],bl
0000B592  FF                db 0xff
0000B593  FF8E00000000      dec dword [esi+0x0]
0000B599  41                inc ecx
0000B59A  0E                push cs
0000B59B  088502420D05      or [ebp+0x50d4202],al
0000B5A1  4A                dec edx
0000B5A2  830302            add dword [ebx],byte +0x2
0000B5A5  7FC3              jg 0xb56a
0000B5A7  41                inc ecx
0000B5A8  0C04              or al,0x4
0000B5AA  04C5              add al,0xc5
0000B5AC  1C00              sbb al,0x0
0000B5AE  0000              add [eax],al
0000B5B0  C00000            rol byte [eax],0x0
0000B5B3  00C0              add al,al
0000B5B5  71FF              jno 0xb5b6
0000B5B7  FF27              jmp dword near [edi]
0000B5B9  0000              add [eax],al
0000B5BB  0000              add [eax],al
0000B5BD  41                inc ecx
0000B5BE  0E                push cs
0000B5BF  088502420D05      or [ebp+0x50d4202],al
0000B5C5  63C5              arpl bp,ax
0000B5C7  0C04              or al,0x4
0000B5C9  0400              add al,0x0
0000B5CB  001C00            add [eax+eax],bl
0000B5CE  0000              add [eax],al
0000B5D0  E000              loopne 0xb5d2
0000B5D2  0000              add [eax],al
0000B5D4  C7                db 0xc7
0000B5D5  71FF              jno 0xb5d6
0000B5D7  FF5C0000          call dword far [eax+eax+0x0]
0000B5DB  0000              add [eax],al
0000B5DD  41                inc ecx
0000B5DE  0E                push cs
0000B5DF  088502420D05      or [ebp+0x50d4202],al
0000B5E5  0258C5            add bl,[eax-0x3b]
0000B5E8  0C04              or al,0x4
0000B5EA  0400              add al,0x0
0000B5EC  1C00              sbb al,0x0
0000B5EE  0000              add [eax],al
0000B5F0  0001              add [ecx],al
0000B5F2  0000              add [eax],al
0000B5F4  0372FF            add esi,[edx-0x1]
0000B5F7  FF28              jmp dword far [eax]
0000B5F9  0000              add [eax],al
0000B5FB  0000              add [eax],al
0000B5FD  41                inc ecx
0000B5FE  0E                push cs
0000B5FF  088502420D05      or [ebp+0x50d4202],al
0000B605  64C50C04          lds ecx,[fs:esp+eax]
0000B609  0400              add al,0x0
0000B60B  001400            add [eax+eax],dl
0000B60E  0000              add [eax],al
0000B610  0000              add [eax],al
0000B612  0000              add [eax],al
0000B614  017A52            add [edx+0x52],edi
0000B617  0001              add [ecx],al
0000B619  7C08              jl 0xb623
0000B61B  011B              add [ebx],ebx
0000B61D  0C04              or al,0x4
0000B61F  0488              add al,0x88
0000B621  0100              add [eax],eax
0000B623  0020              add [eax],ah
0000B625  0000              add [eax],al
0000B627  001C00            add [eax+eax],bl
0000B62A  0000              add [eax],al
0000B62C  F4                hlt
0000B62D  71FF              jno 0xb62e
0000B62F  FF5000            call dword near [eax+0x0]
0000B632  0000              add [eax],al
0000B634  00410E            add [ecx+0xe],al
0000B637  088502420D05      or [ebp+0x50d4202],al
0000B63D  59                pop ecx
0000B63E  830372            add dword [ebx],byte +0x72
0000B641  C3                ret
0000B642  41                inc ecx
0000B643  0C04              or al,0x4
0000B645  04C5              add al,0xc5
0000B647  002C00            add [eax+eax],ch
0000B64A  0000              add [eax],al
0000B64C  40                inc eax
0000B64D  0000              add [eax],al
0000B64F  0020              add [eax],ah
0000B651  72FF              jc 0xb652
0000B653  FF6204            jmp dword near [edx+0x4]
0000B656  0000              add [eax],al
0000B658  00410E            add [ecx+0xe],al
0000B65B  088502420D05      or [ebp+0x50d4202],al
0000B661  02448305          add al,[ebx+eax*4+0x5]
0000B665  860487            xchg al,[edi+eax*4]
0000B668  0303              add eax,[ebx]
0000B66A  17                pop ss
0000B66B  04C3              add al,0xc3
0000B66D  41                inc ecx
0000B66E  C641C741          mov byte [ecx-0x39],0x41
0000B672  0C04              or al,0x4
0000B674  04C5              add al,0xc5
0000B676  0000              add [eax],al
0000B678  1400              adc al,0x0
0000B67A  0000              add [eax],al
0000B67C  0000              add [eax],al
0000B67E  0000              add [eax],al
0000B680  017A52            add [edx+0x52],edi
0000B683  0001              add [ecx],al
0000B685  7C08              jl 0xb68f
0000B687  011B              add [ebx],ebx
0000B689  0C04              or al,0x4
0000B68B  0488              add al,0x88
0000B68D  0100              add [eax],eax
0000B68F  001C00            add [eax+eax],bl
0000B692  0000              add [eax],al
0000B694  1C00              sbb al,0x0
0000B696  0000              add [eax],al
0000B698  3C76              cmp al,0x76
0000B69A  FF                db 0xff
0000B69B  FF2C06            jmp dword far [esi+eax]
0000B69E  0000              add [eax],al
0000B6A0  00410E            add [ecx+0xe],al
0000B6A3  088502420D05      or [ebp+0x50d4202],al
0000B6A9  0328              add ebp,[eax]
0000B6AB  06                push es
0000B6AC  C50C04            lds ecx,[esp+eax]
0000B6AF  0414              add al,0x14
0000B6B1  0000              add [eax],al
0000B6B3  0000              add [eax],al
0000B6B5  0000              add [eax],al
0000B6B7  0001              add [ecx],al
0000B6B9  7A52              jpe 0xb70d
0000B6BB  0001              add [ecx],al
0000B6BD  7C08              jl 0xb6c7
0000B6BF  011B              add [ebx],ebx
0000B6C1  0C04              or al,0x4
0000B6C3  0488              add al,0x88
0000B6C5  0100              add [eax],eax
0000B6C7  001C00            add [eax+eax],bl
0000B6CA  0000              add [eax],al
0000B6CC  1C00              sbb al,0x0
0000B6CE  0000              add [eax],al
0000B6D0  307CFFFF          xor [edi+edi*8-0x1],bh
0000B6D4  C20000            ret 0x0
0000B6D7  0000              add [eax],al
0000B6D9  41                inc ecx
0000B6DA  0E                push cs
0000B6DB  088502420D05      or [ebp+0x50d4202],al
0000B6E1  02BEC50C0404      add bh,[esi+0x4040cc5]
0000B6E7  001400            add [eax+eax],dl
0000B6EA  0000              add [eax],al
0000B6EC  0000              add [eax],al
0000B6EE  0000              add [eax],al
0000B6F0  017A52            add [edx+0x52],edi
0000B6F3  0001              add [ecx],al
0000B6F5  7C08              jl 0xb6ff
0000B6F7  011B              add [ebx],ebx
0000B6F9  0C04              or al,0x4
0000B6FB  0488              add al,0x88
0000B6FD  0100              add [eax],eax
0000B6FF  001C00            add [eax+eax],bl
0000B702  0000              add [eax],al
0000B704  1C00              sbb al,0x0
0000B706  0000              add [eax],al
0000B708  BC7CFFFF66        mov esp,0x66ffff7c
0000B70D  0000              add [eax],al
0000B70F  0000              add [eax],al
0000B711  41                inc ecx
0000B712  0E                push cs
0000B713  088502420D05      or [ebp+0x50d4202],al
0000B719  0262C5            add ah,[edx-0x3b]
0000B71C  0C04              or al,0x4
0000B71E  0400              add al,0x0
0000B720  1400              adc al,0x0
0000B722  0000              add [eax],al
0000B724  0000              add [eax],al
0000B726  0000              add [eax],al
0000B728  017A52            add [edx+0x52],edi
0000B72B  0001              add [ecx],al
0000B72D  7C08              jl 0xb737
0000B72F  011B              add [ebx],ebx
0000B731  0C04              or al,0x4
0000B733  0488              add al,0x88
0000B735  0100              add [eax],eax
0000B737  001C00            add [eax+eax],bl
0000B73A  0000              add [eax],al
0000B73C  1C00              sbb al,0x0
0000B73E  0000              add [eax],al
0000B740  EC                in al,dx
0000B741  7CFF              jl 0xb742
0000B743  FF                db 0xff
0000B744  BC00000000        mov esp,0x0
0000B749  41                inc ecx
0000B74A  0E                push cs
0000B74B  088502420D05      or [ebp+0x50d4202],al
0000B751  02B8C50C0404      add bh,[eax+0x4040cc5]
0000B757  001400            add [eax+eax],dl
0000B75A  0000              add [eax],al
0000B75C  0000              add [eax],al
0000B75E  0000              add [eax],al
0000B760  017A52            add [edx+0x52],edi
0000B763  0001              add [ecx],al
0000B765  7C08              jl 0xb76f
0000B767  011B              add [ebx],ebx
0000B769  0C04              or al,0x4
0000B76B  0488              add al,0x88
0000B76D  0100              add [eax],eax
0000B76F  002400            add [eax+eax],ah
0000B772  0000              add [eax],al
0000B774  1C00              sbb al,0x0
0000B776  0000              add [eax],al
0000B778  707D              jo 0xb7f7
0000B77A  FF                db 0xff
0000B77B  FF6503            jmp dword near [ebp+0x3]
0000B77E  0000              add [eax],al
0000B780  00410E            add [ecx+0xe],al
0000B783  088502420D05      or [ebp+0x50d4202],al
0000B789  5D                pop ebp
0000B78A  830303            add dword [ebx],byte +0x3
0000B78D  43                inc ebx
0000B78E  03C3              add eax,ebx
0000B790  41                inc ecx
0000B791  0C04              or al,0x4
0000B793  04C5              add al,0xc5
0000B795  0000              add [eax],al
0000B797  001400            add [eax+eax],dl
0000B79A  0000              add [eax],al
0000B79C  0000              add [eax],al
0000B79E  0000              add [eax],al
0000B7A0  017A52            add [edx+0x52],edi
0000B7A3  0001              add [ecx],al
0000B7A5  7C08              jl 0xb7af
0000B7A7  011B              add [ebx],ebx
0000B7A9  0C04              or al,0x4
0000B7AB  0488              add al,0x88
0000B7AD  0100              add [eax],eax
0000B7AF  001C00            add [eax+eax],bl
0000B7B2  0000              add [eax],al
0000B7B4  1C00              sbb al,0x0
0000B7B6  0000              add [eax],al
0000B7B8  98                cwde
0000B7B9  80FFFF            cmp bh,0xff
0000B7BC  EA02000000410E    jmp dword 0xe41:0x2
0000B7C3  088502420D05      or [ebp+0x50d4202],al
0000B7C9  03E6              add esp,esi
0000B7CB  02C5              add al,ch
0000B7CD  0C04              or al,0x4
0000B7CF  0414              add al,0x14
0000B7D1  0000              add [eax],al
0000B7D3  0000              add [eax],al
0000B7D5  0000              add [eax],al
0000B7D7  0001              add [ecx],al
0000B7D9  7A52              jpe 0xb82d
0000B7DB  0001              add [ecx],al
0000B7DD  7C08              jl 0xb7e7
0000B7DF  011B              add [ebx],ebx
0000B7E1  0C04              or al,0x4
0000B7E3  0488              add al,0x88
0000B7E5  0100              add [eax],eax
0000B7E7  001C00            add [eax+eax],bl
0000B7EA  0000              add [eax],al
0000B7EC  1C00              sbb al,0x0
0000B7EE  0000              add [eax],al
0000B7F0  4C                dec esp
0000B7F1  83FFFF            cmp edi,byte -0x1
0000B7F4  800100            add byte [ecx],0x0
0000B7F7  0000              add [eax],al
0000B7F9  41                inc ecx
0000B7FA  0E                push cs
0000B7FB  088502420D05      or [ebp+0x50d4202],al
0000B801  037C01C5          add edi,[ecx+eax-0x3b]
0000B805  0C04              or al,0x4
0000B807  0414              add al,0x14
0000B809  0000              add [eax],al
0000B80B  0000              add [eax],al
0000B80D  0000              add [eax],al
0000B80F  0001              add [ecx],al
0000B811  7A52              jpe 0xb865
0000B813  0001              add [ecx],al
0000B815  7C08              jl 0xb81f
0000B817  011B              add [ebx],ebx
0000B819  0C04              or al,0x4
0000B81B  0488              add al,0x88
0000B81D  0100              add [eax],eax
0000B81F  001C00            add [eax+eax],bl
0000B822  0000              add [eax],al
0000B824  1C00              sbb al,0x0
0000B826  0000              add [eax],al
0000B828  94                xchg eax,esp
0000B829  84FF              test bh,bh
0000B82B  FF                db 0xff
0000B82C  E904000000        jmp dword 0xb835
0000B831  41                inc ecx
0000B832  0E                push cs
0000B833  088502420D05      or [ebp+0x50d4202],al
0000B839  03E5              add esp,ebp
0000B83B  04C5              add al,0xc5
0000B83D  0C04              or al,0x4
0000B83F  0414              add al,0x14
0000B841  0000              add [eax],al
0000B843  0000              add [eax],al
0000B845  0000              add [eax],al
0000B847  0001              add [ecx],al
0000B849  7A52              jpe 0xb89d
0000B84B  0001              add [ecx],al
0000B84D  7C08              jl 0xb857
0000B84F  011B              add [ebx],ebx
0000B851  0C04              or al,0x4
0000B853  0488              add al,0x88
0000B855  0100              add [eax],eax
0000B857  001C00            add [eax+eax],bl
0000B85A  0000              add [eax],al
0000B85C  1C00              sbb al,0x0
0000B85E  0000              add [eax],al
0000B860  48                dec eax
0000B861  89FF              mov edi,edi
0000B863  FFE7              jmp edi
0000B865  0100              add [eax],eax
0000B867  0000              add [eax],al
0000B869  41                inc ecx
0000B86A  0E                push cs
0000B86B  088502420D05      or [ebp+0x50d4202],al
0000B871  03E3              add esp,ebx
0000B873  01C5              add ebp,eax
0000B875  0C04              or al,0x4
0000B877  0414              add al,0x14
0000B879  0000              add [eax],al
0000B87B  0000              add [eax],al
0000B87D  0000              add [eax],al
0000B87F  0001              add [ecx],al
0000B881  7A52              jpe 0xb8d5
0000B883  0001              add [ecx],al
0000B885  7C08              jl 0xb88f
0000B887  011B              add [ebx],ebx
0000B889  0C04              or al,0x4
0000B88B  0488              add al,0x88
0000B88D  0100              add [eax],eax
0000B88F  001C00            add [eax+eax],bl
0000B892  0000              add [eax],al
0000B894  1C00              sbb al,0x0
0000B896  0000              add [eax],al
0000B898  F8                clc
0000B899  8AFF              mov bh,bh
0000B89B  FF8A00000000      dec dword [edx+0x0]
0000B8A1  41                inc ecx
0000B8A2  0E                push cs
0000B8A3  088502420D05      or [ebp+0x50d4202],al
0000B8A9  0286C50C0404      add al,[esi+0x4040cc5]
0000B8AF  001400            add [eax+eax],dl
0000B8B2  0000              add [eax],al
0000B8B4  0000              add [eax],al
0000B8B6  0000              add [eax],al
0000B8B8  017A52            add [edx+0x52],edi
0000B8BB  0001              add [ecx],al
0000B8BD  7C08              jl 0xb8c7
0000B8BF  011B              add [ebx],ebx
0000B8C1  0C04              or al,0x4
0000B8C3  0488              add al,0x88
0000B8C5  0100              add [eax],eax
0000B8C7  001C00            add [eax+eax],bl
0000B8CA  0000              add [eax],al
0000B8CC  1C00              sbb al,0x0
0000B8CE  0000              add [eax],al
0000B8D0  4C                dec esp
0000B8D1  8BFF              mov edi,edi
0000B8D3  FF5900            call dword far [ecx+0x0]
0000B8D6  0000              add [eax],al
0000B8D8  00410E            add [ecx+0xe],al
0000B8DB  088502420D05      or [ebp+0x50d4202],al
0000B8E1  0255C5            add dl,[ebp-0x3b]
0000B8E4  0C04              or al,0x4
0000B8E6  0400              add al,0x0
0000B8E8  1400              adc al,0x0
0000B8EA  0000              add [eax],al
0000B8EC  0000              add [eax],al
0000B8EE  0000              add [eax],al
0000B8F0  017A52            add [edx+0x52],edi
0000B8F3  0001              add [ecx],al
0000B8F5  7C08              jl 0xb8ff
0000B8F7  011B              add [ebx],ebx
0000B8F9  0C04              or al,0x4
0000B8FB  0488              add al,0x88
0000B8FD  0100              add [eax],eax
0000B8FF  0028              add [eax],ch
0000B901  0000              add [eax],al
0000B903  001C00            add [eax+eax],bl
0000B906  0000              add [eax],al
0000B908  708B              jo 0xb895
0000B90A  FF                db 0xff
0000B90B  FF2C01            jmp dword far [ecx+eax]
0000B90E  0000              add [eax],al
0000B910  00410E            add [ecx+0xe],al
0000B913  088502420D05      or [ebp+0x50d4202],al
0000B919  5A                pop edx
0000B91A  83048603          add dword [esi+eax*4],byte +0x3
0000B91E  030C01            add ecx,[ecx+eax]
0000B921  C3                ret
0000B922  41                inc ecx
0000B923  C6410C04          mov byte [ecx+0xc],0x4
0000B927  04C5              add al,0xc5
0000B929  0000              add [eax],al
0000B92B  001400            add [eax+eax],dl
0000B92E  0000              add [eax],al
0000B930  0000              add [eax],al
0000B932  0000              add [eax],al
0000B934  017A52            add [edx+0x52],edi
0000B937  0001              add [ecx],al
0000B939  7C08              jl 0xb943
0000B93B  011B              add [ebx],ebx
0000B93D  0C04              or al,0x4
0000B93F  0488              add al,0x88
0000B941  0100              add [eax],eax
0000B943  0028              add [eax],ch
0000B945  0000              add [eax],al
0000B947  001C00            add [eax+eax],bl
0000B94A  0000              add [eax],al
0000B94C  58                pop eax
0000B94D  8CFF              mov edi,segr7
0000B94F  FF6801            jmp dword far [eax+0x1]
0000B952  0000              add [eax],al
0000B954  00410E            add [ecx+0xe],al
0000B957  088502420D05      or [ebp+0x50d4202],al
0000B95D  61                popad
0000B95E  83048603          add dword [esi+eax*4],byte +0x3
0000B962  034101            add eax,[ecx+0x1]
0000B965  C3                ret
0000B966  41                inc ecx
0000B967  C6410C04          mov byte [ecx+0xc],0x4
0000B96B  04C5              add al,0xc5
0000B96D  0000              add [eax],al
0000B96F  001400            add [eax+eax],dl
0000B972  0000              add [eax],al
0000B974  0000              add [eax],al
0000B976  0000              add [eax],al
0000B978  017A52            add [edx+0x52],edi
0000B97B  0001              add [ecx],al
0000B97D  7C08              jl 0xb987
0000B97F  011B              add [ebx],ebx
0000B981  0C04              or al,0x4
0000B983  0488              add al,0x88
0000B985  0100              add [eax],eax
0000B987  001C00            add [eax+eax],bl
0000B98A  0000              add [eax],al
0000B98C  1C00              sbb al,0x0
0000B98E  0000              add [eax],al
0000B990  7C8D              jl 0xb91f
0000B992  FF                db 0xff
0000B993  FF5201            call dword near [edx+0x1]
0000B996  0000              add [eax],al
0000B998  00410E            add [ecx+0xe],al
0000B99B  088502420D05      or [ebp+0x50d4202],al
0000B9A1  034E01            add ecx,[esi+0x1]
0000B9A4  C50C04            lds ecx,[esp+eax]
0000B9A7  0414              add al,0x14
0000B9A9  0000              add [eax],al
0000B9AB  0000              add [eax],al
0000B9AD  0000              add [eax],al
0000B9AF  0001              add [ecx],al
0000B9B1  7A52              jpe 0xba05
0000B9B3  0001              add [ecx],al
0000B9B5  7C08              jl 0xb9bf
0000B9B7  011B              add [ebx],ebx
0000B9B9  0C04              or al,0x4
0000B9BB  0488              add al,0x88
0000B9BD  0100              add [eax],eax
0000B9BF  001C00            add [eax+eax],bl
0000B9C2  0000              add [eax],al
0000B9C4  1C00              sbb al,0x0
0000B9C6  0000              add [eax],al
0000B9C8  98                cwde
0000B9C9  8EFF              mov segr7,di
0000B9CB  FF                db 0xff
0000B9CC  FA                cli
0000B9CD  0000              add [eax],al
0000B9CF  0000              add [eax],al
0000B9D1  41                inc ecx
0000B9D2  0E                push cs
0000B9D3  088502420D05      or [ebp+0x50d4202],al
0000B9D9  02F6              add dh,dh
0000B9DB  C50C04            lds ecx,[esp+eax]
0000B9DE  0400              add al,0x0
0000B9E0  1400              adc al,0x0
0000B9E2  0000              add [eax],al
0000B9E4  0000              add [eax],al
0000B9E6  0000              add [eax],al
0000B9E8  017A52            add [edx+0x52],edi
0000B9EB  0001              add [ecx],al
0000B9ED  7C08              jl 0xb9f7
0000B9EF  011B              add [ebx],ebx
0000B9F1  0C04              or al,0x4
0000B9F3  0488              add al,0x88
0000B9F5  0100              add [eax],eax
0000B9F7  001C00            add [eax+eax],bl
0000B9FA  0000              add [eax],al
0000B9FC  1C00              sbb al,0x0
0000B9FE  0000              add [eax],al
0000BA00  5C                pop esp
0000BA01  8F                db 0x8f
0000BA02  FF                db 0xff
0000BA03  FF                db 0xff
0000BA04  7E00              jng 0xba06
0000BA06  0000              add [eax],al
0000BA08  00410E            add [ecx+0xe],al
0000BA0B  088502420D05      or [ebp+0x50d4202],al
0000BA11  027AC5            add bh,[edx-0x3b]
0000BA14  0C04              or al,0x4
0000BA16  0400              add al,0x0
0000BA18  1400              adc al,0x0
0000BA1A  0000              add [eax],al
0000BA1C  0000              add [eax],al
0000BA1E  0000              add [eax],al
0000BA20  017A52            add [edx+0x52],edi
0000BA23  0001              add [ecx],al
0000BA25  7C08              jl 0xba2f
0000BA27  011B              add [ebx],ebx
0000BA29  0C04              or al,0x4
0000BA2B  0488              add al,0x88
0000BA2D  0100              add [eax],eax
0000BA2F  001C00            add [eax+eax],bl
0000BA32  0000              add [eax],al
0000BA34  1C00              sbb al,0x0
0000BA36  0000              add [eax],al
0000BA38  A4                movsb
0000BA39  8F                db 0x8f
0000BA3A  FF                db 0xff
0000BA3B  FFA802000000      jmp dword far [eax+0x2]
0000BA41  41                inc ecx
0000BA42  0E                push cs
0000BA43  088502420D05      or [ebp+0x50d4202],al
0000BA49  03A402C50C0404    add esp,[edx+eax+0x4040cc5]
0000BA50  1400              adc al,0x0
0000BA52  0000              add [eax],al
0000BA54  0000              add [eax],al
0000BA56  0000              add [eax],al
0000BA58  017A52            add [edx+0x52],edi
0000BA5B  0001              add [ecx],al
0000BA5D  7C08              jl 0xba67
0000BA5F  011B              add [ebx],ebx
0000BA61  0C04              or al,0x4
0000BA63  0488              add al,0x88
0000BA65  0100              add [eax],eax
0000BA67  001C00            add [eax+eax],bl
0000BA6A  0000              add [eax],al
0000BA6C  1C00              sbb al,0x0
0000BA6E  0000              add [eax],al
0000BA70  1492              adc al,0x92
0000BA72  FF                db 0xff
0000BA73  FF8C0100000041    dec dword [ecx+eax+0x41000000]
0000BA7A  0E                push cs
0000BA7B  088502420D05      or [ebp+0x50d4202],al
0000BA81  038801C50C04      add ecx,[eax+0x40cc501]
0000BA87  0414              add al,0x14
0000BA89  0000              add [eax],al
0000BA8B  0000              add [eax],al
0000BA8D  0000              add [eax],al
0000BA8F  0001              add [ecx],al
0000BA91  7A52              jpe 0xbae5
0000BA93  0001              add [ecx],al
0000BA95  7C08              jl 0xba9f
0000BA97  011B              add [ebx],ebx
0000BA99  0C04              or al,0x4
0000BA9B  0488              add al,0x88
0000BA9D  0100              add [eax],eax
0000BA9F  001C00            add [eax+eax],bl
0000BAA2  0000              add [eax],al
0000BAA4  1C00              sbb al,0x0
0000BAA6  0000              add [eax],al
0000BAA8  6893FFFFA4        push dword 0xa4ffff93
0000BAAD  0000              add [eax],al
0000BAAF  0000              add [eax],al
0000BAB1  41                inc ecx
0000BAB2  0E                push cs
0000BAB3  088502420D05      or [ebp+0x50d4202],al
0000BAB9  02A0C50C0404      add ah,[eax+0x4040cc5]
0000BABF  001400            add [eax+eax],dl
0000BAC2  0000              add [eax],al
0000BAC4  0000              add [eax],al
0000BAC6  0000              add [eax],al
0000BAC8  017A52            add [edx+0x52],edi
0000BACB  0001              add [ecx],al
0000BACD  7C08              jl 0xbad7
0000BACF  011B              add [ebx],ebx
0000BAD1  0C04              or al,0x4
0000BAD3  0488              add al,0x88
0000BAD5  0100              add [eax],eax
0000BAD7  0020              add [eax],ah
0000BAD9  0000              add [eax],al
0000BADB  001C00            add [eax+eax],bl
0000BADE  0000              add [eax],al
0000BAE0  D493              aam 0x93
0000BAE2  FF                db 0xff
0000BAE3  FFB300000000      push dword [ebx+0x0]
0000BAE9  41                inc ecx
0000BAEA  0E                push cs
0000BAEB  088502420D05      or [ebp+0x50d4202],al
0000BAF1  47                inc edi
0000BAF2  830302            add dword [ebx],byte +0x2
0000BAF5  A7                cmpsd
0000BAF6  C3                ret
0000BAF7  41                inc ecx
0000BAF8  0C04              or al,0x4
0000BAFA  04C5              add al,0xc5
0000BAFC  1400              adc al,0x0
0000BAFE  0000              add [eax],al
0000BB00  0000              add [eax],al
0000BB02  0000              add [eax],al
0000BB04  017A52            add [edx+0x52],edi
0000BB07  0001              add [ecx],al
0000BB09  7C08              jl 0xbb13
0000BB0B  011B              add [ebx],ebx
0000BB0D  0C04              or al,0x4
0000BB0F  0488              add al,0x88
0000BB11  0100              add [eax],eax
0000BB13  001C00            add [eax+eax],bl
0000BB16  0000              add [eax],al
0000BB18  1C00              sbb al,0x0
0000BB1A  0000              add [eax],al
0000BB1C  4C                dec esp
0000BB1D  94                xchg eax,esp
0000BB1E  FF                db 0xff
0000BB1F  FF                db 0xff
0000BB20  DA00              fiadd dword [eax]
0000BB22  0000              add [eax],al
0000BB24  00410E            add [ecx+0xe],al
0000BB27  088502420D05      or [ebp+0x50d4202],al
0000BB2D  02D6              add dl,dh
0000BB2F  0C04              or al,0x4
0000BB31  04C5              add al,0xc5
0000BB33  001400            add [eax+eax],dl
0000BB36  0000              add [eax],al
0000BB38  0000              add [eax],al
0000BB3A  0000              add [eax],al
0000BB3C  017A52            add [edx+0x52],edi
0000BB3F  0001              add [ecx],al
0000BB41  7C08              jl 0xbb4b
0000BB43  011B              add [ebx],ebx
0000BB45  0C04              or al,0x4
0000BB47  0488              add al,0x88
0000BB49  0100              add [eax],eax
0000BB4B  001C00            add [eax+eax],bl
0000BB4E  0000              add [eax],al
0000BB50  1C00              sbb al,0x0
0000BB52  0000              add [eax],al
0000BB54  F094              lock xchg eax,esp
0000BB56  FF                db 0xff
0000BB57  FF0A              dec dword [edx]
0000BB59  0000              add [eax],al
0000BB5B  0000              add [eax],al
0000BB5D  41                inc ecx
0000BB5E  0E                push cs
0000BB5F  088502420D05      or [ebp+0x50d4202],al
0000BB65  46                inc esi
0000BB66  0C04              or al,0x4
0000BB68  04C5              add al,0xc5
0000BB6A  0000              add [eax],al
0000BB6C  1400              adc al,0x0
0000BB6E  0000              add [eax],al
0000BB70  0000              add [eax],al
0000BB72  0000              add [eax],al
0000BB74  017A52            add [edx+0x52],edi
0000BB77  0001              add [ecx],al
0000BB79  7C08              jl 0xbb83
0000BB7B  011B              add [ebx],ebx
0000BB7D  0C04              or al,0x4
0000BB7F  0488              add al,0x88
0000BB81  0100              add [eax],eax
0000BB83  001C00            add [eax+eax],bl
0000BB86  0000              add [eax],al
0000BB88  1C00              sbb al,0x0
0000BB8A  0000              add [eax],al
0000BB8C  C494FFFF510200    les edx,[edi+edi*8+0x251ff]
0000BB93  0000              add [eax],al
0000BB95  41                inc ecx
0000BB96  0E                push cs
0000BB97  088502420D05      or [ebp+0x50d4202],al
0000BB9D  034D02            add ecx,[ebp+0x2]
0000BBA0  C50C04            lds ecx,[esp+eax]
0000BBA3  0414              add al,0x14
0000BBA5  0000              add [eax],al
0000BBA7  0000              add [eax],al
0000BBA9  0000              add [eax],al
0000BBAB  0001              add [ecx],al
0000BBAD  7A52              jpe 0xbc01
0000BBAF  0001              add [ecx],al
0000BBB1  7C08              jl 0xbbbb
0000BBB3  011B              add [ebx],ebx
0000BBB5  0C04              or al,0x4
0000BBB7  0488              add al,0x88
0000BBB9  0100              add [eax],eax
0000BBBB  001C00            add [eax+eax],bl
0000BBBE  0000              add [eax],al
0000BBC0  1C00              sbb al,0x0
0000BBC2  0000              add [eax],al
0000BBC4  E096              loopne 0xbb5c
0000BBC6  FF                db 0xff
0000BBC7  FF8500000000      inc dword [ebp+0x0]
0000BBCD  41                inc ecx
0000BBCE  0E                push cs
0000BBCF  088502420D05      or [ebp+0x50d4202],al
0000BBD5  0281C50C0404      add al,[ecx+0x4040cc5]
0000BBDB  001400            add [eax+eax],dl
0000BBDE  0000              add [eax],al
0000BBE0  0000              add [eax],al
0000BBE2  0000              add [eax],al
0000BBE4  017A52            add [edx+0x52],edi
0000BBE7  0001              add [ecx],al
0000BBE9  7C08              jl 0xbbf3
0000BBEB  011B              add [ebx],ebx
0000BBED  0C04              or al,0x4
0000BBEF  0488              add al,0x88
0000BBF1  0100              add [eax],eax
0000BBF3  001C00            add [eax+eax],bl
0000BBF6  0000              add [eax],al
0000BBF8  1C00              sbb al,0x0
0000BBFA  0000              add [eax],al
0000BBFC  3097FFFFB700      xor [edi+0xb7ffff],dl
0000BC02  0000              add [eax],al
0000BC04  00410E            add [ecx+0xe],al
0000BC07  088502420D05      or [ebp+0x50d4202],al
0000BC0D  02B3C50C0404      add dh,[ebx+0x4040cc5]
0000BC13  001400            add [eax+eax],dl
0000BC16  0000              add [eax],al
0000BC18  0000              add [eax],al
0000BC1A  0000              add [eax],al
0000BC1C  017A52            add [edx+0x52],edi
0000BC1F  0001              add [ecx],al
0000BC21  7C08              jl 0xbc2b
0000BC23  011B              add [ebx],ebx
0000BC25  0C04              or al,0x4
0000BC27  0488              add al,0x88
0000BC29  0100              add [eax],eax
0000BC2B  001C00            add [eax+eax],bl
0000BC2E  0000              add [eax],al
0000BC30  1C00              sbb al,0x0
0000BC32  0000              add [eax],al
0000BC34  B097              mov al,0x97
0000BC36  FF                db 0xff
0000BC37  FF8200000000      inc dword [edx+0x0]
0000BC3D  41                inc ecx
0000BC3E  0E                push cs
0000BC3F  088502420D05      or [ebp+0x50d4202],al
0000BC45  027EC5            add bh,[esi-0x3b]
0000BC48  0C04              or al,0x4
0000BC4A  0400              add al,0x0
0000BC4C  1400              adc al,0x0
0000BC4E  0000              add [eax],al
0000BC50  0000              add [eax],al
0000BC52  0000              add [eax],al
0000BC54  017A52            add [edx+0x52],edi
0000BC57  0001              add [ecx],al
0000BC59  7C08              jl 0xbc63
0000BC5B  011B              add [ebx],ebx
0000BC5D  0C04              or al,0x4
0000BC5F  0488              add al,0x88
0000BC61  0100              add [eax],eax
0000BC63  001C00            add [eax+eax],bl
0000BC66  0000              add [eax],al
0000BC68  1C00              sbb al,0x0
0000BC6A  0000              add [eax],al
0000BC6C  FC                cld
0000BC6D  97                xchg eax,edi
0000BC6E  FF                db 0xff
0000BC6F  FFD7              call edi
0000BC71  0000              add [eax],al
0000BC73  0000              add [eax],al
0000BC75  41                inc ecx
0000BC76  0E                push cs
0000BC77  088502420D05      or [ebp+0x50d4202],al
0000BC7D  02D3              add dl,bl
0000BC7F  C50C04            lds ecx,[esp+eax]
0000BC82  0400              add al,0x0
0000BC84  1400              adc al,0x0
0000BC86  0000              add [eax],al
0000BC88  0000              add [eax],al
0000BC8A  0000              add [eax],al
0000BC8C  017A52            add [edx+0x52],edi
0000BC8F  0001              add [ecx],al
0000BC91  7C08              jl 0xbc9b
0000BC93  011B              add [ebx],ebx
0000BC95  0C04              or al,0x4
0000BC97  0488              add al,0x88
0000BC99  0100              add [eax],eax
0000BC9B  001C00            add [eax+eax],bl
0000BC9E  0000              add [eax],al
0000BCA0  1C00              sbb al,0x0
0000BCA2  0000              add [eax],al
0000BCA4  9C                pushfd
0000BCA5  98                cwde
0000BCA6  FF                db 0xff
0000BCA7  FF6900            jmp dword far [ecx+0x0]
0000BCAA  0000              add [eax],al
0000BCAC  00410E            add [ecx+0xe],al
0000BCAF  088502420D05      or [ebp+0x50d4202],al
0000BCB5  0265C5            add ah,[ebp-0x3b]
0000BCB8  0C04              or al,0x4
0000BCBA  0400              add al,0x0
0000BCBC  1400              adc al,0x0
0000BCBE  0000              add [eax],al
0000BCC0  0000              add [eax],al
0000BCC2  0000              add [eax],al
0000BCC4  017A52            add [edx+0x52],edi
0000BCC7  0001              add [ecx],al
0000BCC9  7C08              jl 0xbcd3
0000BCCB  011B              add [ebx],ebx
0000BCCD  0C04              or al,0x4
0000BCCF  0488              add al,0x88
0000BCD1  0100              add [eax],eax
0000BCD3  001C00            add [eax+eax],bl
0000BCD6  0000              add [eax],al
0000BCD8  1C00              sbb al,0x0
0000BCDA  0000              add [eax],al
0000BCDC  D098FFFF7600      rcr byte [eax+0x76ffff],1
0000BCE2  0000              add [eax],al
0000BCE4  00410E            add [ecx+0xe],al
0000BCE7  088502420D05      or [ebp+0x50d4202],al
0000BCED  0272C5            add dh,[edx-0x3b]
0000BCF0  0C04              or al,0x4
0000BCF2  0400              add al,0x0
0000BCF4  1400              adc al,0x0
0000BCF6  0000              add [eax],al
0000BCF8  0000              add [eax],al
0000BCFA  0000              add [eax],al
0000BCFC  017A52            add [edx+0x52],edi
0000BCFF  0001              add [ecx],al
0000BD01  7C08              jl 0xbd0b
0000BD03  011B              add [ebx],ebx
0000BD05  0C04              or al,0x4
0000BD07  0488              add al,0x88
0000BD09  0100              add [eax],eax
0000BD0B  001C00            add [eax+eax],bl
0000BD0E  0000              add [eax],al
0000BD10  1C00              sbb al,0x0
0000BD12  0000              add [eax],al
0000BD14  1099FFFF6800      adc [ecx+0x68ffff],bl
0000BD1A  0000              add [eax],al
0000BD1C  00410E            add [ecx+0xe],al
0000BD1F  088502420D05      or [ebp+0x50d4202],al
0000BD25  0264C50C          add ah,[ebp+eax*8+0xc]
0000BD29  0404              add al,0x4
0000BD2B  001400            add [eax+eax],dl
0000BD2E  0000              add [eax],al
0000BD30  0000              add [eax],al
0000BD32  0000              add [eax],al
0000BD34  017A52            add [edx+0x52],edi
0000BD37  0001              add [ecx],al
0000BD39  7C08              jl 0xbd43
0000BD3B  011B              add [ebx],ebx
0000BD3D  0C04              or al,0x4
0000BD3F  0488              add al,0x88
0000BD41  0100              add [eax],eax
0000BD43  001C00            add [eax+eax],bl
0000BD46  0000              add [eax],al
0000BD48  1C00              sbb al,0x0
0000BD4A  0000              add [eax],al
0000BD4C  40                inc eax
0000BD4D  99                cdq
0000BD4E  FF                db 0xff
0000BD4F  FFA000000000      jmp dword near [eax+0x0]
0000BD55  41                inc ecx
0000BD56  0E                push cs
0000BD57  088502420D05      or [ebp+0x50d4202],al
0000BD5D  029CC50C040400    add bl,[ebp+eax*8+0x4040c]
0000BD64  1400              adc al,0x0
0000BD66  0000              add [eax],al
0000BD68  0000              add [eax],al
0000BD6A  0000              add [eax],al
0000BD6C  017A52            add [edx+0x52],edi
0000BD6F  0001              add [ecx],al
0000BD71  7C08              jl 0xbd7b
0000BD73  011B              add [ebx],ebx
0000BD75  0C04              or al,0x4
0000BD77  0488              add al,0x88
0000BD79  0100              add [eax],eax
0000BD7B  001C00            add [eax+eax],bl
0000BD7E  0000              add [eax],al
0000BD80  1C00              sbb al,0x0
0000BD82  0000              add [eax],al
0000BD84  A899              test al,0x99
0000BD86  FF                db 0xff
0000BD87  FF0502000000      inc dword [dword 0x2]
0000BD8D  41                inc ecx
0000BD8E  0E                push cs
0000BD8F  088502420D05      or [ebp+0x50d4202],al
0000BD95  0301              add eax,[ecx]
0000BD97  02C5              add al,ch
0000BD99  0C04              or al,0x4
0000BD9B  0414              add al,0x14
0000BD9D  0000              add [eax],al
0000BD9F  0000              add [eax],al
0000BDA1  0000              add [eax],al
0000BDA3  0001              add [ecx],al
0000BDA5  7A52              jpe 0xbdf9
0000BDA7  0001              add [ecx],al
0000BDA9  7C08              jl 0xbdb3
0000BDAB  011B              add [ebx],ebx
0000BDAD  0C04              or al,0x4
0000BDAF  0488              add al,0x88
0000BDB1  0100              add [eax],eax
0000BDB3  001C00            add [eax+eax],bl
0000BDB6  0000              add [eax],al
0000BDB8  1C00              sbb al,0x0
0000BDBA  0000              add [eax],al
0000BDBC  789B              js 0xbd59
0000BDBE  FF                db 0xff
0000BDBF  FF06              inc dword [esi]
0000BDC1  0200              add al,[eax]
0000BDC3  0000              add [eax],al
0000BDC5  41                inc ecx
0000BDC6  0E                push cs
0000BDC7  088502420D05      or [ebp+0x50d4202],al
0000BDCD  0302              add eax,[edx]
0000BDCF  02C5              add al,ch
0000BDD1  0C04              or al,0x4
0000BDD3  0420              add al,0x20
0000BDD5  0000              add [eax],al
0000BDD7  003C00            add [eax+eax],bh
0000BDDA  0000              add [eax],al
0000BDDC  5E                pop esi
0000BDDD  9D                popfd
0000BDDE  FF                db 0xff
0000BDDF  FF8C0000000041    dec dword [eax+eax+0x41000000]
0000BDE6  0E                push cs
0000BDE7  088502420D05      or [ebp+0x50d4202],al
0000BDED  4D                dec ebp
0000BDEE  830302            add dword [ebx],byte +0x2
0000BDF1  7AC3              jpe 0xbdb6
0000BDF3  41                inc ecx
0000BDF4  0C04              or al,0x4
0000BDF6  04C5              add al,0xc5
0000BDF8  2800              sub [eax],al
0000BDFA  0000              add [eax],al
0000BDFC  60                pushad
0000BDFD  0000              add [eax],al
0000BDFF  00C6              add dh,al
0000BE01  9D                popfd
0000BE02  FF                db 0xff
0000BE03  FF3500000000      push dword [dword 0x0]
0000BE09  41                inc ecx
0000BE0A  0E                push cs
0000BE0B  088502420D05      or [ebp+0x50d4202],al
0000BE11  56                push esi
0000BE12  83058604870358    add dword [dword 0x3870486],byte +0x58
0000BE19  C3                ret
0000BE1A  41                inc ecx
0000BE1B  C641C741          mov byte [ecx-0x39],0x41
0000BE1F  0C04              or al,0x4
0000BE21  04C5              add al,0xc5
0000BE23  002400            add [eax+eax],ah
0000BE26  0000              add [eax],al
0000BE28  8C00              mov [eax],es
0000BE2A  0000              add [eax],al
0000BE2C  CF                iretd
0000BE2D  9D                popfd
0000BE2E  FF                db 0xff
0000BE2F  FF31              push dword [ecx]
0000BE31  0000              add [eax],al
0000BE33  0000              add [eax],al
0000BE35  41                inc ecx
0000BE36  0E                push cs
0000BE37  088502420D05      or [ebp+0x50d4202],al
0000BE3D  5E                pop esi
0000BE3E  83048603          add dword [esi+eax*4],byte +0x3
0000BE42  4D                dec ebp
0000BE43  C3                ret
0000BE44  41                inc ecx
0000BE45  C6410C04          mov byte [ecx+0xc],0x4
0000BE49  04C5              add al,0xc5
0000BE4B  001C00            add [eax+eax],bl
0000BE4E  0000              add [eax],al
0000BE50  B400              mov ah,0x0
0000BE52  0000              add [eax],al
0000BE54  D89DFFFF3500      fcomp dword [ebp+0x35ffff]
0000BE5A  0000              add [eax],al
0000BE5C  00410E            add [ecx+0xe],al
0000BE5F  088502420D05      or [ebp+0x50d4202],al
0000BE65  71C5              jno 0xbe2c
0000BE67  0C04              or al,0x4
0000BE69  0400              add al,0x0
0000BE6B  001C00            add [eax+eax],bl
0000BE6E  0000              add [eax],al
0000BE70  D400              aam 0x0
0000BE72  0000              add [eax],al
0000BE74  ED                in eax,dx
0000BE75  9D                popfd
0000BE76  FF                db 0xff
0000BE77  FF28              jmp dword far [eax]
0000BE79  0000              add [eax],al
0000BE7B  0000              add [eax],al
0000BE7D  41                inc ecx
0000BE7E  0E                push cs
0000BE7F  088502420D05      or [ebp+0x50d4202],al
0000BE85  64C50C04          lds ecx,[fs:esp+eax]
0000BE89  0400              add al,0x0
0000BE8B  001C00            add [eax+eax],bl
0000BE8E  0000              add [eax],al
0000BE90  F4                hlt
0000BE91  0000              add [eax],al
0000BE93  00F5              add ch,dh
0000BE95  9D                popfd
0000BE96  FF                db 0xff
0000BE97  FF                db 0xff
0000BE98  BC00000000        mov esp,0x0
0000BE9D  41                inc ecx
0000BE9E  0E                push cs
0000BE9F  088502420D05      or [ebp+0x50d4202],al
0000BEA5  02B6C50C0404      add dh,[esi+0x4040cc5]
0000BEAB  001C00            add [eax+eax],bl
0000BEAE  0000              add [eax],al
0000BEB0  1401              adc al,0x1
0000BEB2  0000              add [eax],al
0000BEB4  91                xchg eax,ecx
0000BEB5  9E                sahf
0000BEB6  FF                db 0xff
0000BEB7  FF4300            inc dword [ebx+0x0]
0000BEBA  0000              add [eax],al
0000BEBC  00410E            add [ecx+0xe],al
0000BEBF  088502420D05      or [ebp+0x50d4202],al
0000BEC5  7FC5              jg 0xbe8c
0000BEC7  0C04              or al,0x4
0000BEC9  0400              add al,0x0
0000BECB  001C00            add [eax+eax],bl
0000BECE  0000              add [eax],al
0000BED0  3401              xor al,0x1
0000BED2  0000              add [eax],al
0000BED4  B49E              mov ah,0x9e
0000BED6  FF                db 0xff
0000BED7  FF                db 0xff
0000BED8  B901000000        mov ecx,0x1
0000BEDD  41                inc ecx
0000BEDE  0E                push cs
0000BEDF  088502420D05      or [ebp+0x50d4202],al
0000BEE5  03B501C50C04      add esi,[ebp+0x40cc501]
0000BEEB  041C              add al,0x1c
0000BEED  0000              add [eax],al
0000BEEF  00540100          add [ecx+eax+0x0],dl
0000BEF3  004DA0            add [ebp-0x60],cl
0000BEF6  FF                db 0xff
0000BEF7  FF9501000000      call dword near [ebp+0x1]
0000BEFD  41                inc ecx
0000BEFE  0E                push cs
0000BEFF  088502420D05      or [ebp+0x50d4202],al
0000BF05  039101C50C04      add edx,[ecx+0x40cc501]
0000BF0B  041C              add al,0x1c
0000BF0D  0000              add [eax],al
0000BF0F  00740100          add [ecx+eax+0x0],dh
0000BF13  00C2              add dl,al
0000BF15  A1FFFF1801        mov eax,[0x118ffff]
0000BF1A  0000              add [eax],al
0000BF1C  00410E            add [ecx+0xe],al
0000BF1F  088502420D05      or [ebp+0x50d4202],al
0000BF25  031401            add edx,[ecx+eax]
0000BF28  C50C04            lds ecx,[esp+eax]
0000BF2B  041C              add al,0x1c
0000BF2D  0000              add [eax],al
0000BF2F  0094010000BAA2    add [ecx+eax-0x5d460000],dl
0000BF36  FF                db 0xff
0000BF37  FFCD              dec ebp
0000BF39  0100              add [eax],eax
0000BF3B  0000              add [eax],al
0000BF3D  41                inc ecx
0000BF3E  0E                push cs
0000BF3F  088502420D05      or [ebp+0x50d4202],al
0000BF45  03C9              add ecx,ecx
0000BF47  01C5              add ebp,eax
0000BF49  0C04              or al,0x4
0000BF4B  041C              add al,0x1c
0000BF4D  0000              add [eax],al
0000BF4F  00B401000067A4    add [ecx+eax-0x5b990000],dh
0000BF56  FF                db 0xff
0000BF57  FFC2              inc edx
0000BF59  0200              add al,[eax]
0000BF5B  0000              add [eax],al
0000BF5D  41                inc ecx
0000BF5E  0E                push cs
0000BF5F  088502420D05      or [ebp+0x50d4202],al
0000BF65  03BE02C50C04      add edi,[esi+0x40cc502]
0000BF6B  0414              add al,0x14
0000BF6D  0000              add [eax],al
0000BF6F  0000              add [eax],al
0000BF71  0000              add [eax],al
0000BF73  0001              add [ecx],al
0000BF75  7A52              jpe 0xbfc9
0000BF77  0001              add [ecx],al
0000BF79  7C08              jl 0xbf83
0000BF7B  011B              add [ebx],ebx
0000BF7D  0C04              or al,0x4
0000BF7F  0488              add al,0x88
0000BF81  0100              add [eax],eax
0000BF83  0020              add [eax],ah
0000BF85  0000              add [eax],al
0000BF87  001C00            add [eax+eax],bl
0000BF8A  0000              add [eax],al
0000BF8C  F4                hlt
0000BF8D  A6                cmpsb
0000BF8E  FF                db 0xff
0000BF8F  FF8000000000      inc dword [eax+0x0]
0000BF95  41                inc ecx
0000BF96  0E                push cs
0000BF97  088502420D05      or [ebp+0x50d4202],al
0000BF9D  50                push eax
0000BF9E  830302            add dword [ebx],byte +0x2
0000BFA1  6BC341            imul eax,ebx,byte +0x41
0000BFA4  0C04              or al,0x4
0000BFA6  04C5              add al,0xc5
0000BFA8  2400              and al,0x0
0000BFAA  0000              add [eax],al
0000BFAC  40                inc eax
0000BFAD  0000              add [eax],al
0000BFAF  0050A7            add [eax-0x59],dl
0000BFB2  FF                db 0xff
0000BFB3  FF7102            push dword [ecx+0x2]
0000BFB6  0000              add [eax],al
0000BFB8  00410E            add [ecx+0xe],al
0000BFBB  088502420D05      or [ebp+0x50d4202],al
0000BFC1  56                push esi
0000BFC2  830303            add dword [ebx],byte +0x3
0000BFC5  56                push esi
0000BFC6  02C3              add al,bl
0000BFC8  41                inc ecx
0000BFC9  0C04              or al,0x4
0000BFCB  04C5              add al,0xc5
0000BFCD  0000              add [eax],al
0000BFCF  001400            add [eax+eax],dl
0000BFD2  0000              add [eax],al
0000BFD4  0000              add [eax],al
0000BFD6  0000              add [eax],al
0000BFD8  017A52            add [edx+0x52],edi
0000BFDB  0001              add [ecx],al
0000BFDD  7C08              jl 0xbfe7
0000BFDF  011B              add [ebx],ebx
0000BFE1  0C04              or al,0x4
0000BFE3  0488              add al,0x88
0000BFE5  0100              add [eax],eax
0000BFE7  001C00            add [eax+eax],bl
0000BFEA  0000              add [eax],al
0000BFEC  1C00              sbb al,0x0
0000BFEE  0000              add [eax],al
0000BFF0  84A9FFFFC700      test [ecx+0xc7ffff],ch
0000BFF6  0000              add [eax],al
0000BFF8  00410E            add [ecx+0xe],al
0000BFFB  088502420D05      or [ebp+0x50d4202],al
0000C001  02C3              add al,bl
0000C003  C50C04            lds ecx,[esp+eax]
0000C006  0400              add al,0x0
0000C008  1C00              sbb al,0x0
0000C00A  0000              add [eax],al
0000C00C  3C00              cmp al,0x0
0000C00E  0000              add [eax],al
0000C010  2BAAFFFFF600      sub ebp,[edx+0xf6ffff]
0000C016  0000              add [eax],al
0000C018  00410E            add [ecx+0xe],al
0000C01B  088502420D05      or [ebp+0x50d4202],al
0000C021  02F2              add dh,dl
0000C023  C50C04            lds ecx,[esp+eax]
0000C026  0400              add al,0x0
0000C028  1C00              sbb al,0x0
0000C02A  0000              add [eax],al
0000C02C  5C                pop esp
0000C02D  0000              add [eax],al
0000C02F  0001              add [ecx],al
0000C031  AB                stosd
0000C032  FF                db 0xff
0000C033  FF                db 0xff
0000C034  7A01              jpe 0xc037
0000C036  0000              add [eax],al
0000C038  00410E            add [ecx+0xe],al
0000C03B  088502420D05      or [ebp+0x50d4202],al
0000C041  037601            add esi,[esi+0x1]
0000C044  C50C04            lds ecx,[esp+eax]
0000C047  041C              add al,0x1c
0000C049  0000              add [eax],al
0000C04B  007C0000          add [eax+eax+0x0],bh
0000C04F  005BAC            add [ebx-0x54],bl
0000C052  FF                db 0xff
0000C053  FFD5              call ebp
0000C055  0000              add [eax],al
0000C057  0000              add [eax],al
0000C059  41                inc ecx
0000C05A  0E                push cs
0000C05B  088502420D05      or [ebp+0x50d4202],al
0000C061  02D1              add dl,cl
0000C063  C50C04            lds ecx,[esp+eax]
0000C066  0400              add al,0x0
0000C068  1C00              sbb al,0x0
0000C06A  0000              add [eax],al
0000C06C  9C                pushfd
0000C06D  0000              add [eax],al
0000C06F  0010              add [eax],dl
0000C071  AD                lodsd
0000C072  FF                db 0xff
0000C073  FF6000            jmp dword near [eax+0x0]
0000C076  0000              add [eax],al
0000C078  00410E            add [ecx+0xe],al
0000C07B  088502420D05      or [ebp+0x50d4202],al
0000C081  025CC50C          add bl,[ebp+eax*8+0xc]
0000C085  0404              add al,0x4
0000C087  001400            add [eax+eax],dl
0000C08A  0000              add [eax],al
0000C08C  0000              add [eax],al
0000C08E  0000              add [eax],al
0000C090  017A52            add [edx+0x52],edi
0000C093  0001              add [ecx],al
0000C095  7C08              jl 0xc09f
0000C097  011B              add [ebx],ebx
0000C099  0C04              or al,0x4
0000C09B  0488              add al,0x88
0000C09D  0100              add [eax],eax
0000C09F  001C00            add [eax+eax],bl
0000C0A2  0000              add [eax],al
0000C0A4  1C00              sbb al,0x0
0000C0A6  0000              add [eax],al
0000C0A8  38ADFFFFE001      cmp [ebp+0x1e0ffff],ch
0000C0AE  0000              add [eax],al
0000C0B0  00410E            add [ecx+0xe],al
0000C0B3  088502420D05      or [ebp+0x50d4202],al
0000C0B9  03DC              add ebx,esp
0000C0BB  01C5              add ebp,eax
0000C0BD  0C04              or al,0x4
0000C0BF  041C              add al,0x1c
0000C0C1  0000              add [eax],al
0000C0C3  003C00            add [eax+eax],bh
0000C0C6  0000              add [eax],al
0000C0C8  F8                clc
0000C0C9  AE                scasb
0000C0CA  FF                db 0xff
0000C0CB  FF29              jmp dword far [ecx]
0000C0CD  0000              add [eax],al
0000C0CF  0000              add [eax],al
0000C0D1  41                inc ecx
0000C0D2  0E                push cs
0000C0D3  088502420D05      or [ebp+0x50d4202],al
0000C0D9  65C50C04          lds ecx,[gs:esp+eax]
0000C0DD  0400              add al,0x0
0000C0DF  001C00            add [eax+eax],bl
0000C0E2  0000              add [eax],al
0000C0E4  5C                pop esp
0000C0E5  0000              add [eax],al
0000C0E7  0001              add [ecx],al
0000C0E9  AF                scasd
0000C0EA  FF                db 0xff
0000C0EB  FF29              jmp dword far [ecx]
0000C0ED  0000              add [eax],al
0000C0EF  0000              add [eax],al
0000C0F1  41                inc ecx
0000C0F2  0E                push cs
0000C0F3  088502420D05      or [ebp+0x50d4202],al
0000C0F9  65C50C04          lds ecx,[gs:esp+eax]
0000C0FD  0400              add al,0x0
0000C0FF  001400            add [eax+eax],dl
0000C102  0000              add [eax],al
0000C104  0000              add [eax],al
0000C106  0000              add [eax],al
0000C108  017A52            add [edx+0x52],edi
0000C10B  0001              add [ecx],al
0000C10D  7C08              jl 0xc117
0000C10F  011B              add [ebx],ebx
0000C111  0C04              or al,0x4
0000C113  0488              add al,0x88
0000C115  0100              add [eax],eax
0000C117  001C00            add [eax+eax],bl
0000C11A  0000              add [eax],al
0000C11C  1C00              sbb al,0x0
0000C11E  0000              add [eax],al
0000C120  F4                hlt
0000C121  AE                scasb
0000C122  FF                db 0xff
0000C123  FF3402            push dword [edx+eax]
0000C126  0000              add [eax],al
0000C128  00410E            add [ecx+0xe],al
0000C12B  088502420D05      or [ebp+0x50d4202],al
0000C131  0330              add esi,[eax]
0000C133  02C5              add al,ch
0000C135  0C04              or al,0x4
0000C137  041C              add al,0x1c
0000C139  0000              add [eax],al
0000C13B  003C00            add [eax+eax],bh
0000C13E  0000              add [eax],al
0000C140  08B1FFFFBA00      or [ecx+0xbaffff],dh
0000C146  0000              add [eax],al
0000C148  00410E            add [ecx+0xe],al
0000C14B  088502420D05      or [ebp+0x50d4202],al
0000C151  02B6C50C0404      add dh,[esi+0x4040cc5]
0000C157  001C00            add [eax+eax],bl
0000C15A  0000              add [eax],al
0000C15C  5C                pop esp
0000C15D  0000              add [eax],al
0000C15F  00A2B1FFFFAF      add [edx-0x5000004f],ah
0000C165  0000              add [eax],al
0000C167  0000              add [eax],al
0000C169  41                inc ecx
0000C16A  0E                push cs
0000C16B  088502420D05      or [ebp+0x50d4202],al
0000C171  02ABC50C0404      add ch,[ebx+0x4040cc5]
0000C177  001C00            add [eax+eax],bl
0000C17A  0000              add [eax],al
0000C17C  7C00              jl 0xc17e
0000C17E  0000              add [eax],al
0000C180  31B2FFFF5600      xor [edx+0x56ffff],esi
0000C186  0000              add [eax],al
0000C188  00410E            add [ecx+0xe],al
0000C18B  088502420D05      or [ebp+0x50d4202],al
0000C191  0252C5            add dl,[edx-0x3b]
0000C194  0C04              or al,0x4
0000C196  0400              add al,0x0
0000C198  1C00              sbb al,0x0
0000C19A  0000              add [eax],al
0000C19C  9C                pushfd
0000C19D  0000              add [eax],al
0000C19F  0067B2            add [edi-0x4e],ah
0000C1A2  FF                db 0xff
0000C1A3  FF5600            call dword near [esi+0x0]
0000C1A6  0000              add [eax],al
0000C1A8  00410E            add [ecx+0xe],al
0000C1AB  088502420D05      or [ebp+0x50d4202],al
0000C1B1  0252C5            add dl,[edx-0x3b]
0000C1B4  0C04              or al,0x4
0000C1B6  0400              add al,0x0
0000C1B8  1C00              sbb al,0x0
0000C1BA  0000              add [eax],al
0000C1BC  BC0000009D        mov esp,0x9d000000
0000C1C1  B2FF              mov dl,0xff
0000C1C3  FFA301000000      jmp dword near [ebx+0x1]
0000C1C9  41                inc ecx
0000C1CA  0E                push cs
0000C1CB  088502420D05      or [ebp+0x50d4202],al
0000C1D1  039F01C50C04      add ebx,[edi+0x40cc501]
0000C1D7  041C              add al,0x1c
0000C1D9  0000              add [eax],al
0000C1DB  00DC              add ah,bl
0000C1DD  0000              add [eax],al
0000C1DF  0020              add [eax],ah
0000C1E1  B4FF              mov ah,0xff
0000C1E3  FFF3              push ebx
0000C1E5  0000              add [eax],al
0000C1E7  0000              add [eax],al
0000C1E9  41                inc ecx
0000C1EA  0E                push cs
0000C1EB  088502420D05      or [ebp+0x50d4202],al
0000C1F1  02EF              add ch,bh
0000C1F3  C50C04            lds ecx,[esp+eax]
0000C1F6  0400              add al,0x0
0000C1F8  1C00              sbb al,0x0
0000C1FA  0000              add [eax],al
0000C1FC  FC                cld
0000C1FD  0000              add [eax],al
0000C1FF  00F3              add bl,dh
0000C201  B4FF              mov ah,0xff
0000C203  FF540000          call dword near [eax+eax+0x0]
0000C207  0000              add [eax],al
0000C209  41                inc ecx
0000C20A  0E                push cs
0000C20B  088502420D05      or [ebp+0x50d4202],al
0000C211  0250C5            add dl,[eax-0x3b]
0000C214  0C04              or al,0x4
0000C216  0400              add al,0x0
0000C218  1C00              sbb al,0x0
0000C21A  0000              add [eax],al
0000C21C  1C01              sbb al,0x1
0000C21E  0000              add [eax],al
0000C220  27                daa
0000C221  B5FF              mov ch,0xff
0000C223  FF4500            inc dword [ebp+0x0]
0000C226  0000              add [eax],al
0000C228  00410E            add [ecx+0xe],al
0000C22B  088502420D05      or [ebp+0x50d4202],al
0000C231  0241C5            add al,[ecx-0x3b]
0000C234  0C04              or al,0x4
0000C236  0400              add al,0x0
0000C238  1C00              sbb al,0x0
0000C23A  0000              add [eax],al
0000C23C  3C01              cmp al,0x1
0000C23E  0000              add [eax],al
0000C240  4C                dec esp
0000C241  B5FF              mov ch,0xff
0000C243  FF                db 0xff
0000C244  3B00              cmp eax,[eax]
0000C246  0000              add [eax],al
0000C248  00410E            add [ecx+0xe],al
0000C24B  088502420D05      or [ebp+0x50d4202],al
0000C251  77C5              ja 0xc218
0000C253  0C04              or al,0x4
0000C255  0400              add al,0x0
0000C257  001C00            add [eax+eax],bl
0000C25A  0000              add [eax],al
0000C25C  5C                pop esp
0000C25D  0100              add [eax],eax
0000C25F  0067B5            add [edi-0x4b],ah
0000C262  FF                db 0xff
0000C263  FF                db 0xff
0000C264  3B00              cmp eax,[eax]
0000C266  0000              add [eax],al
0000C268  00410E            add [ecx+0xe],al
0000C26B  088502420D05      or [ebp+0x50d4202],al
0000C271  77C5              ja 0xc238
0000C273  0C04              or al,0x4
0000C275  0400              add al,0x0
0000C277  002400            add [eax+eax],ah
0000C27A  0000              add [eax],al
0000C27C  7C01              jl 0xc27f
0000C27E  0000              add [eax],al
0000C280  82                db 0x82
0000C281  B5FF              mov ch,0xff
0000C283  FF09              dec dword [ecx]
0000C285  0200              add al,[eax]
0000C287  0000              add [eax],al
0000C289  41                inc ecx
0000C28A  0E                push cs
0000C28B  088502420D05      or [ebp+0x50d4202],al
0000C291  68830303DC        push dword 0xdc030383
0000C296  01C3              add ebx,eax
0000C298  41                inc ecx
0000C299  0C04              or al,0x4
0000C29B  04C5              add al,0xc5
0000C29D  0000              add [eax],al
0000C29F  001C00            add [eax+eax],bl
0000C2A2  0000              add [eax],al
0000C2A4  A4                movsb
0000C2A5  0100              add [eax],eax
0000C2A7  0063B7            add [ebx-0x49],ah
0000C2AA  FF                db 0xff
0000C2AB  FF4E00            dec dword [esi+0x0]
0000C2AE  0000              add [eax],al
0000C2B0  00410E            add [ecx+0xe],al
0000C2B3  088502420D05      or [ebp+0x50d4202],al
0000C2B9  024AC5            add cl,[edx-0x3b]
0000C2BC  0C04              or al,0x4
0000C2BE  0400              add al,0x0
0000C2C0  1C00              sbb al,0x0
0000C2C2  0000              add [eax],al
0000C2C4  C401              les eax,[ecx]
0000C2C6  0000              add [eax],al
0000C2C8  91                xchg eax,ecx
0000C2C9  B7FF              mov bh,0xff
0000C2CB  FF4E00            dec dword [esi+0x0]
0000C2CE  0000              add [eax],al
0000C2D0  00410E            add [ecx+0xe],al
0000C2D3  088502420D05      or [ebp+0x50d4202],al
0000C2D9  024AC5            add cl,[edx-0x3b]
0000C2DC  0C04              or al,0x4
0000C2DE  0400              add al,0x0
0000C2E0  2400              and al,0x0
0000C2E2  0000              add [eax],al
0000C2E4  E401              in al,0x1
0000C2E6  0000              add [eax],al
0000C2E8  BFB7FFFFDA        mov edi,0xdaffffb7
0000C2ED  0100              add [eax],eax
0000C2EF  0000              add [eax],al
0000C2F1  41                inc ecx
0000C2F2  0E                push cs
0000C2F3  088502420D05      or [ebp+0x50d4202],al
0000C2F9  028183030354      add al,[ecx+0x54030383]
0000C2FF  01C3              add ebx,eax
0000C301  41                inc ecx
0000C302  0C04              or al,0x4
0000C304  04C5              add al,0xc5
0000C306  0000              add [eax],al
0000C308  2400              and al,0x0
0000C30A  0000              add [eax],al
0000C30C  0C02              or al,0x2
0000C30E  0000              add [eax],al
0000C310  71B9              jno 0xc2cb
0000C312  FF                db 0xff
0000C313  FFC7              inc edi
0000C315  0100              add [eax],eax
0000C317  0000              add [eax],al
0000C319  41                inc ecx
0000C31A  0E                push cs
0000C31B  088502420D05      or [ebp+0x50d4202],al
0000C321  6D                insd
0000C322  830303            add dword [ebx],byte +0x3
0000C325  95                xchg eax,ebp
0000C326  01C3              add ebx,eax
0000C328  41                inc ecx
0000C329  0C04              or al,0x4
0000C32B  04C5              add al,0xc5
0000C32D  0000              add [eax],al
0000C32F  001C00            add [eax+eax],bl
0000C332  0000              add [eax],al
0000C334  3402              xor al,0x2
0000C336  0000              add [eax],al
0000C338  10BBFFFFF302      adc [ebx+0x2f3ffff],bh
0000C33E  0000              add [eax],al
0000C340  00410E            add [ecx+0xe],al
0000C343  088502420D05      or [ebp+0x50d4202],al
0000C349  03EF              add ebp,edi
0000C34B  02C5              add al,ch
0000C34D  0C04              or al,0x4
0000C34F  041C              add al,0x1c
0000C351  0000              add [eax],al
0000C353  00540200          add [edx+eax+0x0],dl
0000C357  00E3              add bl,ah
0000C359  BDFFFF6B01        mov ebp,0x16bffff
0000C35E  0000              add [eax],al
0000C360  00410E            add [ecx+0xe],al
0000C363  088502420D05      or [ebp+0x50d4202],al
0000C369  036701            add esp,[edi+0x1]
0000C36C  C50C04            lds ecx,[esp+eax]
0000C36F  041C              add al,0x1c
0000C371  0000              add [eax],al
0000C373  00740200          add [edx+eax+0x0],dh
0000C377  002E              add [esi],ch
0000C379  BFFFFFFE00        mov edi,0xfeffff
0000C37E  0000              add [eax],al
0000C380  00410E            add [ecx+0xe],al
0000C383  088502420D05      or [ebp+0x50d4202],al
0000C389  02FA              add bh,dl
0000C38B  C50C04            lds ecx,[esp+eax]
0000C38E  0400              add al,0x0
0000C390  2400              and al,0x0
0000C392  0000              add [eax],al
0000C394  94                xchg eax,esp
0000C395  0200              add al,[eax]
0000C397  000CC0            add [eax+eax*8],cl
0000C39A  FF                db 0xff
0000C39B  FFCA              dec edx
0000C39D  0500000041        add eax,0x41000000
0000C3A2  0E                push cs
0000C3A3  088502420D05      or [ebp+0x50d4202],al
0000C3A9  024183            add al,[ecx-0x7d]
0000C3AC  0303              add eax,[ebx]
0000C3AE  8405C3410C04      test [dword 0x40c41c3],al
0000C3B4  04C5              add al,0xc5
0000C3B6  0000              add [eax],al
0000C3B8  1C00              sbb al,0x0
0000C3BA  0000              add [eax],al
0000C3BC  BC020000AE        mov esp,0xae000002
0000C3C1  C5                db 0xc5
0000C3C2  FF                db 0xff
0000C3C3  FFC5              inc ebp
0000C3C5  0000              add [eax],al
0000C3C7  0000              add [eax],al
0000C3C9  41                inc ecx
0000C3CA  0E                push cs
0000C3CB  088502420D05      or [ebp+0x50d4202],al
0000C3D1  02C1              add al,cl
0000C3D3  C50C04            lds ecx,[esp+eax]
0000C3D6  0400              add al,0x0
0000C3D8  1C00              sbb al,0x0
0000C3DA  0000              add [eax],al
0000C3DC  DC02              fadd qword [edx]
0000C3DE  0000              add [eax],al
0000C3E0  53                push ebx
0000C3E1  C6                db 0xc6
0000C3E2  FF                db 0xff
0000C3E3  FF                db 0xff
0000C3E4  7800              js 0xc3e6
0000C3E6  0000              add [eax],al
0000C3E8  00410E            add [ecx+0xe],al
0000C3EB  088502420D05      or [ebp+0x50d4202],al
0000C3F1  0274C50C          add dh,[ebp+eax*8+0xc]
0000C3F5  0404              add al,0x4
0000C3F7  001C00            add [eax+eax],bl
0000C3FA  0000              add [eax],al
0000C3FC  FC                cld
0000C3FD  0200              add al,[eax]
0000C3FF  00ABC6FFFF38      add [ebx+0x38ffffc6],ch
0000C405  0000              add [eax],al
0000C407  0000              add [eax],al
0000C409  41                inc ecx
0000C40A  0E                push cs
0000C40B  088502420D05      or [ebp+0x50d4202],al
0000C411  74C5              jz 0xc3d8
0000C413  0C04              or al,0x4
0000C415  0400              add al,0x0
0000C417  001400            add [eax+eax],dl
0000C41A  0000              add [eax],al
0000C41C  0000              add [eax],al
0000C41E  0000              add [eax],al
0000C420  017A52            add [edx+0x52],edi
0000C423  0001              add [ecx],al
0000C425  7C08              jl 0xc42f
0000C427  011B              add [ebx],ebx
0000C429  0C04              or al,0x4
0000C42B  0488              add al,0x88
0000C42D  0100              add [eax],eax
0000C42F  001C00            add [eax+eax],bl
0000C432  0000              add [eax],al
0000C434  1C00              sbb al,0x0
0000C436  0000              add [eax],al
0000C438  AC                lodsb
0000C439  C6                db 0xc6
0000C43A  FF                db 0xff
0000C43B  FFD4              call esp
0000C43D  0000              add [eax],al
0000C43F  0000              add [eax],al
0000C441  41                inc ecx
0000C442  0E                push cs
0000C443  088502420D05      or [ebp+0x50d4202],al
0000C449  02D0              add dl,al
0000C44B  C50C04            lds ecx,[esp+eax]
0000C44E  0400              add al,0x0
0000C450  1C00              sbb al,0x0
0000C452  0000              add [eax],al
0000C454  3C00              cmp al,0x0
0000C456  0000              add [eax],al
0000C458  60                pushad
0000C459  C7                db 0xc7
0000C45A  FF                db 0xff
0000C45B  FFE3              jmp ebx
0000C45D  0000              add [eax],al
0000C45F  0000              add [eax],al
0000C461  41                inc ecx
0000C462  0E                push cs
0000C463  088502420D05      or [ebp+0x50d4202],al
0000C469  02DF              add bl,bh
0000C46B  C50C04            lds ecx,[esp+eax]
0000C46E  0400              add al,0x0
0000C470  1C00              sbb al,0x0
0000C472  0000              add [eax],al
0000C474  5C                pop esp
0000C475  0000              add [eax],al
0000C477  0023              add [ebx],ah
0000C479  C8FFFF4C          enter 0xffff,0x4c
0000C47D  0000              add [eax],al
0000C47F  0000              add [eax],al
0000C481  41                inc ecx
0000C482  0E                push cs
0000C483  088502420D05      or [ebp+0x50d4202],al
0000C489  02480C            add cl,[eax+0xc]
0000C48C  0404              add al,0x4
0000C48E  C500              lds eax,[eax]
0000C490  1C00              sbb al,0x0
0000C492  0000              add [eax],al
0000C494  7C00              jl 0xc496
0000C496  0000              add [eax],al
0000C498  4F                dec edi
0000C499  C8FFFF27          enter 0xffff,0x27
0000C49D  0000              add [eax],al
0000C49F  0000              add [eax],al
0000C4A1  41                inc ecx
0000C4A2  0E                push cs
0000C4A3  088502420D05      or [ebp+0x50d4202],al
0000C4A9  630C04            arpl [esp+eax],cx
0000C4AC  04C5              add al,0xc5
0000C4AE  0000              add [eax],al
0000C4B0  1400              adc al,0x0
0000C4B2  0000              add [eax],al
0000C4B4  0000              add [eax],al
0000C4B6  0000              add [eax],al
0000C4B8  017A52            add [edx+0x52],edi
0000C4BB  0001              add [ecx],al
0000C4BD  7C08              jl 0xc4c7
0000C4BF  011B              add [ebx],ebx
0000C4C1  0C04              or al,0x4
0000C4C3  0488              add al,0x88
0000C4C5  0100              add [eax],eax
0000C4C7  001C00            add [eax+eax],bl
0000C4CA  0000              add [eax],al
0000C4CC  1C00              sbb al,0x0
0000C4CE  0000              add [eax],al
0000C4D0  40                inc eax
0000C4D1  C8FFFF50          enter 0xffff,0x50
0000C4D5  0000              add [eax],al
0000C4D7  0000              add [eax],al
0000C4D9  41                inc ecx
0000C4DA  0E                push cs
0000C4DB  088502420D05      or [ebp+0x50d4202],al
0000C4E1  024CC50C          add cl,[ebp+eax*8+0xc]
0000C4E5  0404              add al,0x4
0000C4E7  001C00            add [eax+eax],bl
0000C4EA  0000              add [eax],al
0000C4EC  3C00              cmp al,0x0
0000C4EE  0000              add [eax],al
0000C4F0  70C8              jo 0xc4ba
0000C4F2  FF                db 0xff
0000C4F3  FFD5              call ebp
0000C4F5  0000              add [eax],al
0000C4F7  0000              add [eax],al
0000C4F9  41                inc ecx
0000C4FA  0E                push cs
0000C4FB  088502420D05      or [ebp+0x50d4202],al
0000C501  02D1              add dl,cl
0000C503  C50C04            lds ecx,[esp+eax]
0000C506  0400              add al,0x0
0000C508  1C00              sbb al,0x0
0000C50A  0000              add [eax],al
0000C50C  5C                pop esp
0000C50D  0000              add [eax],al
0000C50F  0025C9FFFFFF      add [dword 0xffffffc9],ah
0000C515  0000              add [eax],al
0000C517  0000              add [eax],al
0000C519  41                inc ecx
0000C51A  0E                push cs
0000C51B  088502420D05      or [ebp+0x50d4202],al
0000C521  02FB              add bh,bl
0000C523  C50C04            lds ecx,[esp+eax]
0000C526  0400              add al,0x0
0000C528  1C00              sbb al,0x0
0000C52A  0000              add [eax],al
0000C52C  7C00              jl 0xc52e
0000C52E  0000              add [eax],al
0000C530  04CA              add al,0xca
0000C532  FF                db 0xff
0000C533  FF6A00            jmp dword far [edx+0x0]
0000C536  0000              add [eax],al
0000C538  00410E            add [ecx+0xe],al
0000C53B  088502420D05      or [ebp+0x50d4202],al
0000C541  0266C5            add ah,[esi-0x3b]
0000C544  0C04              or al,0x4
0000C546  0400              add al,0x0
0000C548  1C00              sbb al,0x0
0000C54A  0000              add [eax],al
0000C54C  9C                pushfd
0000C54D  0000              add [eax],al
0000C54F  004ECA            add [esi-0x36],cl
0000C552  FF                db 0xff
0000C553  FF6800            jmp dword far [eax+0x0]
0000C556  0000              add [eax],al
0000C558  00410E            add [ecx+0xe],al
0000C55B  088502420D05      or [ebp+0x50d4202],al
0000C561  0264C50C          add ah,[ebp+eax*8+0xc]
0000C565  0404              add al,0x4
0000C567  001400            add [eax+eax],dl
0000C56A  0000              add [eax],al
0000C56C  0000              add [eax],al
0000C56E  0000              add [eax],al
0000C570  017A52            add [edx+0x52],edi
0000C573  0001              add [ecx],al
0000C575  7C08              jl 0xc57f
0000C577  011B              add [ebx],ebx
0000C579  0C04              or al,0x4
0000C57B  0488              add al,0x88
0000C57D  0100              add [eax],eax
0000C57F  002400            add [eax+eax],ah
0000C582  0000              add [eax],al
0000C584  1C00              sbb al,0x0
0000C586  0000              add [eax],al
0000C588  80CAFF            or dl,0xff
0000C58B  FF                db 0xff
0000C58C  EC                in al,dx
0000C58D  0200              add al,[eax]
0000C58F  0000              add [eax],al
0000C591  41                inc ecx
0000C592  0E                push cs
0000C593  088502420D05      or [ebp+0x50d4202],al
0000C599  63830303C402      arpl [ebx+0x2c40303],ax
0000C59F  C3                ret
0000C5A0  41                inc ecx
0000C5A1  0C04              or al,0x4
0000C5A3  04C5              add al,0xc5
0000C5A5  0000              add [eax],al
0000C5A7  001C00            add [eax+eax],bl
0000C5AA  0000              add [eax],al
0000C5AC  44                inc esp
0000C5AD  0000              add [eax],al
0000C5AF  0044CDFF          add [ebp+ecx*8-0x1],al
0000C5B3  FF9001000000      call dword near [eax+0x1]
0000C5B9  41                inc ecx
0000C5BA  0E                push cs
0000C5BB  088502420D05      or [ebp+0x50d4202],al
0000C5C1  038C01C50C0404    add ecx,[ecx+eax+0x4040cc5]
0000C5C8  1C00              sbb al,0x0
0000C5CA  0000              add [eax],al
0000C5CC  640000            add [fs:eax],al
0000C5CF  00B4CEFFFF6C02    add [esi+ecx*8+0x26cffff],dh
0000C5D6  0000              add [eax],al
0000C5D8  00410E            add [ecx+0xe],al
0000C5DB  088502420D05      or [ebp+0x50d4202],al
0000C5E1  036802            add ebp,[eax+0x2]
0000C5E4  C50C04            lds ecx,[esp+eax]
0000C5E7  0414              add al,0x14
0000C5E9  0000              add [eax],al
0000C5EB  0000              add [eax],al
0000C5ED  0000              add [eax],al
0000C5EF  0001              add [ecx],al
0000C5F1  7A52              jpe 0xc645
0000C5F3  0001              add [ecx],al
0000C5F5  7C08              jl 0xc5ff
0000C5F7  011B              add [ebx],ebx
0000C5F9  0C04              or al,0x4
0000C5FB  0488              add al,0x88
0000C5FD  0100              add [eax],eax
0000C5FF  001C00            add [eax+eax],bl
0000C602  0000              add [eax],al
0000C604  1C00              sbb al,0x0
0000C606  0000              add [eax],al
0000C608  E8D0FFFFF8        call dword 0xf900c5dd
0000C60D  0200              add al,[eax]
0000C60F  0000              add [eax],al
0000C611  41                inc ecx
0000C612  0E                push cs
0000C613  088502420D05      or [ebp+0x50d4202],al
0000C619  03F4              add esi,esp
0000C61B  02C5              add al,ch
0000C61D  0C04              or al,0x4
0000C61F  041C              add al,0x1c
0000C621  0000              add [eax],al
0000C623  003C00            add [eax+eax],bh
0000C626  0000              add [eax],al
0000C628  C0D3FF            rcl bl,0xff
0000C62B  FF4C0000          dec dword [eax+eax+0x0]
0000C62F  0000              add [eax],al
0000C631  41                inc ecx
0000C632  0E                push cs
0000C633  088502420D05      or [ebp+0x50d4202],al
0000C639  0248C5            add cl,[eax-0x3b]
0000C63C  0C04              or al,0x4
0000C63E  0400              add al,0x0
0000C640  1C00              sbb al,0x0
0000C642  0000              add [eax],al
0000C644  5C                pop esp
0000C645  0000              add [eax],al
0000C647  00EC              add ah,ch
0000C649  D3FF              sar edi,cl
0000C64B  FF4100            inc dword [ecx+0x0]
0000C64E  0000              add [eax],al
0000C650  00410E            add [ecx+0xe],al
0000C653  088502420D05      or [ebp+0x50d4202],al
0000C659  7DC5              jnl 0xc620
0000C65B  0C04              or al,0x4
0000C65D  0400              add al,0x0
0000C65F  004000            add [eax+0x0],al
0000C662  0000              add [eax],al
0000C664  0000              add [eax],al
0000C666  0000              add [eax],al
0000C668  FF07              inc dword [edi]
0000C66A  0008              add [eax],cl
0000C66C  0000              add [eax],al
0000C66E  0000              add [eax],al
0000C670  0000              add [eax],al
0000C672  0000              add [eax],al
0000C674  0000              add [eax],al
0000C676  0000              add [eax],al
0000C678  0000              add [eax],al
0000C67A  0000              add [eax],al
0000C67C  0000              add [eax],al
0000C67E  0000              add [eax],al
0000C680  101E              adc [esi],bl
0000C682  0100              add [eax],eax
0000C684  101E              adc [esi],bl
0000C686  0100              add [eax],eax
0000C688  101E              adc [esi],bl
0000C68A  0100              add [eax],eax
0000C68C  101E              adc [esi],bl
0000C68E  0100              add [eax],eax
0000C690  121E              adc bl,[esi]
0000C692  0100              add [eax],eax
0000C694  121E              adc bl,[esi]
0000C696  0100              add [eax],eax
0000C698  121E              adc bl,[esi]
0000C69A  0100              add [eax],eax
0000C69C  121E              adc bl,[esi]
0000C69E  0100              add [eax],eax
0000C6A0  141E              adc al,0x1e
0000C6A2  0100              add [eax],eax
0000C6A4  16                push ss
0000C6A5  1E                push ds
0000C6A6  0100              add [eax],eax
0000C6A8  141E              adc al,0x1e
0000C6AA  0100              add [eax],eax
0000C6AC  141E              adc al,0x1e
0000C6AE  0100              add [eax],eax
0000C6B0  181E              sbb [esi],bl
0000C6B2  0100              add [eax],eax
0000C6B4  1A1E              sbb bl,[esi]
0000C6B6  0100              add [eax],eax
0000C6B8  181E              sbb [esi],bl
0000C6BA  0100              add [eax],eax
0000C6BC  181E              sbb [esi],bl
0000C6BE  0100              add [eax],eax
0000C6C0  1C1E              sbb al,0x1e
0000C6C2  0100              add [eax],eax
0000C6C4  1E                push ds
0000C6C5  1E                push ds
0000C6C6  0100              add [eax],eax
0000C6C8  1C1E              sbb al,0x1e
0000C6CA  0100              add [eax],eax
0000C6CC  1C1E              sbb al,0x1e
0000C6CE  0100              add [eax],eax
0000C6D0  201E              and [esi],bl
0000C6D2  0100              add [eax],eax
0000C6D4  221E              and bl,[esi]
0000C6D6  0100              add [eax],eax
0000C6D8  201E              and [esi],bl
0000C6DA  0100              add [eax],eax
0000C6DC  201E              and [esi],bl
0000C6DE  0100              add [eax],eax
0000C6E0  241E              and al,0x1e
0000C6E2  0100              add [eax],eax
0000C6E4  261E              es push ds
0000C6E6  0100              add [eax],eax
0000C6E8  241E              and al,0x1e
0000C6EA  0100              add [eax],eax
0000C6EC  241E              and al,0x1e
0000C6EE  0100              add [eax],eax
0000C6F0  281E              sub [esi],bl
0000C6F2  0100              add [eax],eax
0000C6F4  2A1E              sub bl,[esi]
0000C6F6  0100              add [eax],eax
0000C6F8  281E              sub [esi],bl
0000C6FA  0100              add [eax],eax
0000C6FC  281E              sub [esi],bl
0000C6FE  0100              add [eax],eax
0000C700  2C1E              sub al,0x1e
0000C702  0100              add [eax],eax
0000C704  2E1E              cs push ds
0000C706  0100              add [eax],eax
0000C708  2C1E              sub al,0x1e
0000C70A  0100              add [eax],eax
0000C70C  2C1E              sub al,0x1e
0000C70E  0100              add [eax],eax
0000C710  301E              xor [esi],bl
0000C712  0100              add [eax],eax
0000C714  321E              xor bl,[esi]
0000C716  0100              add [eax],eax
0000C718  301E              xor [esi],bl
0000C71A  0100              add [eax],eax
0000C71C  301E              xor [esi],bl
0000C71E  0100              add [eax],eax
0000C720  341E              xor al,0x1e
0000C722  0100              add [eax],eax
0000C724  361E              ss push ds
0000C726  0100              add [eax],eax
0000C728  341E              xor al,0x1e
0000C72A  0100              add [eax],eax
0000C72C  341E              xor al,0x1e
0000C72E  0100              add [eax],eax
0000C730  381E              cmp [esi],bl
0000C732  0100              add [eax],eax
0000C734  3A1E              cmp bl,[esi]
0000C736  0100              add [eax],eax
0000C738  381E              cmp [esi],bl
0000C73A  0100              add [eax],eax
0000C73C  381E              cmp [esi],bl
0000C73E  0100              add [eax],eax
0000C740  3C1E              cmp al,0x1e
0000C742  0100              add [eax],eax
0000C744  3E1E              ds push ds
0000C746  0100              add [eax],eax
0000C748  3C1E              cmp al,0x1e
0000C74A  0100              add [eax],eax
0000C74C  3C1E              cmp al,0x1e
0000C74E  0100              add [eax],eax
0000C750  40                inc eax
0000C751  1E                push ds
0000C752  0100              add [eax],eax
0000C754  42                inc edx
0000C755  1E                push ds
0000C756  0100              add [eax],eax
0000C758  40                inc eax
0000C759  1E                push ds
0000C75A  0100              add [eax],eax
0000C75C  40                inc eax
0000C75D  1E                push ds
0000C75E  0100              add [eax],eax
0000C760  44                inc esp
0000C761  1E                push ds
0000C762  0100              add [eax],eax
0000C764  44                inc esp
0000C765  1E                push ds
0000C766  0100              add [eax],eax
0000C768  46                inc esi
0000C769  1E                push ds
0000C76A  0100              add [eax],eax
0000C76C  44                inc esp
0000C76D  1E                push ds
0000C76E  0100              add [eax],eax
0000C770  48                dec eax
0000C771  1E                push ds
0000C772  0100              add [eax],eax
0000C774  48                dec eax
0000C775  1E                push ds
0000C776  0100              add [eax],eax
0000C778  48                dec eax
0000C779  1E                push ds
0000C77A  0100              add [eax],eax
0000C77C  48                dec eax
0000C77D  1E                push ds
0000C77E  0100              add [eax],eax
0000C780  4A                dec edx
0000C781  1E                push ds
0000C782  0100              add [eax],eax
0000C784  4C                dec esp
0000C785  1E                push ds
0000C786  0100              add [eax],eax
0000C788  4A                dec edx
0000C789  1E                push ds
0000C78A  0100              add [eax],eax
0000C78C  4A                dec edx
0000C78D  1E                push ds
0000C78E  0100              add [eax],eax
0000C790  4E                dec esi
0000C791  1E                push ds
0000C792  0100              add [eax],eax
0000C794  50                push eax
0000C795  1E                push ds
0000C796  0100              add [eax],eax
0000C798  4E                dec esi
0000C799  1E                push ds
0000C79A  0100              add [eax],eax
0000C79C  4E                dec esi
0000C79D  1E                push ds
0000C79E  0100              add [eax],eax
0000C7A0  52                push edx
0000C7A1  1E                push ds
0000C7A2  0100              add [eax],eax
0000C7A4  54                push esp
0000C7A5  1E                push ds
0000C7A6  0100              add [eax],eax
0000C7A8  52                push edx
0000C7A9  1E                push ds
0000C7AA  0100              add [eax],eax
0000C7AC  52                push edx
0000C7AD  1E                push ds
0000C7AE  0100              add [eax],eax
0000C7B0  56                push esi
0000C7B1  1E                push ds
0000C7B2  0100              add [eax],eax
0000C7B4  58                pop eax
0000C7B5  1E                push ds
0000C7B6  0100              add [eax],eax
0000C7B8  56                push esi
0000C7B9  1E                push ds
0000C7BA  0100              add [eax],eax
0000C7BC  56                push esi
0000C7BD  1E                push ds
0000C7BE  0100              add [eax],eax
0000C7C0  5A                pop edx
0000C7C1  1E                push ds
0000C7C2  0100              add [eax],eax
0000C7C4  5C                pop esp
0000C7C5  1E                push ds
0000C7C6  0100              add [eax],eax
0000C7C8  5A                pop edx
0000C7C9  1E                push ds
0000C7CA  0100              add [eax],eax
0000C7CC  5A                pop edx
0000C7CD  1E                push ds
0000C7CE  0100              add [eax],eax
0000C7D0  5E                pop esi
0000C7D1  1E                push ds
0000C7D2  0100              add [eax],eax
0000C7D4  60                pushad
0000C7D5  1E                push ds
0000C7D6  0100              add [eax],eax
0000C7D8  5E                pop esi
0000C7D9  1E                push ds
0000C7DA  0100              add [eax],eax
0000C7DC  5E                pop esi
0000C7DD  1E                push ds
0000C7DE  0100              add [eax],eax
0000C7E0  621E              bound ebx,[esi]
0000C7E2  0100              add [eax],eax
0000C7E4  641E              fs push ds
0000C7E6  0100              add [eax],eax
0000C7E8  621E              bound ebx,[esi]
0000C7EA  0100              add [eax],eax
0000C7EC  621E              bound ebx,[esi]
0000C7EE  0100              add [eax],eax
0000C7F0  661E              o16 push ds
0000C7F2  0100              add [eax],eax
0000C7F4  681E010066        push dword 0x6600011e
0000C7F9  1E                push ds
0000C7FA  0100              add [eax],eax
0000C7FC  661E              o16 push ds
0000C7FE  0100              add [eax],eax
0000C800  6A1E              push byte +0x1e
0000C802  0100              add [eax],eax
0000C804  6C                insb
0000C805  1E                push ds
0000C806  0100              add [eax],eax
0000C808  6A1E              push byte +0x1e
0000C80A  0100              add [eax],eax
0000C80C  6A1E              push byte +0x1e
0000C80E  0100              add [eax],eax
0000C810  6E                outsb
0000C811  1E                push ds
0000C812  0100              add [eax],eax
0000C814  701E              jo 0xc834
0000C816  0100              add [eax],eax
0000C818  6E                outsb
0000C819  1E                push ds
0000C81A  0100              add [eax],eax
0000C81C  6E                outsb
0000C81D  1E                push ds
0000C81E  0100              add [eax],eax
0000C820  721E              jc 0xc840
0000C822  0100              add [eax],eax
0000C824  741E              jz 0xc844
0000C826  0100              add [eax],eax
0000C828  721E              jc 0xc848
0000C82A  0100              add [eax],eax
0000C82C  721E              jc 0xc84c
0000C82E  0100              add [eax],eax
0000C830  761E              jna 0xc850
0000C832  0100              add [eax],eax
0000C834  781E              js 0xc854
0000C836  0100              add [eax],eax
0000C838  761E              jna 0xc858
0000C83A  0100              add [eax],eax
0000C83C  761E              jna 0xc85c
0000C83E  0100              add [eax],eax
0000C840  7A1E              jpe 0xc860
0000C842  0100              add [eax],eax
0000C844  7A1E              jpe 0xc864
0000C846  0100              add [eax],eax
0000C848  7A1E              jpe 0xc868
0000C84A  0100              add [eax],eax
0000C84C  7A1E              jpe 0xc86c
0000C84E  0100              add [eax],eax
0000C850  101E              adc [esi],bl
0000C852  0100              add [eax],eax
0000C854  101E              adc [esi],bl
0000C856  0100              add [eax],eax
0000C858  101E              adc [esi],bl
0000C85A  0100              add [eax],eax
0000C85C  101E              adc [esi],bl
0000C85E  0100              add [eax],eax
0000C860  7C1E              jl 0xc880
0000C862  0100              add [eax],eax
0000C864  7E1E              jng 0xc884
0000C866  0100              add [eax],eax
0000C868  7C1E              jl 0xc888
0000C86A  0100              add [eax],eax
0000C86C  7C1E              jl 0xc88c
0000C86E  0100              add [eax],eax
0000C870  801E01            sbb byte [esi],0x1
0000C873  00821E010080      add [edx-0x7ffffee2],al
0000C879  1E                push ds
0000C87A  0100              add [eax],eax
0000C87C  801E01            sbb byte [esi],0x1
0000C87F  00841E0100861E    add [esi+ebx+0x1e860001],al
0000C886  0100              add [eax],eax
0000C888  841E              test [esi],bl
0000C88A  0100              add [eax],eax
0000C88C  841E              test [esi],bl
0000C88E  0100              add [eax],eax
0000C890  881E              mov [esi],bl
0000C892  0100              add [eax],eax
0000C894  8A1E              mov bl,[esi]
0000C896  0100              add [eax],eax
0000C898  881E              mov [esi],bl
0000C89A  0100              add [eax],eax
0000C89C  881E              mov [esi],bl
0000C89E  0100              add [eax],eax
0000C8A0  8C1E              mov [esi],ds
0000C8A2  0100              add [eax],eax
0000C8A4  8E1E              mov ds,[esi]
0000C8A6  0100              add [eax],eax
0000C8A8  8C1E              mov [esi],ds
0000C8AA  0100              add [eax],eax
0000C8AC  8C1E              mov [esi],ds
0000C8AE  0100              add [eax],eax
0000C8B0  90                nop
0000C8B1  1E                push ds
0000C8B2  0100              add [eax],eax
0000C8B4  92                xchg eax,edx
0000C8B5  1E                push ds
0000C8B6  0100              add [eax],eax
0000C8B8  90                nop
0000C8B9  1E                push ds
0000C8BA  0100              add [eax],eax
0000C8BC  90                nop
0000C8BD  1E                push ds
0000C8BE  0100              add [eax],eax
0000C8C0  94                xchg eax,esp
0000C8C1  1E                push ds
0000C8C2  0100              add [eax],eax
0000C8C4  96                xchg eax,esi
0000C8C5  1E                push ds
0000C8C6  0100              add [eax],eax
0000C8C8  94                xchg eax,esp
0000C8C9  1E                push ds
0000C8CA  0100              add [eax],eax
0000C8CC  94                xchg eax,esp
0000C8CD  1E                push ds
0000C8CE  0100              add [eax],eax
0000C8D0  98                cwde
0000C8D1  1E                push ds
0000C8D2  0100              add [eax],eax
0000C8D4  9A1E0100981E01    call dword 0x11e:0x9800011e
0000C8DB  00981E01009C      add [eax-0x63fffee2],bl
0000C8E1  1E                push ds
0000C8E2  0100              add [eax],eax
0000C8E4  9E                sahf
0000C8E5  1E                push ds
0000C8E6  0100              add [eax],eax
0000C8E8  9C                pushfd
0000C8E9  1E                push ds
0000C8EA  0100              add [eax],eax
0000C8EC  9C                pushfd
0000C8ED  1E                push ds
0000C8EE  0100              add [eax],eax
0000C8F0  A01E0100A2        mov al,[0xa200011e]
0000C8F5  1E                push ds
0000C8F6  0100              add [eax],eax
0000C8F8  A01E0100A0        mov al,[0xa000011e]
0000C8FD  1E                push ds
0000C8FE  0100              add [eax],eax
0000C900  A4                movsb
0000C901  1E                push ds
0000C902  0100              add [eax],eax
0000C904  A6                cmpsb
0000C905  1E                push ds
0000C906  0100              add [eax],eax
0000C908  A4                movsb
0000C909  1E                push ds
0000C90A  0100              add [eax],eax
0000C90C  A4                movsb
0000C90D  1E                push ds
0000C90E  0100              add [eax],eax
0000C910  A81E              test al,0x1e
0000C912  0100              add [eax],eax
0000C914  AA                stosb
0000C915  1E                push ds
0000C916  0100              add [eax],eax
0000C918  A81E              test al,0x1e
0000C91A  0100              add [eax],eax
0000C91C  A81E              test al,0x1e
0000C91E  0100              add [eax],eax
0000C920  101E              adc [esi],bl
0000C922  0100              add [eax],eax
0000C924  101E              adc [esi],bl
0000C926  0100              add [eax],eax
0000C928  101E              adc [esi],bl
0000C92A  0100              add [eax],eax
0000C92C  101E              adc [esi],bl
0000C92E  0100              add [eax],eax
0000C930  AC                lodsb
0000C931  1E                push ds
0000C932  0100              add [eax],eax
0000C934  AE                scasb
0000C935  1E                push ds
0000C936  0100              add [eax],eax
0000C938  AC                lodsb
0000C939  1E                push ds
0000C93A  0100              add [eax],eax
0000C93C  AC                lodsb
0000C93D  1E                push ds
0000C93E  0100              add [eax],eax
0000C940  B01E              mov al,0x1e
0000C942  0100              add [eax],eax
0000C944  B21E              mov dl,0x1e
0000C946  0100              add [eax],eax
0000C948  B01E              mov al,0x1e
0000C94A  0100              add [eax],eax
0000C94C  B01E              mov al,0x1e
0000C94E  0100              add [eax],eax
0000C950  B41E              mov ah,0x1e
0000C952  0100              add [eax],eax
0000C954  B61E              mov dh,0x1e
0000C956  0100              add [eax],eax
0000C958  B41E              mov ah,0x1e
0000C95A  0100              add [eax],eax
0000C95C  B41E              mov ah,0x1e
0000C95E  0100              add [eax],eax
0000C960  B81E0100BA        mov eax,0xba00011e
0000C965  1E                push ds
0000C966  0100              add [eax],eax
0000C968  B81E0100B8        mov eax,0xb800011e
0000C96D  1E                push ds
0000C96E  0100              add [eax],eax
0000C970  BC1E0100BE        mov esp,0xbe00011e
0000C975  1E                push ds
0000C976  0100              add [eax],eax
0000C978  BC1E0100BC        mov esp,0xbc00011e
0000C97D  1E                push ds
0000C97E  0100              add [eax],eax
0000C980  C01E01            rcr byte [esi],0x1
0000C983  00C2              add dl,al
0000C985  1E                push ds
0000C986  0100              add [eax],eax
0000C988  C01E01            rcr byte [esi],0x1
0000C98B  00C0              add al,al
0000C98D  1E                push ds
0000C98E  0100              add [eax],eax
0000C990  C41E              les ebx,[esi]
0000C992  0100              add [eax],eax
0000C994  C6                db 0xc6
0000C995  1E                push ds
0000C996  0100              add [eax],eax
0000C998  C41E              les ebx,[esi]
0000C99A  0100              add [eax],eax
0000C99C  C41E              les ebx,[esi]
0000C99E  0100              add [eax],eax
0000C9A0  C81E0100          enter 0x11e,0x0
0000C9A4  CA1E01            retf 0x11e
0000C9A7  00C8              add al,cl
0000C9A9  1E                push ds
0000C9AA  0100              add [eax],eax
0000C9AC  C81E0100          enter 0x11e,0x0
0000C9B0  CC                int3
0000C9B1  1E                push ds
0000C9B2  0100              add [eax],eax
0000C9B4  CE                into
0000C9B5  1E                push ds
0000C9B6  0100              add [eax],eax
0000C9B8  CC                int3
0000C9B9  1E                push ds
0000C9BA  0100              add [eax],eax
0000C9BC  CC                int3
0000C9BD  1E                push ds
0000C9BE  0100              add [eax],eax
0000C9C0  D01E              rcr byte [esi],1
0000C9C2  0100              add [eax],eax
0000C9C4  D21E              rcr byte [esi],cl
0000C9C6  0100              add [eax],eax
0000C9C8  D01E              rcr byte [esi],1
0000C9CA  0100              add [eax],eax
0000C9CC  D01E              rcr byte [esi],1
0000C9CE  0100              add [eax],eax
0000C9D0  D41E              aam 0x1e
0000C9D2  0100              add [eax],eax
0000C9D4  D6                salc
0000C9D5  1E                push ds
0000C9D6  0100              add [eax],eax
0000C9D8  D41E              aam 0x1e
0000C9DA  0100              add [eax],eax
0000C9DC  D41E              aam 0x1e
0000C9DE  0100              add [eax],eax
0000C9E0  101E              adc [esi],bl
0000C9E2  0100              add [eax],eax
0000C9E4  101E              adc [esi],bl
0000C9E6  0100              add [eax],eax
0000C9E8  101E              adc [esi],bl
0000C9EA  0100              add [eax],eax
0000C9EC  101E              adc [esi],bl
0000C9EE  0100              add [eax],eax
0000C9F0  101E              adc [esi],bl
0000C9F2  0100              add [eax],eax
0000C9F4  101E              adc [esi],bl
0000C9F6  0100              add [eax],eax
0000C9F8  101E              adc [esi],bl
0000C9FA  0100              add [eax],eax
0000C9FC  101E              adc [esi],bl
0000C9FE  0100              add [eax],eax
0000CA00  101E              adc [esi],bl
0000CA02  0100              add [eax],eax
0000CA04  101E              adc [esi],bl
0000CA06  0100              add [eax],eax
0000CA08  101E              adc [esi],bl
0000CA0A  0100              add [eax],eax
0000CA0C  101E              adc [esi],bl
0000CA0E  0100              add [eax],eax
0000CA10  D81E              fcomp dword [esi]
0000CA12  0100              add [eax],eax
0000CA14  D81E              fcomp dword [esi]
0000CA16  0100              add [eax],eax
0000CA18  D81E              fcomp dword [esi]
0000CA1A  0100              add [eax],eax
0000CA1C  D81E              fcomp dword [esi]
0000CA1E  0100              add [eax],eax
0000CA20  101E              adc [esi],bl
0000CA22  0100              add [eax],eax
0000CA24  101E              adc [esi],bl
0000CA26  0100              add [eax],eax
0000CA28  101E              adc [esi],bl
0000CA2A  0100              add [eax],eax
0000CA2C  101E              adc [esi],bl
0000CA2E  0100              add [eax],eax
0000CA30  101E              adc [esi],bl
0000CA32  0100              add [eax],eax
0000CA34  101E              adc [esi],bl
0000CA36  0100              add [eax],eax
0000CA38  101E              adc [esi],bl
0000CA3A  0100              add [eax],eax
0000CA3C  101E              adc [esi],bl
0000CA3E  0100              add [eax],eax
0000CA40  101E              adc [esi],bl
0000CA42  0100              add [eax],eax
0000CA44  101E              adc [esi],bl
0000CA46  0100              add [eax],eax
0000CA48  101E              adc [esi],bl
0000CA4A  0100              add [eax],eax
0000CA4C  101E              adc [esi],bl
0000CA4E  0100              add [eax],eax
0000CA50  101E              adc [esi],bl
0000CA52  0100              add [eax],eax
0000CA54  101E              adc [esi],bl
0000CA56  0100              add [eax],eax
0000CA58  101E              adc [esi],bl
0000CA5A  0100              add [eax],eax
0000CA5C  101E              adc [esi],bl
0000CA5E  0100              add [eax],eax
0000CA60  101E              adc [esi],bl
0000CA62  0100              add [eax],eax
0000CA64  101E              adc [esi],bl
0000CA66  0100              add [eax],eax
0000CA68  101E              adc [esi],bl
0000CA6A  0100              add [eax],eax
0000CA6C  101E              adc [esi],bl
0000CA6E  0100              add [eax],eax
0000CA70  101E              adc [esi],bl
0000CA72  0100              add [eax],eax
0000CA74  101E              adc [esi],bl
0000CA76  0100              add [eax],eax
0000CA78  101E              adc [esi],bl
0000CA7A  0100              add [eax],eax
0000CA7C  101E              adc [esi],bl
0000CA7E  0100              add [eax],eax
0000CA80  101E              adc [esi],bl
0000CA82  0100              add [eax],eax
0000CA84  101E              adc [esi],bl
0000CA86  0100              add [eax],eax
0000CA88  101E              adc [esi],bl
0000CA8A  0100              add [eax],eax
0000CA8C  101E              adc [esi],bl
0000CA8E  0100              add [eax],eax
0000CA90  101E              adc [esi],bl
0000CA92  0100              add [eax],eax
0000CA94  101E              adc [esi],bl
0000CA96  0100              add [eax],eax
0000CA98  101E              adc [esi],bl
0000CA9A  0100              add [eax],eax
0000CA9C  101E              adc [esi],bl
0000CA9E  0100              add [eax],eax
0000CAA0  101E              adc [esi],bl
0000CAA2  0100              add [eax],eax
0000CAA4  101E              adc [esi],bl
0000CAA6  0100              add [eax],eax
0000CAA8  101E              adc [esi],bl
0000CAAA  0100              add [eax],eax
0000CAAC  101E              adc [esi],bl
0000CAAE  0100              add [eax],eax
0000CAB0  101E              adc [esi],bl
0000CAB2  0100              add [eax],eax
0000CAB4  101E              adc [esi],bl
0000CAB6  0100              add [eax],eax
0000CAB8  101E              adc [esi],bl
0000CABA  0100              add [eax],eax
0000CABC  101E              adc [esi],bl
0000CABE  0100              add [eax],eax
0000CAC0  101E              adc [esi],bl
0000CAC2  0100              add [eax],eax
0000CAC4  101E              adc [esi],bl
0000CAC6  0100              add [eax],eax
0000CAC8  101E              adc [esi],bl
0000CACA  0100              add [eax],eax
0000CACC  101E              adc [esi],bl
0000CACE  0100              add [eax],eax
0000CAD0  101E              adc [esi],bl
0000CAD2  0100              add [eax],eax
0000CAD4  101E              adc [esi],bl
0000CAD6  0100              add [eax],eax
0000CAD8  101E              adc [esi],bl
0000CADA  0100              add [eax],eax
0000CADC  101E              adc [esi],bl
0000CADE  0100              add [eax],eax
0000CAE0  101E              adc [esi],bl
0000CAE2  0100              add [eax],eax
0000CAE4  101E              adc [esi],bl
0000CAE6  0100              add [eax],eax
0000CAE8  101E              adc [esi],bl
0000CAEA  0100              add [eax],eax
0000CAEC  101E              adc [esi],bl
0000CAEE  0100              add [eax],eax
0000CAF0  101E              adc [esi],bl
0000CAF2  0100              add [eax],eax
0000CAF4  101E              adc [esi],bl
0000CAF6  0100              add [eax],eax
0000CAF8  101E              adc [esi],bl
0000CAFA  0100              add [eax],eax
0000CAFC  101E              adc [esi],bl
0000CAFE  0100              add [eax],eax
0000CB00  101E              adc [esi],bl
0000CB02  0100              add [eax],eax
0000CB04  101E              adc [esi],bl
0000CB06  0100              add [eax],eax
0000CB08  101E              adc [esi],bl
0000CB0A  0100              add [eax],eax
0000CB0C  101E              adc [esi],bl
0000CB0E  0100              add [eax],eax
0000CB10  101E              adc [esi],bl
0000CB12  0100              add [eax],eax
0000CB14  101E              adc [esi],bl
0000CB16  0100              add [eax],eax
0000CB18  101E              adc [esi],bl
0000CB1A  0100              add [eax],eax
0000CB1C  101E              adc [esi],bl
0000CB1E  0100              add [eax],eax
0000CB20  101E              adc [esi],bl
0000CB22  0100              add [eax],eax
0000CB24  101E              adc [esi],bl
0000CB26  0100              add [eax],eax
0000CB28  101E              adc [esi],bl
0000CB2A  0100              add [eax],eax
0000CB2C  101E              adc [esi],bl
0000CB2E  0100              add [eax],eax
0000CB30  101E              adc [esi],bl
0000CB32  0100              add [eax],eax
0000CB34  101E              adc [esi],bl
0000CB36  0100              add [eax],eax
0000CB38  101E              adc [esi],bl
0000CB3A  0100              add [eax],eax
0000CB3C  101E              adc [esi],bl
0000CB3E  0100              add [eax],eax
0000CB40  101E              adc [esi],bl
0000CB42  0100              add [eax],eax
0000CB44  101E              adc [esi],bl
0000CB46  0100              add [eax],eax
0000CB48  101E              adc [esi],bl
0000CB4A  0100              add [eax],eax
0000CB4C  101E              adc [esi],bl
0000CB4E  0100              add [eax],eax
0000CB50  101E              adc [esi],bl
0000CB52  0100              add [eax],eax
0000CB54  101E              adc [esi],bl
0000CB56  0100              add [eax],eax
0000CB58  101E              adc [esi],bl
0000CB5A  0100              add [eax],eax
0000CB5C  101E              adc [esi],bl
0000CB5E  0100              add [eax],eax
0000CB60  101E              adc [esi],bl
0000CB62  0100              add [eax],eax
0000CB64  101E              adc [esi],bl
0000CB66  0100              add [eax],eax
0000CB68  101E              adc [esi],bl
0000CB6A  0100              add [eax],eax
0000CB6C  101E              adc [esi],bl
0000CB6E  0100              add [eax],eax
0000CB70  101E              adc [esi],bl
0000CB72  0100              add [eax],eax
0000CB74  101E              adc [esi],bl
0000CB76  0100              add [eax],eax
0000CB78  101E              adc [esi],bl
0000CB7A  0100              add [eax],eax
0000CB7C  101E              adc [esi],bl
0000CB7E  0100              add [eax],eax
0000CB80  101E              adc [esi],bl
0000CB82  0100              add [eax],eax
0000CB84  101E              adc [esi],bl
0000CB86  0100              add [eax],eax
0000CB88  101E              adc [esi],bl
0000CB8A  0100              add [eax],eax
0000CB8C  101E              adc [esi],bl
0000CB8E  0100              add [eax],eax
0000CB90  101E              adc [esi],bl
0000CB92  0100              add [eax],eax
0000CB94  101E              adc [esi],bl
0000CB96  0100              add [eax],eax
0000CB98  101E              adc [esi],bl
0000CB9A  0100              add [eax],eax
0000CB9C  101E              adc [esi],bl
0000CB9E  0100              add [eax],eax
0000CBA0  101E              adc [esi],bl
0000CBA2  0100              add [eax],eax
0000CBA4  101E              adc [esi],bl
0000CBA6  0100              add [eax],eax
0000CBA8  101E              adc [esi],bl
0000CBAA  0100              add [eax],eax
0000CBAC  101E              adc [esi],bl
0000CBAE  0100              add [eax],eax
0000CBB0  101E              adc [esi],bl
0000CBB2  0100              add [eax],eax
0000CBB4  101E              adc [esi],bl
0000CBB6  0100              add [eax],eax
0000CBB8  101E              adc [esi],bl
0000CBBA  0100              add [eax],eax
0000CBBC  101E              adc [esi],bl
0000CBBE  0100              add [eax],eax
0000CBC0  101E              adc [esi],bl
0000CBC2  0100              add [eax],eax
0000CBC4  101E              adc [esi],bl
0000CBC6  0100              add [eax],eax
0000CBC8  101E              adc [esi],bl
0000CBCA  0100              add [eax],eax
0000CBCC  101E              adc [esi],bl
0000CBCE  0100              add [eax],eax
0000CBD0  101E              adc [esi],bl
0000CBD2  0100              add [eax],eax
0000CBD4  101E              adc [esi],bl
0000CBD6  0100              add [eax],eax
0000CBD8  101E              adc [esi],bl
0000CBDA  0100              add [eax],eax
0000CBDC  101E              adc [esi],bl
0000CBDE  0100              add [eax],eax
0000CBE0  101E              adc [esi],bl
0000CBE2  0100              add [eax],eax
0000CBE4  101E              adc [esi],bl
0000CBE6  0100              add [eax],eax
0000CBE8  101E              adc [esi],bl
0000CBEA  0100              add [eax],eax
0000CBEC  101E              adc [esi],bl
0000CBEE  0100              add [eax],eax
0000CBF0  101E              adc [esi],bl
0000CBF2  0100              add [eax],eax
0000CBF4  101E              adc [esi],bl
0000CBF6  0100              add [eax],eax
0000CBF8  101E              adc [esi],bl
0000CBFA  0100              add [eax],eax
0000CBFC  101E              adc [esi],bl
0000CBFE  0100              add [eax],eax
0000CC00  101E              adc [esi],bl
0000CC02  0100              add [eax],eax
0000CC04  101E              adc [esi],bl
0000CC06  0100              add [eax],eax
0000CC08  101E              adc [esi],bl
0000CC0A  0100              add [eax],eax
0000CC0C  101E              adc [esi],bl
0000CC0E  0100              add [eax],eax
0000CC10  101E              adc [esi],bl
0000CC12  0100              add [eax],eax
0000CC14  101E              adc [esi],bl
0000CC16  0100              add [eax],eax
0000CC18  101E              adc [esi],bl
0000CC1A  0100              add [eax],eax
0000CC1C  101E              adc [esi],bl
0000CC1E  0100              add [eax],eax
0000CC20  101E              adc [esi],bl
0000CC22  0100              add [eax],eax
0000CC24  101E              adc [esi],bl
0000CC26  0100              add [eax],eax
0000CC28  101E              adc [esi],bl
0000CC2A  0100              add [eax],eax
0000CC2C  101E              adc [esi],bl
0000CC2E  0100              add [eax],eax
0000CC30  101E              adc [esi],bl
0000CC32  0100              add [eax],eax
0000CC34  101E              adc [esi],bl
0000CC36  0100              add [eax],eax
0000CC38  101E              adc [esi],bl
0000CC3A  0100              add [eax],eax
0000CC3C  101E              adc [esi],bl
0000CC3E  0100              add [eax],eax
0000CC40  101E              adc [esi],bl
0000CC42  0100              add [eax],eax
0000CC44  101E              adc [esi],bl
0000CC46  0100              add [eax],eax
0000CC48  101E              adc [esi],bl
0000CC4A  0100              add [eax],eax
0000CC4C  101E              adc [esi],bl
0000CC4E  0100              add [eax],eax
0000CC50  101E              adc [esi],bl
0000CC52  0100              add [eax],eax
0000CC54  101E              adc [esi],bl
0000CC56  0100              add [eax],eax
0000CC58  101E              adc [esi],bl
0000CC5A  0100              add [eax],eax
0000CC5C  101E              adc [esi],bl
0000CC5E  0100              add [eax],eax
0000CC60  101E              adc [esi],bl
0000CC62  0100              add [eax],eax
0000CC64  101E              adc [esi],bl
0000CC66  0100              add [eax],eax
0000CC68  101E              adc [esi],bl
0000CC6A  0100              add [eax],eax
0000CC6C  101E              adc [esi],bl
0000CC6E  0100              add [eax],eax
0000CC70  101E              adc [esi],bl
0000CC72  0100              add [eax],eax
0000CC74  101E              adc [esi],bl
0000CC76  0100              add [eax],eax
0000CC78  101E              adc [esi],bl
0000CC7A  0100              add [eax],eax
0000CC7C  101E              adc [esi],bl
0000CC7E  0100              add [eax],eax
0000CC80  101E              adc [esi],bl
0000CC82  0100              add [eax],eax
0000CC84  101E              adc [esi],bl
0000CC86  0100              add [eax],eax
0000CC88  101E              adc [esi],bl
0000CC8A  0100              add [eax],eax
0000CC8C  101E              adc [esi],bl
0000CC8E  0100              add [eax],eax
0000CC90  101E              adc [esi],bl
0000CC92  0100              add [eax],eax
0000CC94  101E              adc [esi],bl
0000CC96  0100              add [eax],eax
0000CC98  101E              adc [esi],bl
0000CC9A  0100              add [eax],eax
0000CC9C  101E              adc [esi],bl
0000CC9E  0100              add [eax],eax
0000CCA0  F21F              repne pop ds
0000CCA2  0100              add [eax],eax
0000CCA4  0F0000            sldt [eax]
0000CCA7  0000              add [eax],al
0000CCA9  800B00            or byte [ebx],0x0
0000CCAC  0020              add [eax],ah
0000CCAE  0000              add [eax],al
0000CCB0  0000              add [eax],al
0000CCB2  2000              and [eax],al
0000CCB4  0010              add [eax],dl
0000CCB6  0000              add [eax],al
0000CCB8  0000              add [eax],al
0000CCBA  3000              xor [eax],al
0000CCBC  0000              add [eax],al
0000CCBE  0000              add [eax],al
0000CCC0  0020              add [eax],ah
0000CCC2  2020              and [eax],ah
0000CCC4  2020              and [eax],ah
0000CCC6  2020              and [eax],ah
0000CCC8  2020              and [eax],ah
0000CCCA  2000              and [eax],al
0000CCCC  0000              add [eax],al
0000CCCE  0000              add [eax],al
0000CCD0  0000              add [eax],al
0000CCD2  0000              add [eax],al
0000CCD4  0000              add [eax],al
0000CCD6  0000              add [eax],al
0000CCD8  0000              add [eax],al
0000CCDA  0000              add [eax],al
0000CCDC  0000              add [eax],al
0000CCDE  0000              add [eax],al
0000CCE0  0200              add al,[eax]
0000CCE2  0000              add [eax],al
0000CCE4  0100              add [eax],eax
0000CCE6  0000              add [eax],al
0000CCE8  0000              add [eax],al
0000CCEA  0000              add [eax],al
0000CCEC  0000              add [eax],al
0000CCEE  0000              add [eax],al
0000CCF0  0000              add [eax],al
0000CCF2  0000              add [eax],al
0000CCF4  0000              add [eax],al
0000CCF6  0000              add [eax],al
0000CCF8  0000              add [eax],al
0000CCFA  0000              add [eax],al
0000CCFC  0000              add [eax],al
0000CCFE  0000              add [eax],al
0000CD00  0000              add [eax],al
0000CD02  0000              add [eax],al
0000CD04  0000              add [eax],al
0000CD06  0000              add [eax],al
0000CD08  0000              add [eax],al
0000CD0A  0000              add [eax],al
0000CD0C  0000              add [eax],al
0000CD0E  0000              add [eax],al
0000CD10  0000              add [eax],al
0000CD12  0000              add [eax],al
0000CD14  0000              add [eax],al
0000CD16  0000              add [eax],al
0000CD18  0000              add [eax],al
0000CD1A  0000              add [eax],al
0000CD1C  0000              add [eax],al
0000CD1E  0000              add [eax],al
0000CD20  0000              add [eax],al
0000CD22  0000              add [eax],al
0000CD24  0000              add [eax],al
0000CD26  0000              add [eax],al
0000CD28  0000              add [eax],al
0000CD2A  0000              add [eax],al
0000CD2C  0000              add [eax],al
0000CD2E  0000              add [eax],al
0000CD30  0000              add [eax],al
0000CD32  0000              add [eax],al
0000CD34  0000              add [eax],al
0000CD36  0000              add [eax],al
0000CD38  0000              add [eax],al
0000CD3A  0000              add [eax],al
0000CD3C  0000              add [eax],al
0000CD3E  0000              add [eax],al
0000CD40  0000              add [eax],al
0000CD42  0000              add [eax],al
0000CD44  0000              add [eax],al
0000CD46  0000              add [eax],al
0000CD48  0000              add [eax],al
0000CD4A  0000              add [eax],al
0000CD4C  0000              add [eax],al
0000CD4E  0000              add [eax],al
0000CD50  0000              add [eax],al
0000CD52  0000              add [eax],al
0000CD54  0000              add [eax],al
0000CD56  0000              add [eax],al
0000CD58  0000              add [eax],al
0000CD5A  0000              add [eax],al
0000CD5C  0000              add [eax],al
0000CD5E  0000              add [eax],al
0000CD60  0000              add [eax],al
0000CD62  0000              add [eax],al
0000CD64  0000              add [eax],al
0000CD66  0000              add [eax],al
0000CD68  0000              add [eax],al
0000CD6A  0000              add [eax],al
0000CD6C  0000              add [eax],al
0000CD6E  0000              add [eax],al
0000CD70  0000              add [eax],al
0000CD72  0000              add [eax],al
0000CD74  0200              add al,[eax]
0000CD76  0000              add [eax],al
0000CD78  0100              add [eax],eax
0000CD7A  0000              add [eax],al
0000CD7C  0000              add [eax],al
0000CD7E  0000              add [eax],al
0000CD80  0000              add [eax],al
0000CD82  0000              add [eax],al
0000CD84  0000              add [eax],al
0000CD86  0000              add [eax],al
0000CD88  0000              add [eax],al
0000CD8A  0000              add [eax],al
0000CD8C  0000              add [eax],al
0000CD8E  0000              add [eax],al
0000CD90  0000              add [eax],al
0000CD92  0000              add [eax],al
0000CD94  0000              add [eax],al
0000CD96  0000              add [eax],al
0000CD98  0000              add [eax],al
0000CD9A  0000              add [eax],al
0000CD9C  0000              add [eax],al
0000CD9E  0000              add [eax],al
0000CDA0  0000              add [eax],al
0000CDA2  0000              add [eax],al
0000CDA4  0000              add [eax],al
0000CDA6  0000              add [eax],al
0000CDA8  0000              add [eax],al
0000CDAA  0000              add [eax],al
0000CDAC  0000              add [eax],al
0000CDAE  0000              add [eax],al
0000CDB0  0000              add [eax],al
0000CDB2  0000              add [eax],al
0000CDB4  0000              add [eax],al
0000CDB6  0000              add [eax],al
0000CDB8  0000              add [eax],al
0000CDBA  0000              add [eax],al
0000CDBC  0000              add [eax],al
0000CDBE  0000              add [eax],al
0000CDC0  0000              add [eax],al
0000CDC2  0000              add [eax],al
0000CDC4  0000              add [eax],al
0000CDC6  0000              add [eax],al
0000CDC8  0000              add [eax],al
0000CDCA  0000              add [eax],al
0000CDCC  0000              add [eax],al
0000CDCE  0000              add [eax],al
0000CDD0  0000              add [eax],al
0000CDD2  0000              add [eax],al
0000CDD4  0000              add [eax],al
0000CDD6  0000              add [eax],al
0000CDD8  0000              add [eax],al
0000CDDA  0000              add [eax],al
0000CDDC  0000              add [eax],al
0000CDDE  0000              add [eax],al
0000CDE0  0000              add [eax],al
0000CDE2  0000              add [eax],al
0000CDE4  0000              add [eax],al
0000CDE6  0000              add [eax],al
0000CDE8  0000              add [eax],al
0000CDEA  0000              add [eax],al
0000CDEC  0000              add [eax],al
0000CDEE  0000              add [eax],al
0000CDF0  0000              add [eax],al
0000CDF2  0000              add [eax],al
0000CDF4  0000              add [eax],al
0000CDF6  0000              add [eax],al
0000CDF8  0000              add [eax],al
0000CDFA  0000              add [eax],al
0000CDFC  0000              add [eax],al
0000CDFE  0000              add [eax],al
0000CE00  0000              add [eax],al
0000CE02  0000              add [eax],al
0000CE04  0000              add [eax],al
0000CE06  0000              add [eax],al
0000CE08  0000              add [eax],al
0000CE0A  0000              add [eax],al
0000CE0C  0000              add [eax],al
0000CE0E  0000              add [eax],al
0000CE10  0000              add [eax],al
0000CE12  0000              add [eax],al
0000CE14  0000              add [eax],al
0000CE16  0000              add [eax],al
0000CE18  0000              add [eax],al
0000CE1A  0000              add [eax],al
0000CE1C  0000              add [eax],al
0000CE1E  0000              add [eax],al
0000CE20  0000              add [eax],al
0000CE22  0000              add [eax],al
0000CE24  0000              add [eax],al
0000CE26  0000              add [eax],al
0000CE28  0000              add [eax],al
0000CE2A  0000              add [eax],al
0000CE2C  0000              add [eax],al
0000CE2E  0000              add [eax],al
0000CE30  0000              add [eax],al
0000CE32  0000              add [eax],al
0000CE34  0000              add [eax],al
0000CE36  0000              add [eax],al
0000CE38  0000              add [eax],al
0000CE3A  0000              add [eax],al
0000CE3C  0000              add [eax],al
0000CE3E  0000              add [eax],al
0000CE40  0000              add [eax],al
0000CE42  0000              add [eax],al
0000CE44  0000              add [eax],al
0000CE46  0000              add [eax],al
0000CE48  0000              add [eax],al
0000CE4A  0000              add [eax],al
0000CE4C  0000              add [eax],al
0000CE4E  0000              add [eax],al
0000CE50  0000              add [eax],al
0000CE52  0000              add [eax],al
0000CE54  0000              add [eax],al
0000CE56  0000              add [eax],al
0000CE58  0000              add [eax],al
0000CE5A  0000              add [eax],al
0000CE5C  0000              add [eax],al
0000CE5E  0000              add [eax],al
0000CE60  0000              add [eax],al
0000CE62  0000              add [eax],al
0000CE64  0000              add [eax],al
0000CE66  0000              add [eax],al
0000CE68  0000              add [eax],al
0000CE6A  0000              add [eax],al
0000CE6C  0000              add [eax],al
0000CE6E  0000              add [eax],al
0000CE70  0000              add [eax],al
0000CE72  0000              add [eax],al
0000CE74  0000              add [eax],al
0000CE76  0000              add [eax],al
0000CE78  0000              add [eax],al
0000CE7A  0000              add [eax],al
0000CE7C  0000              add [eax],al
0000CE7E  0000              add [eax],al
0000CE80  0000              add [eax],al
0000CE82  0000              add [eax],al
0000CE84  0000              add [eax],al
0000CE86  0000              add [eax],al
0000CE88  0000              add [eax],al
0000CE8A  0000              add [eax],al
0000CE8C  0000              add [eax],al
0000CE8E  0000              add [eax],al
0000CE90  0000              add [eax],al
0000CE92  0000              add [eax],al
0000CE94  0000              add [eax],al
0000CE96  0000              add [eax],al
0000CE98  0000              add [eax],al
0000CE9A  0000              add [eax],al
0000CE9C  0000              add [eax],al
0000CE9E  0000              add [eax],al
0000CEA0  0000              add [eax],al
0000CEA2  0000              add [eax],al
0000CEA4  0000              add [eax],al
0000CEA6  0000              add [eax],al
0000CEA8  0000              add [eax],al
0000CEAA  0000              add [eax],al
0000CEAC  0000              add [eax],al
0000CEAE  0000              add [eax],al
0000CEB0  0000              add [eax],al
0000CEB2  0000              add [eax],al
0000CEB4  0000              add [eax],al
0000CEB6  0000              add [eax],al
0000CEB8  0000              add [eax],al
0000CEBA  0000              add [eax],al
0000CEBC  0000              add [eax],al
0000CEBE  0000              add [eax],al
0000CEC0  0000              add [eax],al
0000CEC2  0000              add [eax],al
0000CEC4  0000              add [eax],al
0000CEC6  0000              add [eax],al
0000CEC8  0000              add [eax],al
0000CECA  0000              add [eax],al
0000CECC  0000              add [eax],al
0000CECE  0000              add [eax],al
0000CED0  0000              add [eax],al
0000CED2  0000              add [eax],al
0000CED4  0000              add [eax],al
0000CED6  0000              add [eax],al
0000CED8  0000              add [eax],al
0000CEDA  0000              add [eax],al
0000CEDC  0000              add [eax],al
0000CEDE  0000              add [eax],al
0000CEE0  0000              add [eax],al
0000CEE2  0000              add [eax],al
0000CEE4  0000              add [eax],al
0000CEE6  0000              add [eax],al
0000CEE8  0000              add [eax],al
0000CEEA  0000              add [eax],al
0000CEEC  0000              add [eax],al
0000CEEE  0000              add [eax],al
0000CEF0  0000              add [eax],al
0000CEF2  0000              add [eax],al
0000CEF4  0000              add [eax],al
0000CEF6  0000              add [eax],al
0000CEF8  0000              add [eax],al
0000CEFA  0000              add [eax],al
0000CEFC  0000              add [eax],al
0000CEFE  0000              add [eax],al
0000CF00  0000              add [eax],al
0000CF02  0000              add [eax],al
0000CF04  0000              add [eax],al
0000CF06  0000              add [eax],al
0000CF08  0000              add [eax],al
0000CF0A  0000              add [eax],al
0000CF0C  0000              add [eax],al
0000CF0E  0000              add [eax],al
0000CF10  0000              add [eax],al
0000CF12  0000              add [eax],al
0000CF14  0000              add [eax],al
0000CF16  0000              add [eax],al
0000CF18  0000              add [eax],al
0000CF1A  0000              add [eax],al
0000CF1C  0000              add [eax],al
0000CF1E  0000              add [eax],al
0000CF20  0000              add [eax],al
0000CF22  0000              add [eax],al
0000CF24  0000              add [eax],al
0000CF26  0000              add [eax],al
0000CF28  0000              add [eax],al
0000CF2A  0000              add [eax],al
0000CF2C  0000              add [eax],al
0000CF2E  0000              add [eax],al
0000CF30  0000              add [eax],al
0000CF32  0000              add [eax],al
0000CF34  0000              add [eax],al
0000CF36  0000              add [eax],al
0000CF38  0000              add [eax],al
0000CF3A  0000              add [eax],al
0000CF3C  0000              add [eax],al
0000CF3E  0000              add [eax],al
0000CF40  0000              add [eax],al
0000CF42  0000              add [eax],al
0000CF44  0000              add [eax],al
0000CF46  0000              add [eax],al
0000CF48  0000              add [eax],al
0000CF4A  0000              add [eax],al
0000CF4C  0000              add [eax],al
0000CF4E  0000              add [eax],al
0000CF50  0000              add [eax],al
0000CF52  0000              add [eax],al
0000CF54  0000              add [eax],al
0000CF56  0000              add [eax],al
0000CF58  0000              add [eax],al
0000CF5A  0000              add [eax],al
0000CF5C  0000              add [eax],al
0000CF5E  0000              add [eax],al
0000CF60  0000              add [eax],al
0000CF62  0000              add [eax],al
0000CF64  0000              add [eax],al
0000CF66  0000              add [eax],al
0000CF68  0000              add [eax],al
0000CF6A  0000              add [eax],al
0000CF6C  0000              add [eax],al
0000CF6E  0000              add [eax],al
0000CF70  0000              add [eax],al
0000CF72  0000              add [eax],al
0000CF74  0000              add [eax],al
0000CF76  0000              add [eax],al
0000CF78  0000              add [eax],al
0000CF7A  0000              add [eax],al
0000CF7C  0000              add [eax],al
0000CF7E  0000              add [eax],al
0000CF80  0000              add [eax],al
0000CF82  0000              add [eax],al
0000CF84  0000              add [eax],al
0000CF86  0000              add [eax],al
0000CF88  0000              add [eax],al
0000CF8A  0000              add [eax],al
0000CF8C  0000              add [eax],al
0000CF8E  0000              add [eax],al
0000CF90  0000              add [eax],al
0000CF92  0000              add [eax],al
0000CF94  0000              add [eax],al
0000CF96  0000              add [eax],al
0000CF98  0000              add [eax],al
0000CF9A  0000              add [eax],al
0000CF9C  0000              add [eax],al
0000CF9E  0000              add [eax],al
0000CFA0  0000              add [eax],al
0000CFA2  0000              add [eax],al
0000CFA4  0000              add [eax],al
0000CFA6  0000              add [eax],al
0000CFA8  0000              add [eax],al
0000CFAA  0000              add [eax],al
0000CFAC  0000              add [eax],al
0000CFAE  0000              add [eax],al
0000CFB0  0000              add [eax],al
0000CFB2  0000              add [eax],al
0000CFB4  0000              add [eax],al
0000CFB6  0000              add [eax],al
0000CFB8  0000              add [eax],al
0000CFBA  0000              add [eax],al
0000CFBC  0000              add [eax],al
0000CFBE  0000              add [eax],al
0000CFC0  0000              add [eax],al
0000CFC2  0000              add [eax],al
0000CFC4  0000              add [eax],al
0000CFC6  0000              add [eax],al
0000CFC8  0000              add [eax],al
0000CFCA  0000              add [eax],al
0000CFCC  0000              add [eax],al
0000CFCE  0000              add [eax],al
0000CFD0  0000              add [eax],al
0000CFD2  0000              add [eax],al
0000CFD4  0000              add [eax],al
0000CFD6  0000              add [eax],al
0000CFD8  0000              add [eax],al
0000CFDA  0000              add [eax],al
0000CFDC  0000              add [eax],al
0000CFDE  0000              add [eax],al
0000CFE0  0000              add [eax],al
0000CFE2  0000              add [eax],al
0000CFE4  0000              add [eax],al
0000CFE6  0000              add [eax],al
0000CFE8  0000              add [eax],al
0000CFEA  0000              add [eax],al
0000CFEC  0000              add [eax],al
0000CFEE  0000              add [eax],al
0000CFF0  0000              add [eax],al
0000CFF2  0000              add [eax],al
0000CFF4  0000              add [eax],al
0000CFF6  0000              add [eax],al
0000CFF8  0000              add [eax],al
0000CFFA  0000              add [eax],al
0000CFFC  0000              add [eax],al
0000CFFE  0000              add [eax],al
0000D000  0000              add [eax],al
0000D002  0000              add [eax],al
0000D004  0000              add [eax],al
0000D006  0000              add [eax],al
0000D008  0000              add [eax],al
0000D00A  0000              add [eax],al
0000D00C  0000              add [eax],al
0000D00E  0000              add [eax],al
0000D010  0000              add [eax],al
0000D012  0000              add [eax],al
0000D014  0000              add [eax],al
0000D016  0000              add [eax],al
0000D018  0000              add [eax],al
0000D01A  0000              add [eax],al
0000D01C  0000              add [eax],al
0000D01E  0000              add [eax],al
0000D020  0000              add [eax],al
0000D022  0000              add [eax],al
0000D024  0000              add [eax],al
0000D026  0000              add [eax],al
0000D028  0000              add [eax],al
0000D02A  0000              add [eax],al
0000D02C  0000              add [eax],al
0000D02E  0000              add [eax],al
0000D030  0000              add [eax],al
0000D032  0000              add [eax],al
0000D034  0000              add [eax],al
0000D036  0000              add [eax],al
0000D038  0000              add [eax],al
0000D03A  0000              add [eax],al
0000D03C  0000              add [eax],al
0000D03E  0000              add [eax],al
0000D040  0000              add [eax],al
0000D042  0000              add [eax],al
0000D044  0000              add [eax],al
0000D046  0000              add [eax],al
0000D048  0000              add [eax],al
0000D04A  0000              add [eax],al
0000D04C  0000              add [eax],al
0000D04E  0000              add [eax],al
0000D050  0000              add [eax],al
0000D052  0000              add [eax],al
0000D054  0000              add [eax],al
0000D056  0000              add [eax],al
0000D058  0000              add [eax],al
0000D05A  0000              add [eax],al
0000D05C  0000              add [eax],al
0000D05E  0000              add [eax],al
0000D060  0000              add [eax],al
0000D062  0000              add [eax],al
0000D064  0000              add [eax],al
0000D066  0000              add [eax],al
0000D068  0000              add [eax],al
0000D06A  0000              add [eax],al
0000D06C  0000              add [eax],al
0000D06E  0000              add [eax],al
0000D070  0000              add [eax],al
0000D072  0000              add [eax],al
0000D074  0000              add [eax],al
0000D076  0000              add [eax],al
0000D078  0000              add [eax],al
0000D07A  0000              add [eax],al
0000D07C  0000              add [eax],al
0000D07E  0000              add [eax],al
0000D080  0000              add [eax],al
0000D082  0000              add [eax],al
0000D084  0000              add [eax],al
0000D086  0000              add [eax],al
0000D088  0000              add [eax],al
0000D08A  0000              add [eax],al
0000D08C  0000              add [eax],al
0000D08E  0000              add [eax],al
0000D090  0000              add [eax],al
0000D092  0000              add [eax],al
0000D094  0000              add [eax],al
0000D096  0000              add [eax],al
0000D098  0000              add [eax],al
0000D09A  0000              add [eax],al
0000D09C  0000              add [eax],al
0000D09E  0000              add [eax],al
0000D0A0  0000              add [eax],al
0000D0A2  0000              add [eax],al
0000D0A4  0000              add [eax],al
0000D0A6  0000              add [eax],al
0000D0A8  0000              add [eax],al
0000D0AA  0000              add [eax],al
0000D0AC  0000              add [eax],al
0000D0AE  0000              add [eax],al
0000D0B0  0000              add [eax],al
0000D0B2  0000              add [eax],al
0000D0B4  0000              add [eax],al
0000D0B6  0000              add [eax],al
0000D0B8  0000              add [eax],al
0000D0BA  0000              add [eax],al
0000D0BC  0000              add [eax],al
0000D0BE  0000              add [eax],al
0000D0C0  0000              add [eax],al
0000D0C2  0000              add [eax],al
0000D0C4  0000              add [eax],al
0000D0C6  0000              add [eax],al
0000D0C8  0000              add [eax],al
0000D0CA  0000              add [eax],al
0000D0CC  0000              add [eax],al
0000D0CE  0000              add [eax],al
0000D0D0  0000              add [eax],al
0000D0D2  0000              add [eax],al
0000D0D4  0000              add [eax],al
0000D0D6  0000              add [eax],al
0000D0D8  0000              add [eax],al
0000D0DA  0000              add [eax],al
0000D0DC  0000              add [eax],al
0000D0DE  0000              add [eax],al
0000D0E0  0000              add [eax],al
0000D0E2  0000              add [eax],al
0000D0E4  0000              add [eax],al
0000D0E6  0000              add [eax],al
0000D0E8  0000              add [eax],al
0000D0EA  0000              add [eax],al
0000D0EC  0000              add [eax],al
0000D0EE  0000              add [eax],al
0000D0F0  0000              add [eax],al
0000D0F2  0000              add [eax],al
0000D0F4  0000              add [eax],al
0000D0F6  0000              add [eax],al
0000D0F8  0000              add [eax],al
0000D0FA  0000              add [eax],al
0000D0FC  0000              add [eax],al
0000D0FE  0000              add [eax],al
0000D100  0000              add [eax],al
0000D102  0000              add [eax],al
0000D104  0000              add [eax],al
0000D106  0000              add [eax],al
0000D108  0000              add [eax],al
0000D10A  0000              add [eax],al
0000D10C  0000              add [eax],al
0000D10E  0000              add [eax],al
0000D110  0000              add [eax],al
0000D112  0000              add [eax],al
0000D114  0000              add [eax],al
0000D116  0000              add [eax],al
0000D118  0000              add [eax],al
0000D11A  0000              add [eax],al
0000D11C  0000              add [eax],al
0000D11E  0000              add [eax],al
0000D120  0000              add [eax],al
0000D122  0000              add [eax],al
0000D124  0000              add [eax],al
0000D126  0000              add [eax],al
0000D128  0000              add [eax],al
0000D12A  0000              add [eax],al
0000D12C  0000              add [eax],al
0000D12E  0000              add [eax],al
0000D130  0000              add [eax],al
0000D132  0000              add [eax],al
0000D134  0000              add [eax],al
0000D136  0000              add [eax],al
0000D138  0000              add [eax],al
0000D13A  0000              add [eax],al
0000D13C  0000              add [eax],al
0000D13E  0000              add [eax],al
0000D140  0000              add [eax],al
0000D142  0000              add [eax],al
0000D144  0000              add [eax],al
0000D146  0000              add [eax],al
0000D148  0000              add [eax],al
0000D14A  0000              add [eax],al
0000D14C  0000              add [eax],al
0000D14E  0000              add [eax],al
0000D150  0000              add [eax],al
0000D152  0000              add [eax],al
0000D154  0000              add [eax],al
0000D156  0000              add [eax],al
0000D158  0000              add [eax],al
0000D15A  0000              add [eax],al
0000D15C  0000              add [eax],al
0000D15E  0000              add [eax],al
0000D160  0000              add [eax],al
0000D162  0000              add [eax],al
0000D164  0000              add [eax],al
0000D166  0000              add [eax],al
0000D168  0000              add [eax],al
0000D16A  0000              add [eax],al
0000D16C  0000              add [eax],al
0000D16E  0000              add [eax],al
0000D170  0000              add [eax],al
0000D172  0000              add [eax],al
0000D174  0000              add [eax],al
0000D176  0000              add [eax],al
0000D178  0000              add [eax],al
0000D17A  0000              add [eax],al
0000D17C  0000              add [eax],al
0000D17E  0000              add [eax],al
0000D180  0000              add [eax],al
0000D182  0000              add [eax],al
0000D184  0000              add [eax],al
0000D186  0000              add [eax],al
0000D188  0000              add [eax],al
0000D18A  0000              add [eax],al
0000D18C  0000              add [eax],al
0000D18E  0000              add [eax],al
0000D190  0000              add [eax],al
0000D192  0000              add [eax],al
0000D194  0000              add [eax],al
0000D196  0000              add [eax],al
0000D198  0000              add [eax],al
0000D19A  0000              add [eax],al
0000D19C  0000              add [eax],al
0000D19E  0000              add [eax],al
0000D1A0  0000              add [eax],al
0000D1A2  0000              add [eax],al
0000D1A4  0000              add [eax],al
0000D1A6  0000              add [eax],al
0000D1A8  0000              add [eax],al
0000D1AA  0000              add [eax],al
0000D1AC  0000              add [eax],al
0000D1AE  0000              add [eax],al
0000D1B0  0000              add [eax],al
0000D1B2  0000              add [eax],al
0000D1B4  0000              add [eax],al
0000D1B6  0000              add [eax],al
0000D1B8  0000              add [eax],al
0000D1BA  0000              add [eax],al
0000D1BC  0000              add [eax],al
0000D1BE  0000              add [eax],al
0000D1C0  0000              add [eax],al
0000D1C2  0000              add [eax],al
0000D1C4  0000              add [eax],al
0000D1C6  0000              add [eax],al
0000D1C8  0000              add [eax],al
0000D1CA  0000              add [eax],al
0000D1CC  0000              add [eax],al
0000D1CE  0000              add [eax],al
0000D1D0  0000              add [eax],al
0000D1D2  0000              add [eax],al
0000D1D4  0000              add [eax],al
0000D1D6  0000              add [eax],al
0000D1D8  0000              add [eax],al
0000D1DA  0000              add [eax],al
0000D1DC  0000              add [eax],al
0000D1DE  0000              add [eax],al
0000D1E0  0000              add [eax],al
0000D1E2  0000              add [eax],al
0000D1E4  0000              add [eax],al
0000D1E6  0000              add [eax],al
0000D1E8  0000              add [eax],al
0000D1EA  0000              add [eax],al
0000D1EC  0000              add [eax],al
0000D1EE  0000              add [eax],al
0000D1F0  0000              add [eax],al
0000D1F2  0000              add [eax],al
0000D1F4  0000              add [eax],al
0000D1F6  0000              add [eax],al
0000D1F8  0000              add [eax],al
0000D1FA  0000              add [eax],al
0000D1FC  0000              add [eax],al
0000D1FE  0000              add [eax],al
0000D200  0000              add [eax],al
0000D202  0000              add [eax],al
0000D204  0000              add [eax],al
0000D206  0000              add [eax],al
0000D208  0000              add [eax],al
0000D20A  0000              add [eax],al
0000D20C  0000              add [eax],al
0000D20E  0000              add [eax],al
0000D210  0000              add [eax],al
0000D212  0000              add [eax],al
0000D214  0000              add [eax],al
0000D216  0000              add [eax],al
0000D218  0000              add [eax],al
0000D21A  0000              add [eax],al
0000D21C  0000              add [eax],al
0000D21E  0000              add [eax],al
0000D220  0000              add [eax],al
0000D222  0000              add [eax],al
0000D224  0000              add [eax],al
0000D226  0000              add [eax],al
0000D228  0000              add [eax],al
0000D22A  0000              add [eax],al
0000D22C  0000              add [eax],al
0000D22E  0000              add [eax],al
0000D230  0000              add [eax],al
0000D232  0000              add [eax],al
0000D234  0000              add [eax],al
0000D236  0000              add [eax],al
0000D238  0000              add [eax],al
0000D23A  0000              add [eax],al
0000D23C  0000              add [eax],al
0000D23E  0000              add [eax],al
0000D240  0000              add [eax],al
0000D242  0000              add [eax],al
0000D244  0000              add [eax],al
0000D246  0000              add [eax],al
0000D248  0000              add [eax],al
0000D24A  0000              add [eax],al
0000D24C  0000              add [eax],al
0000D24E  0000              add [eax],al
0000D250  0000              add [eax],al
0000D252  0000              add [eax],al
0000D254  0000              add [eax],al
0000D256  0000              add [eax],al
0000D258  0000              add [eax],al
0000D25A  0000              add [eax],al
0000D25C  0000              add [eax],al
0000D25E  0000              add [eax],al
0000D260  0000              add [eax],al
0000D262  0000              add [eax],al
0000D264  0000              add [eax],al
0000D266  0000              add [eax],al
0000D268  0000              add [eax],al
0000D26A  0000              add [eax],al
0000D26C  0000              add [eax],al
0000D26E  0000              add [eax],al
0000D270  0000              add [eax],al
0000D272  0000              add [eax],al
0000D274  0000              add [eax],al
0000D276  0000              add [eax],al
0000D278  0000              add [eax],al
0000D27A  0000              add [eax],al
0000D27C  0000              add [eax],al
0000D27E  0000              add [eax],al
0000D280  0000              add [eax],al
0000D282  0000              add [eax],al
0000D284  0000              add [eax],al
0000D286  0000              add [eax],al
0000D288  0000              add [eax],al
0000D28A  0000              add [eax],al
0000D28C  0000              add [eax],al
0000D28E  0000              add [eax],al
0000D290  0000              add [eax],al
0000D292  0000              add [eax],al
0000D294  0000              add [eax],al
0000D296  0000              add [eax],al
0000D298  0000              add [eax],al
0000D29A  0000              add [eax],al
0000D29C  0000              add [eax],al
0000D29E  0000              add [eax],al
0000D2A0  0000              add [eax],al
0000D2A2  0000              add [eax],al
0000D2A4  0000              add [eax],al
0000D2A6  0000              add [eax],al
0000D2A8  0000              add [eax],al
0000D2AA  0000              add [eax],al
0000D2AC  0000              add [eax],al
0000D2AE  0000              add [eax],al
0000D2B0  0000              add [eax],al
0000D2B2  0000              add [eax],al
0000D2B4  0000              add [eax],al
0000D2B6  0000              add [eax],al
0000D2B8  0000              add [eax],al
0000D2BA  0000              add [eax],al
0000D2BC  0000              add [eax],al
0000D2BE  0000              add [eax],al
0000D2C0  0000              add [eax],al
0000D2C2  0000              add [eax],al
0000D2C4  0000              add [eax],al
0000D2C6  0000              add [eax],al
0000D2C8  0000              add [eax],al
0000D2CA  0000              add [eax],al
0000D2CC  0000              add [eax],al
0000D2CE  0000              add [eax],al
0000D2D0  0000              add [eax],al
0000D2D2  0000              add [eax],al
0000D2D4  0000              add [eax],al
0000D2D6  0000              add [eax],al
0000D2D8  0000              add [eax],al
0000D2DA  0000              add [eax],al
0000D2DC  0000              add [eax],al
0000D2DE  0000              add [eax],al
0000D2E0  0000              add [eax],al
0000D2E2  0000              add [eax],al
0000D2E4  0000              add [eax],al
0000D2E6  0000              add [eax],al
0000D2E8  0000              add [eax],al
0000D2EA  0000              add [eax],al
0000D2EC  0000              add [eax],al
0000D2EE  0000              add [eax],al
0000D2F0  0000              add [eax],al
0000D2F2  0000              add [eax],al
0000D2F4  0000              add [eax],al
0000D2F6  0000              add [eax],al
0000D2F8  0000              add [eax],al
0000D2FA  0000              add [eax],al
0000D2FC  0000              add [eax],al
0000D2FE  0000              add [eax],al
0000D300  0000              add [eax],al
0000D302  0000              add [eax],al
0000D304  0000              add [eax],al
0000D306  0000              add [eax],al
0000D308  0000              add [eax],al
0000D30A  0000              add [eax],al
0000D30C  0000              add [eax],al
0000D30E  0000              add [eax],al
0000D310  0000              add [eax],al
0000D312  0000              add [eax],al
0000D314  0000              add [eax],al
0000D316  0000              add [eax],al
0000D318  0000              add [eax],al
0000D31A  0000              add [eax],al
0000D31C  0000              add [eax],al
0000D31E  0000              add [eax],al
0000D320  0000              add [eax],al
0000D322  0000              add [eax],al
0000D324  0000              add [eax],al
0000D326  0000              add [eax],al
0000D328  0000              add [eax],al
0000D32A  0000              add [eax],al
0000D32C  0000              add [eax],al
0000D32E  0000              add [eax],al
0000D330  0000              add [eax],al
0000D332  0000              add [eax],al
0000D334  0000              add [eax],al
0000D336  0000              add [eax],al
0000D338  0000              add [eax],al
0000D33A  0000              add [eax],al
0000D33C  0000              add [eax],al
0000D33E  0000              add [eax],al
0000D340  0000              add [eax],al
0000D342  0000              add [eax],al
0000D344  0000              add [eax],al
0000D346  0000              add [eax],al
0000D348  0000              add [eax],al
0000D34A  0000              add [eax],al
0000D34C  0000              add [eax],al
0000D34E  0000              add [eax],al
0000D350  0000              add [eax],al
0000D352  0000              add [eax],al
0000D354  0000              add [eax],al
0000D356  0000              add [eax],al
0000D358  0000              add [eax],al
0000D35A  0000              add [eax],al
0000D35C  0000              add [eax],al
0000D35E  0000              add [eax],al
0000D360  0000              add [eax],al
0000D362  0000              add [eax],al
0000D364  0000              add [eax],al
0000D366  0000              add [eax],al
0000D368  0000              add [eax],al
0000D36A  0000              add [eax],al
0000D36C  0000              add [eax],al
0000D36E  0000              add [eax],al
0000D370  0000              add [eax],al
0000D372  0000              add [eax],al
0000D374  0000              add [eax],al
0000D376  0000              add [eax],al
0000D378  0000              add [eax],al
0000D37A  0000              add [eax],al
0000D37C  0000              add [eax],al
0000D37E  0000              add [eax],al
0000D380  0000              add [eax],al
0000D382  0000              add [eax],al
0000D384  0000              add [eax],al
0000D386  0000              add [eax],al
0000D388  0000              add [eax],al
0000D38A  0000              add [eax],al
0000D38C  0000              add [eax],al
0000D38E  0000              add [eax],al
0000D390  0000              add [eax],al
0000D392  0000              add [eax],al
0000D394  0000              add [eax],al
0000D396  0000              add [eax],al
0000D398  0000              add [eax],al
0000D39A  0000              add [eax],al
0000D39C  0000              add [eax],al
0000D39E  0000              add [eax],al
0000D3A0  0000              add [eax],al
0000D3A2  0000              add [eax],al
0000D3A4  0000              add [eax],al
0000D3A6  0000              add [eax],al
0000D3A8  0000              add [eax],al
0000D3AA  0000              add [eax],al
0000D3AC  0000              add [eax],al
0000D3AE  0000              add [eax],al
0000D3B0  0000              add [eax],al
0000D3B2  0000              add [eax],al
0000D3B4  0000              add [eax],al
0000D3B6  0000              add [eax],al
0000D3B8  0000              add [eax],al
0000D3BA  0000              add [eax],al
0000D3BC  0000              add [eax],al
0000D3BE  0000              add [eax],al
0000D3C0  0000              add [eax],al
0000D3C2  0000              add [eax],al
0000D3C4  0000              add [eax],al
0000D3C6  0000              add [eax],al
0000D3C8  0000              add [eax],al
0000D3CA  0000              add [eax],al
0000D3CC  0000              add [eax],al
0000D3CE  0000              add [eax],al
0000D3D0  0000              add [eax],al
0000D3D2  0000              add [eax],al
0000D3D4  0000              add [eax],al
0000D3D6  0000              add [eax],al
0000D3D8  0000              add [eax],al
0000D3DA  0000              add [eax],al
0000D3DC  0000              add [eax],al
0000D3DE  0000              add [eax],al
0000D3E0  0000              add [eax],al
0000D3E2  0000              add [eax],al
0000D3E4  0000              add [eax],al
0000D3E6  0000              add [eax],al
0000D3E8  0000              add [eax],al
0000D3EA  0000              add [eax],al
0000D3EC  0000              add [eax],al
0000D3EE  0000              add [eax],al
0000D3F0  0000              add [eax],al
0000D3F2  0000              add [eax],al
0000D3F4  0000              add [eax],al
0000D3F6  0000              add [eax],al
0000D3F8  0000              add [eax],al
0000D3FA  0000              add [eax],al
0000D3FC  0000              add [eax],al
0000D3FE  0000              add [eax],al
0000D400  0000              add [eax],al
0000D402  0000              add [eax],al
0000D404  0000              add [eax],al
0000D406  0000              add [eax],al
0000D408  0000              add [eax],al
0000D40A  0000              add [eax],al
0000D40C  0000              add [eax],al
0000D40E  0000              add [eax],al
0000D410  0000              add [eax],al
0000D412  0000              add [eax],al
0000D414  0000              add [eax],al
0000D416  0000              add [eax],al
0000D418  0000              add [eax],al
0000D41A  0000              add [eax],al
0000D41C  0000              add [eax],al
0000D41E  0000              add [eax],al
0000D420  0000              add [eax],al
0000D422  0000              add [eax],al
0000D424  0000              add [eax],al
0000D426  0000              add [eax],al
0000D428  0000              add [eax],al
0000D42A  0000              add [eax],al
0000D42C  0000              add [eax],al
0000D42E  0000              add [eax],al
0000D430  0000              add [eax],al
0000D432  0000              add [eax],al
0000D434  0000              add [eax],al
0000D436  0000              add [eax],al
0000D438  0000              add [eax],al
0000D43A  0000              add [eax],al
0000D43C  0000              add [eax],al
0000D43E  0000              add [eax],al
0000D440  0000              add [eax],al
0000D442  0000              add [eax],al
0000D444  0000              add [eax],al
0000D446  0000              add [eax],al
0000D448  0000              add [eax],al
0000D44A  0000              add [eax],al
0000D44C  0000              add [eax],al
0000D44E  0000              add [eax],al
0000D450  0000              add [eax],al
0000D452  0000              add [eax],al
0000D454  0000              add [eax],al
0000D456  0000              add [eax],al
0000D458  0000              add [eax],al
0000D45A  0000              add [eax],al
0000D45C  0000              add [eax],al
0000D45E  0000              add [eax],al
0000D460  0000              add [eax],al
0000D462  0000              add [eax],al
0000D464  0000              add [eax],al
0000D466  0000              add [eax],al
0000D468  0000              add [eax],al
0000D46A  0000              add [eax],al
0000D46C  0000              add [eax],al
0000D46E  0000              add [eax],al
0000D470  0000              add [eax],al
0000D472  0000              add [eax],al
0000D474  0000              add [eax],al
0000D476  0000              add [eax],al
0000D478  0000              add [eax],al
0000D47A  0000              add [eax],al
0000D47C  0000              add [eax],al
0000D47E  0000              add [eax],al
0000D480  0000              add [eax],al
0000D482  0000              add [eax],al
0000D484  0000              add [eax],al
0000D486  0000              add [eax],al
0000D488  0000              add [eax],al
0000D48A  0000              add [eax],al
0000D48C  0000              add [eax],al
0000D48E  0000              add [eax],al
0000D490  0000              add [eax],al
0000D492  0000              add [eax],al
0000D494  0000              add [eax],al
0000D496  0000              add [eax],al
0000D498  0000              add [eax],al
0000D49A  0000              add [eax],al
0000D49C  0000              add [eax],al
0000D49E  0000              add [eax],al
0000D4A0  0000              add [eax],al
0000D4A2  0000              add [eax],al
0000D4A4  0000              add [eax],al
0000D4A6  0000              add [eax],al
0000D4A8  0000              add [eax],al
0000D4AA  0000              add [eax],al
0000D4AC  0000              add [eax],al
0000D4AE  0000              add [eax],al
0000D4B0  0000              add [eax],al
0000D4B2  0000              add [eax],al
0000D4B4  0000              add [eax],al
0000D4B6  0000              add [eax],al
0000D4B8  0000              add [eax],al
0000D4BA  0000              add [eax],al
0000D4BC  0000              add [eax],al
0000D4BE  0000              add [eax],al
0000D4C0  0000              add [eax],al
0000D4C2  0000              add [eax],al
0000D4C4  0000              add [eax],al
0000D4C6  0000              add [eax],al
0000D4C8  0000              add [eax],al
0000D4CA  0000              add [eax],al
0000D4CC  0000              add [eax],al
0000D4CE  0000              add [eax],al
0000D4D0  0000              add [eax],al
0000D4D2  0000              add [eax],al
0000D4D4  0000              add [eax],al
0000D4D6  0000              add [eax],al
0000D4D8  0000              add [eax],al
0000D4DA  0000              add [eax],al
0000D4DC  0000              add [eax],al
0000D4DE  0000              add [eax],al
0000D4E0  0000              add [eax],al
0000D4E2  0000              add [eax],al
0000D4E4  0000              add [eax],al
0000D4E6  0000              add [eax],al
0000D4E8  0000              add [eax],al
0000D4EA  0000              add [eax],al
0000D4EC  0000              add [eax],al
0000D4EE  0000              add [eax],al
0000D4F0  0000              add [eax],al
0000D4F2  0000              add [eax],al
0000D4F4  0000              add [eax],al
0000D4F6  0000              add [eax],al
0000D4F8  0000              add [eax],al
0000D4FA  0000              add [eax],al
0000D4FC  0000              add [eax],al
0000D4FE  0000              add [eax],al
0000D500  0000              add [eax],al
0000D502  0000              add [eax],al
0000D504  0000              add [eax],al
0000D506  0000              add [eax],al
0000D508  0000              add [eax],al
0000D50A  0000              add [eax],al
0000D50C  0000              add [eax],al
0000D50E  0000              add [eax],al
0000D510  0000              add [eax],al
0000D512  0000              add [eax],al
0000D514  0000              add [eax],al
0000D516  0000              add [eax],al
0000D518  0000              add [eax],al
0000D51A  0000              add [eax],al
0000D51C  0000              add [eax],al
0000D51E  0000              add [eax],al
0000D520  0000              add [eax],al
0000D522  0000              add [eax],al
0000D524  0000              add [eax],al
0000D526  0000              add [eax],al
0000D528  0000              add [eax],al
0000D52A  0000              add [eax],al
0000D52C  0000              add [eax],al
0000D52E  0000              add [eax],al
0000D530  0000              add [eax],al
0000D532  0000              add [eax],al
0000D534  0000              add [eax],al
0000D536  0000              add [eax],al
0000D538  0000              add [eax],al
0000D53A  0000              add [eax],al
0000D53C  0000              add [eax],al
0000D53E  0000              add [eax],al
0000D540  0000              add [eax],al
0000D542  0000              add [eax],al
0000D544  0000              add [eax],al
0000D546  0000              add [eax],al
0000D548  0000              add [eax],al
0000D54A  0000              add [eax],al
0000D54C  0000              add [eax],al
0000D54E  0000              add [eax],al
0000D550  0000              add [eax],al
0000D552  0000              add [eax],al
0000D554  0000              add [eax],al
0000D556  0000              add [eax],al
0000D558  0000              add [eax],al
0000D55A  0000              add [eax],al
0000D55C  0000              add [eax],al
0000D55E  0000              add [eax],al
0000D560  0000              add [eax],al
0000D562  0000              add [eax],al
0000D564  0000              add [eax],al
0000D566  0000              add [eax],al
0000D568  0000              add [eax],al
0000D56A  0000              add [eax],al
0000D56C  0000              add [eax],al
0000D56E  0000              add [eax],al
0000D570  0000              add [eax],al
0000D572  0000              add [eax],al
0000D574  0000              add [eax],al
0000D576  0000              add [eax],al
0000D578  0000              add [eax],al
0000D57A  0000              add [eax],al
0000D57C  0000              add [eax],al
0000D57E  0000              add [eax],al
0000D580  0000              add [eax],al
0000D582  0000              add [eax],al
0000D584  0000              add [eax],al
0000D586  0000              add [eax],al
0000D588  0000              add [eax],al
0000D58A  0000              add [eax],al
0000D58C  0000              add [eax],al
0000D58E  0000              add [eax],al
0000D590  0000              add [eax],al
0000D592  0000              add [eax],al
0000D594  0000              add [eax],al
0000D596  0000              add [eax],al
0000D598  0000              add [eax],al
0000D59A  0000              add [eax],al
0000D59C  0000              add [eax],al
0000D59E  0000              add [eax],al
0000D5A0  0000              add [eax],al
0000D5A2  0000              add [eax],al
0000D5A4  0000              add [eax],al
0000D5A6  0000              add [eax],al
0000D5A8  0000              add [eax],al
0000D5AA  0000              add [eax],al
0000D5AC  0000              add [eax],al
0000D5AE  0000              add [eax],al
0000D5B0  0000              add [eax],al
0000D5B2  0000              add [eax],al
0000D5B4  0000              add [eax],al
0000D5B6  0000              add [eax],al
0000D5B8  0000              add [eax],al
0000D5BA  0000              add [eax],al
0000D5BC  0000              add [eax],al
0000D5BE  0000              add [eax],al
0000D5C0  0000              add [eax],al
0000D5C2  0000              add [eax],al
0000D5C4  0000              add [eax],al
0000D5C6  0000              add [eax],al
0000D5C8  0000              add [eax],al
0000D5CA  0000              add [eax],al
0000D5CC  0000              add [eax],al
0000D5CE  0000              add [eax],al
0000D5D0  0000              add [eax],al
0000D5D2  0000              add [eax],al
0000D5D4  0000              add [eax],al
0000D5D6  0000              add [eax],al
0000D5D8  0000              add [eax],al
0000D5DA  0000              add [eax],al
0000D5DC  0000              add [eax],al
0000D5DE  0000              add [eax],al
0000D5E0  0000              add [eax],al
0000D5E2  0000              add [eax],al
0000D5E4  0000              add [eax],al
0000D5E6  0000              add [eax],al
0000D5E8  0000              add [eax],al
0000D5EA  0000              add [eax],al
0000D5EC  0000              add [eax],al
0000D5EE  0000              add [eax],al
0000D5F0  0000              add [eax],al
0000D5F2  0000              add [eax],al
0000D5F4  0000              add [eax],al
0000D5F6  0000              add [eax],al
0000D5F8  0000              add [eax],al
0000D5FA  0000              add [eax],al
0000D5FC  0000              add [eax],al
0000D5FE  0000              add [eax],al
0000D600  0000              add [eax],al
0000D602  0000              add [eax],al
0000D604  0000              add [eax],al
0000D606  0000              add [eax],al
0000D608  0000              add [eax],al
0000D60A  0000              add [eax],al
0000D60C  0000              add [eax],al
0000D60E  0000              add [eax],al
0000D610  0000              add [eax],al
0000D612  0000              add [eax],al
0000D614  0000              add [eax],al
0000D616  0000              add [eax],al
0000D618  0000              add [eax],al
0000D61A  0000              add [eax],al
0000D61C  0000              add [eax],al
0000D61E  0000              add [eax],al
0000D620  0000              add [eax],al
0000D622  0000              add [eax],al
0000D624  0000              add [eax],al
0000D626  0000              add [eax],al
0000D628  0000              add [eax],al
0000D62A  0000              add [eax],al
0000D62C  0000              add [eax],al
0000D62E  0000              add [eax],al
0000D630  0000              add [eax],al
0000D632  0000              add [eax],al
0000D634  0000              add [eax],al
0000D636  0000              add [eax],al
0000D638  0000              add [eax],al
0000D63A  0000              add [eax],al
0000D63C  0000              add [eax],al
0000D63E  0000              add [eax],al
0000D640  0000              add [eax],al
0000D642  0000              add [eax],al
0000D644  0000              add [eax],al
0000D646  0000              add [eax],al
0000D648  0000              add [eax],al
0000D64A  0000              add [eax],al
0000D64C  0000              add [eax],al
0000D64E  0000              add [eax],al
0000D650  0000              add [eax],al
0000D652  0000              add [eax],al
0000D654  0000              add [eax],al
0000D656  0000              add [eax],al
0000D658  0000              add [eax],al
0000D65A  0000              add [eax],al
0000D65C  0000              add [eax],al
0000D65E  0000              add [eax],al
0000D660  0000              add [eax],al
0000D662  0000              add [eax],al
0000D664  0000              add [eax],al
0000D666  0000              add [eax],al
0000D668  0000              add [eax],al
0000D66A  0000              add [eax],al
0000D66C  0000              add [eax],al
0000D66E  0000              add [eax],al
0000D670  0000              add [eax],al
0000D672  0000              add [eax],al
0000D674  0000              add [eax],al
0000D676  0000              add [eax],al
0000D678  0000              add [eax],al
0000D67A  0000              add [eax],al
0000D67C  0000              add [eax],al
0000D67E  0000              add [eax],al
0000D680  0000              add [eax],al
0000D682  0000              add [eax],al
0000D684  0000              add [eax],al
0000D686  0000              add [eax],al
0000D688  0000              add [eax],al
0000D68A  0000              add [eax],al
0000D68C  0000              add [eax],al
0000D68E  0000              add [eax],al
0000D690  0000              add [eax],al
0000D692  0000              add [eax],al
0000D694  0000              add [eax],al
0000D696  0000              add [eax],al
0000D698  0000              add [eax],al
0000D69A  0000              add [eax],al
0000D69C  0000              add [eax],al
0000D69E  0000              add [eax],al
0000D6A0  0000              add [eax],al
0000D6A2  0000              add [eax],al
0000D6A4  0000              add [eax],al
0000D6A6  0000              add [eax],al
0000D6A8  0000              add [eax],al
0000D6AA  0000              add [eax],al
0000D6AC  0000              add [eax],al
0000D6AE  0000              add [eax],al
0000D6B0  0000              add [eax],al
0000D6B2  0000              add [eax],al
0000D6B4  0000              add [eax],al
0000D6B6  0000              add [eax],al
0000D6B8  0000              add [eax],al
0000D6BA  0000              add [eax],al
0000D6BC  0000              add [eax],al
0000D6BE  0000              add [eax],al
0000D6C0  0000              add [eax],al
0000D6C2  0000              add [eax],al
0000D6C4  0000              add [eax],al
0000D6C6  0000              add [eax],al
0000D6C8  0000              add [eax],al
0000D6CA  0000              add [eax],al
0000D6CC  0000              add [eax],al
0000D6CE  0000              add [eax],al
0000D6D0  0000              add [eax],al
0000D6D2  0000              add [eax],al
0000D6D4  0000              add [eax],al
0000D6D6  0000              add [eax],al
0000D6D8  0000              add [eax],al
0000D6DA  0000              add [eax],al
0000D6DC  0000              add [eax],al
0000D6DE  0000              add [eax],al
0000D6E0  0000              add [eax],al
0000D6E2  0000              add [eax],al
0000D6E4  0000              add [eax],al
0000D6E6  0000              add [eax],al
0000D6E8  0000              add [eax],al
0000D6EA  0000              add [eax],al
0000D6EC  0000              add [eax],al
0000D6EE  0000              add [eax],al
0000D6F0  0000              add [eax],al
0000D6F2  0000              add [eax],al
0000D6F4  0000              add [eax],al
0000D6F6  0000              add [eax],al
0000D6F8  0000              add [eax],al
0000D6FA  0000              add [eax],al
0000D6FC  0000              add [eax],al
0000D6FE  0000              add [eax],al
0000D700  0000              add [eax],al
0000D702  0000              add [eax],al
0000D704  0000              add [eax],al
0000D706  0000              add [eax],al
0000D708  0000              add [eax],al
0000D70A  0000              add [eax],al
0000D70C  0000              add [eax],al
0000D70E  0000              add [eax],al
0000D710  0000              add [eax],al
0000D712  0000              add [eax],al
0000D714  0000              add [eax],al
0000D716  0000              add [eax],al
0000D718  0000              add [eax],al
0000D71A  0000              add [eax],al
0000D71C  0000              add [eax],al
0000D71E  0000              add [eax],al
0000D720  0000              add [eax],al
0000D722  0000              add [eax],al
0000D724  0000              add [eax],al
0000D726  0000              add [eax],al
0000D728  0000              add [eax],al
0000D72A  0000              add [eax],al
0000D72C  0000              add [eax],al
0000D72E  0000              add [eax],al
0000D730  0000              add [eax],al
0000D732  0000              add [eax],al
0000D734  0000              add [eax],al
0000D736  0000              add [eax],al
0000D738  0000              add [eax],al
0000D73A  0000              add [eax],al
0000D73C  0000              add [eax],al
0000D73E  0000              add [eax],al
0000D740  0000              add [eax],al
0000D742  0000              add [eax],al
0000D744  0000              add [eax],al
0000D746  0000              add [eax],al
0000D748  0000              add [eax],al
0000D74A  0000              add [eax],al
0000D74C  0000              add [eax],al
0000D74E  0000              add [eax],al
0000D750  0000              add [eax],al
0000D752  0000              add [eax],al
0000D754  0000              add [eax],al
0000D756  0000              add [eax],al
0000D758  0000              add [eax],al
0000D75A  0000              add [eax],al
0000D75C  0000              add [eax],al
0000D75E  0000              add [eax],al
0000D760  0000              add [eax],al
0000D762  0000              add [eax],al
0000D764  0000              add [eax],al
0000D766  0000              add [eax],al
0000D768  0000              add [eax],al
0000D76A  0000              add [eax],al
0000D76C  0000              add [eax],al
0000D76E  0000              add [eax],al
0000D770  0000              add [eax],al
0000D772  0000              add [eax],al
0000D774  0000              add [eax],al
0000D776  0000              add [eax],al
0000D778  0000              add [eax],al
0000D77A  0000              add [eax],al
0000D77C  0000              add [eax],al
0000D77E  0000              add [eax],al
0000D780  0000              add [eax],al
0000D782  0000              add [eax],al
0000D784  0000              add [eax],al
0000D786  0000              add [eax],al
0000D788  0000              add [eax],al
0000D78A  0000              add [eax],al
0000D78C  0000              add [eax],al
0000D78E  0000              add [eax],al
0000D790  0000              add [eax],al
0000D792  0000              add [eax],al
0000D794  0000              add [eax],al
0000D796  0000              add [eax],al
0000D798  0000              add [eax],al
0000D79A  0000              add [eax],al
0000D79C  0000              add [eax],al
0000D79E  0000              add [eax],al
0000D7A0  0000              add [eax],al
0000D7A2  0000              add [eax],al
0000D7A4  0000              add [eax],al
0000D7A6  0000              add [eax],al
0000D7A8  0000              add [eax],al
0000D7AA  0000              add [eax],al
0000D7AC  0000              add [eax],al
0000D7AE  0000              add [eax],al
0000D7B0  0000              add [eax],al
0000D7B2  0000              add [eax],al
0000D7B4  0000              add [eax],al
0000D7B6  0000              add [eax],al
0000D7B8  0000              add [eax],al
0000D7BA  0000              add [eax],al
0000D7BC  0000              add [eax],al
0000D7BE  0000              add [eax],al
0000D7C0  0000              add [eax],al
0000D7C2  0000              add [eax],al
0000D7C4  0000              add [eax],al
0000D7C6  0000              add [eax],al
0000D7C8  0000              add [eax],al
0000D7CA  0000              add [eax],al
0000D7CC  0000              add [eax],al
0000D7CE  0000              add [eax],al
0000D7D0  0000              add [eax],al
0000D7D2  0000              add [eax],al
0000D7D4  0000              add [eax],al
0000D7D6  0000              add [eax],al
0000D7D8  0000              add [eax],al
0000D7DA  0000              add [eax],al
0000D7DC  0000              add [eax],al
0000D7DE  0000              add [eax],al
0000D7E0  0000              add [eax],al
0000D7E2  0000              add [eax],al
0000D7E4  0000              add [eax],al
0000D7E6  0000              add [eax],al
0000D7E8  0000              add [eax],al
0000D7EA  0000              add [eax],al
0000D7EC  0000              add [eax],al
0000D7EE  0000              add [eax],al
0000D7F0  0000              add [eax],al
0000D7F2  0000              add [eax],al
0000D7F4  0000              add [eax],al
0000D7F6  0000              add [eax],al
0000D7F8  0000              add [eax],al
0000D7FA  0000              add [eax],al
0000D7FC  0000              add [eax],al
0000D7FE  0000              add [eax],al
0000D800  0000              add [eax],al
0000D802  0000              add [eax],al
0000D804  0000              add [eax],al
0000D806  0000              add [eax],al
0000D808  0000              add [eax],al
0000D80A  0000              add [eax],al
0000D80C  0000              add [eax],al
0000D80E  0000              add [eax],al
0000D810  0000              add [eax],al
0000D812  0000              add [eax],al
0000D814  0000              add [eax],al
0000D816  0000              add [eax],al
0000D818  0000              add [eax],al
0000D81A  0000              add [eax],al
0000D81C  0000              add [eax],al
0000D81E  0000              add [eax],al
0000D820  0000              add [eax],al
0000D822  0000              add [eax],al
0000D824  0000              add [eax],al
0000D826  0000              add [eax],al
0000D828  0000              add [eax],al
0000D82A  0000              add [eax],al
0000D82C  0000              add [eax],al
0000D82E  0000              add [eax],al
0000D830  0000              add [eax],al
0000D832  0000              add [eax],al
0000D834  0000              add [eax],al
0000D836  0000              add [eax],al
0000D838  0000              add [eax],al
0000D83A  0000              add [eax],al
0000D83C  0000              add [eax],al
0000D83E  0000              add [eax],al
0000D840  0000              add [eax],al
0000D842  0000              add [eax],al
0000D844  0000              add [eax],al
0000D846  0000              add [eax],al
0000D848  0000              add [eax],al
0000D84A  0000              add [eax],al
0000D84C  0000              add [eax],al
0000D84E  0000              add [eax],al
0000D850  0000              add [eax],al
0000D852  0000              add [eax],al
0000D854  0000              add [eax],al
0000D856  0000              add [eax],al
0000D858  0000              add [eax],al
0000D85A  0000              add [eax],al
0000D85C  0000              add [eax],al
0000D85E  0000              add [eax],al
0000D860  0000              add [eax],al
0000D862  0000              add [eax],al
0000D864  0000              add [eax],al
0000D866  0000              add [eax],al
0000D868  0000              add [eax],al
0000D86A  0000              add [eax],al
0000D86C  0000              add [eax],al
0000D86E  0000              add [eax],al
0000D870  0000              add [eax],al
0000D872  0000              add [eax],al
0000D874  0000              add [eax],al
0000D876  0000              add [eax],al
0000D878  0000              add [eax],al
0000D87A  0000              add [eax],al
0000D87C  0000              add [eax],al
0000D87E  0000              add [eax],al
0000D880  0000              add [eax],al
0000D882  0000              add [eax],al
0000D884  0000              add [eax],al
0000D886  0000              add [eax],al
0000D888  0000              add [eax],al
0000D88A  0000              add [eax],al
0000D88C  0000              add [eax],al
0000D88E  0000              add [eax],al
0000D890  0000              add [eax],al
0000D892  0000              add [eax],al
0000D894  0000              add [eax],al
0000D896  0000              add [eax],al
0000D898  0000              add [eax],al
0000D89A  0000              add [eax],al
0000D89C  0000              add [eax],al
0000D89E  0000              add [eax],al
0000D8A0  0000              add [eax],al
0000D8A2  0000              add [eax],al
0000D8A4  0000              add [eax],al
0000D8A6  0000              add [eax],al
0000D8A8  0000              add [eax],al
0000D8AA  0000              add [eax],al
0000D8AC  0000              add [eax],al
0000D8AE  0000              add [eax],al
0000D8B0  0000              add [eax],al
0000D8B2  0000              add [eax],al
0000D8B4  0000              add [eax],al
0000D8B6  0000              add [eax],al
0000D8B8  0000              add [eax],al
0000D8BA  0000              add [eax],al
0000D8BC  0000              add [eax],al
0000D8BE  0000              add [eax],al
0000D8C0  0000              add [eax],al
0000D8C2  0000              add [eax],al
0000D8C4  0000              add [eax],al
0000D8C6  0000              add [eax],al
0000D8C8  0000              add [eax],al
0000D8CA  0000              add [eax],al
0000D8CC  0000              add [eax],al
0000D8CE  0000              add [eax],al
0000D8D0  0000              add [eax],al
0000D8D2  0000              add [eax],al
0000D8D4  0000              add [eax],al
0000D8D6  0000              add [eax],al
0000D8D8  0000              add [eax],al
0000D8DA  0000              add [eax],al
0000D8DC  0000              add [eax],al
0000D8DE  0000              add [eax],al
0000D8E0  0000              add [eax],al
0000D8E2  0000              add [eax],al
0000D8E4  0000              add [eax],al
0000D8E6  0000              add [eax],al
0000D8E8  0000              add [eax],al
0000D8EA  0000              add [eax],al
0000D8EC  0000              add [eax],al
0000D8EE  0000              add [eax],al
0000D8F0  0000              add [eax],al
0000D8F2  0000              add [eax],al
0000D8F4  0000              add [eax],al
0000D8F6  0000              add [eax],al
0000D8F8  0000              add [eax],al
0000D8FA  0000              add [eax],al
0000D8FC  0000              add [eax],al
0000D8FE  0000              add [eax],al
0000D900  0000              add [eax],al
0000D902  0000              add [eax],al
0000D904  0000              add [eax],al
0000D906  0000              add [eax],al
0000D908  0000              add [eax],al
0000D90A  0000              add [eax],al
0000D90C  0000              add [eax],al
0000D90E  0000              add [eax],al
0000D910  0000              add [eax],al
0000D912  0000              add [eax],al
0000D914  0000              add [eax],al
0000D916  0000              add [eax],al
0000D918  0000              add [eax],al
0000D91A  0000              add [eax],al
0000D91C  0000              add [eax],al
0000D91E  0000              add [eax],al
0000D920  0000              add [eax],al
0000D922  0000              add [eax],al
0000D924  0000              add [eax],al
0000D926  0000              add [eax],al
0000D928  0000              add [eax],al
0000D92A  0000              add [eax],al
0000D92C  0000              add [eax],al
0000D92E  0000              add [eax],al
0000D930  0000              add [eax],al
0000D932  0000              add [eax],al
0000D934  0000              add [eax],al
0000D936  0000              add [eax],al
0000D938  0000              add [eax],al
0000D93A  0000              add [eax],al
0000D93C  0000              add [eax],al
0000D93E  0000              add [eax],al
0000D940  0000              add [eax],al
0000D942  0000              add [eax],al
0000D944  0000              add [eax],al
0000D946  0000              add [eax],al
0000D948  0000              add [eax],al
0000D94A  0000              add [eax],al
0000D94C  0000              add [eax],al
0000D94E  0000              add [eax],al
0000D950  0000              add [eax],al
0000D952  0000              add [eax],al
0000D954  0000              add [eax],al
0000D956  0000              add [eax],al
0000D958  0000              add [eax],al
0000D95A  0000              add [eax],al
0000D95C  0000              add [eax],al
0000D95E  0000              add [eax],al
0000D960  0000              add [eax],al
0000D962  0000              add [eax],al
0000D964  0000              add [eax],al
0000D966  0000              add [eax],al
0000D968  0000              add [eax],al
0000D96A  0000              add [eax],al
0000D96C  0000              add [eax],al
0000D96E  0000              add [eax],al
0000D970  0000              add [eax],al
0000D972  0000              add [eax],al
0000D974  0000              add [eax],al
0000D976  0000              add [eax],al
0000D978  0000              add [eax],al
0000D97A  0000              add [eax],al
0000D97C  0000              add [eax],al
0000D97E  0000              add [eax],al
0000D980  0000              add [eax],al
0000D982  0000              add [eax],al
0000D984  0000              add [eax],al
0000D986  0000              add [eax],al
0000D988  0000              add [eax],al
0000D98A  0000              add [eax],al
0000D98C  0000              add [eax],al
0000D98E  0000              add [eax],al
0000D990  0000              add [eax],al
0000D992  0000              add [eax],al
0000D994  0000              add [eax],al
0000D996  0000              add [eax],al
0000D998  0000              add [eax],al
0000D99A  0000              add [eax],al
0000D99C  0000              add [eax],al
0000D99E  0000              add [eax],al
0000D9A0  0000              add [eax],al
0000D9A2  0000              add [eax],al
0000D9A4  0000              add [eax],al
0000D9A6  0000              add [eax],al
0000D9A8  0000              add [eax],al
0000D9AA  0000              add [eax],al
0000D9AC  0000              add [eax],al
0000D9AE  0000              add [eax],al
0000D9B0  0000              add [eax],al
0000D9B2  0000              add [eax],al
0000D9B4  0000              add [eax],al
0000D9B6  0000              add [eax],al
0000D9B8  0000              add [eax],al
0000D9BA  0000              add [eax],al
0000D9BC  0000              add [eax],al
0000D9BE  0000              add [eax],al
0000D9C0  0000              add [eax],al
0000D9C2  0000              add [eax],al
0000D9C4  0000              add [eax],al
0000D9C6  0000              add [eax],al
0000D9C8  0000              add [eax],al
0000D9CA  0000              add [eax],al
0000D9CC  0000              add [eax],al
0000D9CE  0000              add [eax],al
0000D9D0  0000              add [eax],al
0000D9D2  0000              add [eax],al
0000D9D4  0000              add [eax],al
0000D9D6  0000              add [eax],al
0000D9D8  0000              add [eax],al
0000D9DA  0000              add [eax],al
0000D9DC  0000              add [eax],al
0000D9DE  0000              add [eax],al
0000D9E0  0000              add [eax],al
0000D9E2  0000              add [eax],al
0000D9E4  0000              add [eax],al
0000D9E6  0000              add [eax],al
0000D9E8  0000              add [eax],al
0000D9EA  0000              add [eax],al
0000D9EC  0000              add [eax],al
0000D9EE  0000              add [eax],al
0000D9F0  0000              add [eax],al
0000D9F2  0000              add [eax],al
0000D9F4  0000              add [eax],al
0000D9F6  0000              add [eax],al
0000D9F8  0000              add [eax],al
0000D9FA  0000              add [eax],al
0000D9FC  0000              add [eax],al
0000D9FE  0000              add [eax],al
0000DA00  0000              add [eax],al
0000DA02  0000              add [eax],al
0000DA04  0000              add [eax],al
0000DA06  0000              add [eax],al
0000DA08  0000              add [eax],al
0000DA0A  0000              add [eax],al
0000DA0C  0000              add [eax],al
0000DA0E  0000              add [eax],al
0000DA10  0000              add [eax],al
0000DA12  0000              add [eax],al
0000DA14  0000              add [eax],al
0000DA16  0000              add [eax],al
0000DA18  0000              add [eax],al
0000DA1A  0000              add [eax],al
0000DA1C  0000              add [eax],al
0000DA1E  0000              add [eax],al
0000DA20  0000              add [eax],al
0000DA22  0000              add [eax],al
0000DA24  0000              add [eax],al
0000DA26  0000              add [eax],al
0000DA28  0000              add [eax],al
0000DA2A  0000              add [eax],al
0000DA2C  0000              add [eax],al
0000DA2E  0000              add [eax],al
0000DA30  0000              add [eax],al
0000DA32  0000              add [eax],al
0000DA34  0000              add [eax],al
0000DA36  0000              add [eax],al
0000DA38  0000              add [eax],al
0000DA3A  0000              add [eax],al
0000DA3C  0000              add [eax],al
0000DA3E  0000              add [eax],al
0000DA40  0000              add [eax],al
0000DA42  0000              add [eax],al
0000DA44  0000              add [eax],al
0000DA46  0000              add [eax],al
0000DA48  0000              add [eax],al
0000DA4A  0000              add [eax],al
0000DA4C  0000              add [eax],al
0000DA4E  0000              add [eax],al
0000DA50  0000              add [eax],al
0000DA52  0000              add [eax],al
0000DA54  0000              add [eax],al
0000DA56  0000              add [eax],al
0000DA58  0000              add [eax],al
0000DA5A  0000              add [eax],al
0000DA5C  0000              add [eax],al
0000DA5E  0000              add [eax],al
0000DA60  0000              add [eax],al
0000DA62  0000              add [eax],al
0000DA64  0000              add [eax],al
0000DA66  0000              add [eax],al
0000DA68  0000              add [eax],al
0000DA6A  0000              add [eax],al
0000DA6C  0000              add [eax],al
0000DA6E  0000              add [eax],al
0000DA70  0000              add [eax],al
0000DA72  0000              add [eax],al
0000DA74  0000              add [eax],al
0000DA76  0000              add [eax],al
0000DA78  0000              add [eax],al
0000DA7A  0000              add [eax],al
0000DA7C  0000              add [eax],al
0000DA7E  0000              add [eax],al
0000DA80  0000              add [eax],al
0000DA82  0000              add [eax],al
0000DA84  0000              add [eax],al
0000DA86  0000              add [eax],al
0000DA88  0000              add [eax],al
0000DA8A  0000              add [eax],al
0000DA8C  0000              add [eax],al
0000DA8E  0000              add [eax],al
0000DA90  0000              add [eax],al
0000DA92  0000              add [eax],al
0000DA94  0000              add [eax],al
0000DA96  0000              add [eax],al
0000DA98  0000              add [eax],al
0000DA9A  0000              add [eax],al
0000DA9C  0000              add [eax],al
0000DA9E  0000              add [eax],al
0000DAA0  0000              add [eax],al
0000DAA2  0000              add [eax],al
0000DAA4  0000              add [eax],al
0000DAA6  0000              add [eax],al
0000DAA8  0000              add [eax],al
0000DAAA  0000              add [eax],al
0000DAAC  0000              add [eax],al
0000DAAE  0000              add [eax],al
0000DAB0  0000              add [eax],al
0000DAB2  0000              add [eax],al
0000DAB4  0000              add [eax],al
0000DAB6  0000              add [eax],al
0000DAB8  0000              add [eax],al
0000DABA  0000              add [eax],al
0000DABC  0000              add [eax],al
0000DABE  0000              add [eax],al
0000DAC0  0000              add [eax],al
0000DAC2  0000              add [eax],al
0000DAC4  0000              add [eax],al
0000DAC6  0000              add [eax],al
0000DAC8  0000              add [eax],al
0000DACA  0000              add [eax],al
0000DACC  0000              add [eax],al
0000DACE  0000              add [eax],al
0000DAD0  0000              add [eax],al
0000DAD2  0000              add [eax],al
0000DAD4  0000              add [eax],al
0000DAD6  0000              add [eax],al
0000DAD8  0000              add [eax],al
0000DADA  0000              add [eax],al
0000DADC  0000              add [eax],al
0000DADE  0000              add [eax],al
0000DAE0  0000              add [eax],al
0000DAE2  0000              add [eax],al
0000DAE4  0000              add [eax],al
0000DAE6  0000              add [eax],al
0000DAE8  0000              add [eax],al
0000DAEA  0000              add [eax],al
0000DAEC  0000              add [eax],al
0000DAEE  0000              add [eax],al
0000DAF0  0000              add [eax],al
0000DAF2  0000              add [eax],al
0000DAF4  0000              add [eax],al
0000DAF6  0000              add [eax],al
0000DAF8  0000              add [eax],al
0000DAFA  0000              add [eax],al
0000DAFC  0000              add [eax],al
0000DAFE  0000              add [eax],al
0000DB00  0000              add [eax],al
0000DB02  0000              add [eax],al
0000DB04  0000              add [eax],al
0000DB06  0000              add [eax],al
0000DB08  0000              add [eax],al
0000DB0A  0000              add [eax],al
0000DB0C  0000              add [eax],al
0000DB0E  0000              add [eax],al
0000DB10  0000              add [eax],al
0000DB12  0000              add [eax],al
0000DB14  0000              add [eax],al
0000DB16  0000              add [eax],al
0000DB18  0000              add [eax],al
0000DB1A  0000              add [eax],al
0000DB1C  0000              add [eax],al
0000DB1E  0000              add [eax],al
0000DB20  0000              add [eax],al
0000DB22  0000              add [eax],al
0000DB24  0000              add [eax],al
0000DB26  0000              add [eax],al
0000DB28  0000              add [eax],al
0000DB2A  0000              add [eax],al
0000DB2C  0000              add [eax],al
0000DB2E  0000              add [eax],al
0000DB30  0000              add [eax],al
0000DB32  0000              add [eax],al
0000DB34  0000              add [eax],al
0000DB36  0000              add [eax],al
0000DB38  0000              add [eax],al
0000DB3A  0000              add [eax],al
0000DB3C  0000              add [eax],al
0000DB3E  0000              add [eax],al
0000DB40  0000              add [eax],al
0000DB42  0000              add [eax],al
0000DB44  0000              add [eax],al
0000DB46  0000              add [eax],al
0000DB48  0000              add [eax],al
0000DB4A  0000              add [eax],al
0000DB4C  0000              add [eax],al
0000DB4E  0000              add [eax],al
0000DB50  0000              add [eax],al
0000DB52  0000              add [eax],al
0000DB54  0000              add [eax],al
0000DB56  0000              add [eax],al
0000DB58  0000              add [eax],al
0000DB5A  0000              add [eax],al
0000DB5C  0000              add [eax],al
0000DB5E  0000              add [eax],al
0000DB60  0000              add [eax],al
0000DB62  0000              add [eax],al
0000DB64  0000              add [eax],al
0000DB66  0000              add [eax],al
0000DB68  0000              add [eax],al
0000DB6A  0000              add [eax],al
0000DB6C  0000              add [eax],al
0000DB6E  0000              add [eax],al
0000DB70  0000              add [eax],al
0000DB72  0000              add [eax],al
0000DB74  0000              add [eax],al
0000DB76  0000              add [eax],al
0000DB78  0000              add [eax],al
0000DB7A  0000              add [eax],al
0000DB7C  0000              add [eax],al
0000DB7E  0000              add [eax],al
0000DB80  0000              add [eax],al
0000DB82  0000              add [eax],al
0000DB84  0000              add [eax],al
0000DB86  0000              add [eax],al
0000DB88  0000              add [eax],al
0000DB8A  0000              add [eax],al
0000DB8C  0000              add [eax],al
0000DB8E  0000              add [eax],al
0000DB90  0000              add [eax],al
0000DB92  0000              add [eax],al
0000DB94  0000              add [eax],al
0000DB96  0000              add [eax],al
0000DB98  0000              add [eax],al
0000DB9A  0000              add [eax],al
0000DB9C  0000              add [eax],al
0000DB9E  0000              add [eax],al
0000DBA0  0000              add [eax],al
0000DBA2  0000              add [eax],al
0000DBA4  0000              add [eax],al
0000DBA6  0000              add [eax],al
0000DBA8  0000              add [eax],al
0000DBAA  0000              add [eax],al
0000DBAC  0000              add [eax],al
0000DBAE  0000              add [eax],al
0000DBB0  0000              add [eax],al
0000DBB2  0000              add [eax],al
0000DBB4  0000              add [eax],al
0000DBB6  0000              add [eax],al
0000DBB8  0000              add [eax],al
0000DBBA  0000              add [eax],al
0000DBBC  0000              add [eax],al
0000DBBE  0000              add [eax],al
0000DBC0  0000              add [eax],al
0000DBC2  0000              add [eax],al
0000DBC4  0000              add [eax],al
0000DBC6  0000              add [eax],al
0000DBC8  0000              add [eax],al
0000DBCA  0000              add [eax],al
0000DBCC  0000              add [eax],al
0000DBCE  0000              add [eax],al
0000DBD0  0000              add [eax],al
0000DBD2  0000              add [eax],al
0000DBD4  0000              add [eax],al
0000DBD6  0000              add [eax],al
0000DBD8  0000              add [eax],al
0000DBDA  0000              add [eax],al
0000DBDC  0000              add [eax],al
0000DBDE  0000              add [eax],al
0000DBE0  0000              add [eax],al
0000DBE2  0000              add [eax],al
0000DBE4  0000              add [eax],al
0000DBE6  0000              add [eax],al
0000DBE8  0000              add [eax],al
0000DBEA  0000              add [eax],al
0000DBEC  0000              add [eax],al
0000DBEE  0000              add [eax],al
0000DBF0  0000              add [eax],al
0000DBF2  0000              add [eax],al
0000DBF4  0000              add [eax],al
0000DBF6  0000              add [eax],al
0000DBF8  0000              add [eax],al
0000DBFA  0000              add [eax],al
0000DBFC  0000              add [eax],al
0000DBFE  0000              add [eax],al
0000DC00  0000              add [eax],al
0000DC02  0000              add [eax],al
0000DC04  0000              add [eax],al
0000DC06  0000              add [eax],al
0000DC08  0000              add [eax],al
0000DC0A  0000              add [eax],al
0000DC0C  0000              add [eax],al
0000DC0E  0000              add [eax],al
0000DC10  0000              add [eax],al
0000DC12  0000              add [eax],al
0000DC14  0000              add [eax],al
0000DC16  0000              add [eax],al
0000DC18  0000              add [eax],al
0000DC1A  0000              add [eax],al
0000DC1C  0000              add [eax],al
0000DC1E  0000              add [eax],al
0000DC20  0000              add [eax],al
0000DC22  0000              add [eax],al
0000DC24  0000              add [eax],al
0000DC26  0000              add [eax],al
0000DC28  0000              add [eax],al
0000DC2A  0000              add [eax],al
0000DC2C  0000              add [eax],al
0000DC2E  0000              add [eax],al
0000DC30  0000              add [eax],al
0000DC32  0000              add [eax],al
0000DC34  0000              add [eax],al
0000DC36  0000              add [eax],al
0000DC38  0000              add [eax],al
0000DC3A  0000              add [eax],al
0000DC3C  0000              add [eax],al
0000DC3E  0000              add [eax],al
0000DC40  0000              add [eax],al
0000DC42  0000              add [eax],al
0000DC44  0000              add [eax],al
0000DC46  0000              add [eax],al
0000DC48  0000              add [eax],al
0000DC4A  0000              add [eax],al
0000DC4C  0000              add [eax],al
0000DC4E  0000              add [eax],al
0000DC50  0000              add [eax],al
0000DC52  0000              add [eax],al
0000DC54  0000              add [eax],al
0000DC56  0000              add [eax],al
0000DC58  0000              add [eax],al
0000DC5A  0000              add [eax],al
0000DC5C  0000              add [eax],al
0000DC5E  0000              add [eax],al
0000DC60  0000              add [eax],al
0000DC62  0000              add [eax],al
0000DC64  0000              add [eax],al
0000DC66  0000              add [eax],al
0000DC68  0000              add [eax],al
0000DC6A  0000              add [eax],al
0000DC6C  0000              add [eax],al
0000DC6E  0000              add [eax],al
0000DC70  0000              add [eax],al
0000DC72  0000              add [eax],al
0000DC74  0000              add [eax],al
0000DC76  0000              add [eax],al
0000DC78  0000              add [eax],al
0000DC7A  0000              add [eax],al
0000DC7C  0000              add [eax],al
0000DC7E  0000              add [eax],al
0000DC80  0000              add [eax],al
0000DC82  0000              add [eax],al
0000DC84  0000              add [eax],al
0000DC86  0000              add [eax],al
0000DC88  0000              add [eax],al
0000DC8A  0000              add [eax],al
0000DC8C  0000              add [eax],al
0000DC8E  0000              add [eax],al
0000DC90  0000              add [eax],al
0000DC92  0000              add [eax],al
0000DC94  0000              add [eax],al
0000DC96  0000              add [eax],al
0000DC98  0000              add [eax],al
0000DC9A  0000              add [eax],al
0000DC9C  0000              add [eax],al
0000DC9E  0000              add [eax],al
0000DCA0  0000              add [eax],al
0000DCA2  0000              add [eax],al
0000DCA4  0000              add [eax],al
0000DCA6  0000              add [eax],al
0000DCA8  0000              add [eax],al
0000DCAA  0000              add [eax],al
0000DCAC  0000              add [eax],al
0000DCAE  0000              add [eax],al
0000DCB0  0000              add [eax],al
0000DCB2  0000              add [eax],al
0000DCB4  0000              add [eax],al
0000DCB6  0000              add [eax],al
0000DCB8  0000              add [eax],al
0000DCBA  0000              add [eax],al
0000DCBC  0000              add [eax],al
0000DCBE  0000              add [eax],al
0000DCC0  0000              add [eax],al
0000DCC2  0000              add [eax],al
0000DCC4  0000              add [eax],al
0000DCC6  0000              add [eax],al
0000DCC8  0000              add [eax],al
0000DCCA  0000              add [eax],al
0000DCCC  0000              add [eax],al
0000DCCE  0000              add [eax],al
0000DCD0  0000              add [eax],al
0000DCD2  0000              add [eax],al
0000DCD4  0000              add [eax],al
0000DCD6  0000              add [eax],al
0000DCD8  0000              add [eax],al
0000DCDA  0000              add [eax],al
0000DCDC  0000              add [eax],al
0000DCDE  0000              add [eax],al
0000DCE0  0000              add [eax],al
0000DCE2  0000              add [eax],al
0000DCE4  0000              add [eax],al
0000DCE6  0000              add [eax],al
0000DCE8  0000              add [eax],al
0000DCEA  0000              add [eax],al
0000DCEC  0000              add [eax],al
0000DCEE  0000              add [eax],al
0000DCF0  0000              add [eax],al
0000DCF2  0000              add [eax],al
0000DCF4  0000              add [eax],al
0000DCF6  0000              add [eax],al
0000DCF8  0000              add [eax],al
0000DCFA  0000              add [eax],al
0000DCFC  0000              add [eax],al
0000DCFE  0000              add [eax],al
0000DD00  0000              add [eax],al
0000DD02  0000              add [eax],al
0000DD04  0000              add [eax],al
0000DD06  0000              add [eax],al
0000DD08  0000              add [eax],al
0000DD0A  0000              add [eax],al
0000DD0C  0000              add [eax],al
0000DD0E  0000              add [eax],al
0000DD10  0000              add [eax],al
0000DD12  0000              add [eax],al
0000DD14  0000              add [eax],al
0000DD16  0000              add [eax],al
0000DD18  0000              add [eax],al
0000DD1A  0000              add [eax],al
0000DD1C  0000              add [eax],al
0000DD1E  0000              add [eax],al
0000DD20  0000              add [eax],al
0000DD22  0000              add [eax],al
0000DD24  0000              add [eax],al
0000DD26  0000              add [eax],al
0000DD28  0000              add [eax],al
0000DD2A  0000              add [eax],al
0000DD2C  0000              add [eax],al
0000DD2E  0000              add [eax],al
0000DD30  0000              add [eax],al
0000DD32  0000              add [eax],al
0000DD34  0000              add [eax],al
0000DD36  0000              add [eax],al
0000DD38  0000              add [eax],al
0000DD3A  0000              add [eax],al
0000DD3C  0000              add [eax],al
0000DD3E  0000              add [eax],al
0000DD40  0000              add [eax],al
0000DD42  0000              add [eax],al
0000DD44  0000              add [eax],al
0000DD46  0000              add [eax],al
0000DD48  0000              add [eax],al
0000DD4A  0000              add [eax],al
0000DD4C  0000              add [eax],al
0000DD4E  0000              add [eax],al
0000DD50  0000              add [eax],al
0000DD52  0000              add [eax],al
0000DD54  0000              add [eax],al
0000DD56  0000              add [eax],al
0000DD58  0000              add [eax],al
0000DD5A  0000              add [eax],al
0000DD5C  0000              add [eax],al
0000DD5E  0000              add [eax],al
0000DD60  0000              add [eax],al
0000DD62  0000              add [eax],al
0000DD64  0000              add [eax],al
0000DD66  0000              add [eax],al
0000DD68  0000              add [eax],al
0000DD6A  0000              add [eax],al
0000DD6C  0000              add [eax],al
0000DD6E  0000              add [eax],al
0000DD70  0000              add [eax],al
0000DD72  0000              add [eax],al
0000DD74  0000              add [eax],al
0000DD76  0000              add [eax],al
0000DD78  0000              add [eax],al
0000DD7A  0000              add [eax],al
0000DD7C  0000              add [eax],al
0000DD7E  0000              add [eax],al
0000DD80  0000              add [eax],al
0000DD82  0000              add [eax],al
0000DD84  0000              add [eax],al
0000DD86  0000              add [eax],al
0000DD88  0000              add [eax],al
0000DD8A  0000              add [eax],al
0000DD8C  0000              add [eax],al
0000DD8E  0000              add [eax],al
0000DD90  0000              add [eax],al
0000DD92  0000              add [eax],al
0000DD94  0000              add [eax],al
0000DD96  0000              add [eax],al
0000DD98  0000              add [eax],al
0000DD9A  0000              add [eax],al
0000DD9C  0000              add [eax],al
0000DD9E  0000              add [eax],al
0000DDA0  0000              add [eax],al
0000DDA2  0000              add [eax],al
0000DDA4  0000              add [eax],al
0000DDA6  0000              add [eax],al
0000DDA8  0000              add [eax],al
0000DDAA  0000              add [eax],al
0000DDAC  0000              add [eax],al
0000DDAE  0000              add [eax],al
0000DDB0  0000              add [eax],al
0000DDB2  0000              add [eax],al
0000DDB4  0000              add [eax],al
0000DDB6  0000              add [eax],al
0000DDB8  0000              add [eax],al
0000DDBA  0000              add [eax],al
0000DDBC  0000              add [eax],al
0000DDBE  0000              add [eax],al
0000DDC0  0000              add [eax],al
0000DDC2  0000              add [eax],al
0000DDC4  0000              add [eax],al
0000DDC6  0000              add [eax],al
0000DDC8  0000              add [eax],al
0000DDCA  0000              add [eax],al
0000DDCC  0000              add [eax],al
0000DDCE  0000              add [eax],al
0000DDD0  0000              add [eax],al
0000DDD2  0000              add [eax],al
0000DDD4  0000              add [eax],al
0000DDD6  0000              add [eax],al
0000DDD8  0000              add [eax],al
0000DDDA  0000              add [eax],al
0000DDDC  0000              add [eax],al
0000DDDE  0000              add [eax],al
0000DDE0  0000              add [eax],al
0000DDE2  0000              add [eax],al
0000DDE4  0000              add [eax],al
0000DDE6  0000              add [eax],al
0000DDE8  0000              add [eax],al
0000DDEA  0000              add [eax],al
0000DDEC  0000              add [eax],al
0000DDEE  0000              add [eax],al
0000DDF0  0000              add [eax],al
0000DDF2  0000              add [eax],al
0000DDF4  0000              add [eax],al
0000DDF6  0000              add [eax],al
0000DDF8  0000              add [eax],al
0000DDFA  0000              add [eax],al
0000DDFC  0000              add [eax],al
0000DDFE  0000              add [eax],al
0000DE00  0000              add [eax],al
0000DE02  0000              add [eax],al
0000DE04  0000              add [eax],al
0000DE06  0000              add [eax],al
0000DE08  0000              add [eax],al
0000DE0A  0000              add [eax],al
0000DE0C  0000              add [eax],al
0000DE0E  0000              add [eax],al
0000DE10  0000              add [eax],al
0000DE12  0000              add [eax],al
0000DE14  0000              add [eax],al
0000DE16  0000              add [eax],al
0000DE18  0000              add [eax],al
0000DE1A  0000              add [eax],al
0000DE1C  0000              add [eax],al
0000DE1E  0000              add [eax],al
0000DE20  0000              add [eax],al
0000DE22  0000              add [eax],al
0000DE24  0000              add [eax],al
0000DE26  0000              add [eax],al
0000DE28  0000              add [eax],al
0000DE2A  0000              add [eax],al
0000DE2C  0000              add [eax],al
0000DE2E  0000              add [eax],al
0000DE30  0000              add [eax],al
0000DE32  0000              add [eax],al
0000DE34  0000              add [eax],al
0000DE36  0000              add [eax],al
0000DE38  0000              add [eax],al
0000DE3A  0000              add [eax],al
0000DE3C  0000              add [eax],al
0000DE3E  0000              add [eax],al
0000DE40  0000              add [eax],al
0000DE42  0000              add [eax],al
0000DE44  0000              add [eax],al
0000DE46  0000              add [eax],al
0000DE48  0000              add [eax],al
0000DE4A  0000              add [eax],al
0000DE4C  0000              add [eax],al
0000DE4E  0000              add [eax],al
0000DE50  0000              add [eax],al
0000DE52  0000              add [eax],al
0000DE54  0000              add [eax],al
0000DE56  0000              add [eax],al
0000DE58  0000              add [eax],al
0000DE5A  0000              add [eax],al
0000DE5C  0000              add [eax],al
0000DE5E  0000              add [eax],al
0000DE60  0000              add [eax],al
0000DE62  0000              add [eax],al
0000DE64  0000              add [eax],al
0000DE66  0000              add [eax],al
0000DE68  0000              add [eax],al
0000DE6A  0000              add [eax],al
0000DE6C  0000              add [eax],al
0000DE6E  0000              add [eax],al
0000DE70  0000              add [eax],al
0000DE72  0000              add [eax],al
0000DE74  0000              add [eax],al
0000DE76  0000              add [eax],al
0000DE78  0000              add [eax],al
0000DE7A  0000              add [eax],al
0000DE7C  0000              add [eax],al
0000DE7E  0000              add [eax],al
0000DE80  0000              add [eax],al
0000DE82  0000              add [eax],al
0000DE84  0000              add [eax],al
0000DE86  0000              add [eax],al
0000DE88  0000              add [eax],al
0000DE8A  0000              add [eax],al
0000DE8C  0000              add [eax],al
0000DE8E  0000              add [eax],al
0000DE90  0000              add [eax],al
0000DE92  0000              add [eax],al
0000DE94  0000              add [eax],al
0000DE96  0000              add [eax],al
0000DE98  0000              add [eax],al
0000DE9A  0000              add [eax],al
0000DE9C  0000              add [eax],al
0000DE9E  0000              add [eax],al
0000DEA0  0000              add [eax],al
0000DEA2  0000              add [eax],al
0000DEA4  0000              add [eax],al
0000DEA6  0000              add [eax],al
0000DEA8  0000              add [eax],al
0000DEAA  0000              add [eax],al
0000DEAC  0000              add [eax],al
0000DEAE  0000              add [eax],al
0000DEB0  0000              add [eax],al
0000DEB2  0000              add [eax],al
0000DEB4  0000              add [eax],al
0000DEB6  0000              add [eax],al
0000DEB8  0000              add [eax],al
0000DEBA  0000              add [eax],al
0000DEBC  0000              add [eax],al
0000DEBE  0000              add [eax],al
0000DEC0  0000              add [eax],al
0000DEC2  0000              add [eax],al
0000DEC4  0000              add [eax],al
0000DEC6  0000              add [eax],al
0000DEC8  0000              add [eax],al
0000DECA  0000              add [eax],al
0000DECC  0000              add [eax],al
0000DECE  0000              add [eax],al
0000DED0  0000              add [eax],al
0000DED2  0000              add [eax],al
0000DED4  0000              add [eax],al
0000DED6  0000              add [eax],al
0000DED8  0000              add [eax],al
0000DEDA  0000              add [eax],al
0000DEDC  0000              add [eax],al
0000DEDE  0000              add [eax],al
0000DEE0  0000              add [eax],al
0000DEE2  0000              add [eax],al
0000DEE4  0000              add [eax],al
0000DEE6  0000              add [eax],al
0000DEE8  0000              add [eax],al
0000DEEA  0000              add [eax],al
0000DEEC  0000              add [eax],al
0000DEEE  0000              add [eax],al
0000DEF0  0000              add [eax],al
0000DEF2  0000              add [eax],al
0000DEF4  0000              add [eax],al
0000DEF6  0000              add [eax],al
0000DEF8  0000              add [eax],al
0000DEFA  0000              add [eax],al
0000DEFC  0000              add [eax],al
0000DEFE  0000              add [eax],al
0000DF00  0000              add [eax],al
0000DF02  0000              add [eax],al
0000DF04  0000              add [eax],al
0000DF06  0000              add [eax],al
0000DF08  0000              add [eax],al
0000DF0A  0000              add [eax],al
0000DF0C  0000              add [eax],al
0000DF0E  0000              add [eax],al
0000DF10  0000              add [eax],al
0000DF12  0000              add [eax],al
0000DF14  0000              add [eax],al
0000DF16  0000              add [eax],al
0000DF18  0000              add [eax],al
0000DF1A  0000              add [eax],al
0000DF1C  0000              add [eax],al
0000DF1E  0000              add [eax],al
0000DF20  0000              add [eax],al
0000DF22  0000              add [eax],al
0000DF24  0000              add [eax],al
0000DF26  0000              add [eax],al
0000DF28  0000              add [eax],al
0000DF2A  0000              add [eax],al
0000DF2C  0000              add [eax],al
0000DF2E  0000              add [eax],al
0000DF30  0000              add [eax],al
0000DF32  0000              add [eax],al
0000DF34  0000              add [eax],al
0000DF36  0000              add [eax],al
0000DF38  0000              add [eax],al
0000DF3A  0000              add [eax],al
0000DF3C  0000              add [eax],al
0000DF3E  0000              add [eax],al
0000DF40  0000              add [eax],al
0000DF42  0000              add [eax],al
0000DF44  0000              add [eax],al
0000DF46  0000              add [eax],al
0000DF48  0000              add [eax],al
0000DF4A  0000              add [eax],al
0000DF4C  0000              add [eax],al
0000DF4E  0000              add [eax],al
0000DF50  0000              add [eax],al
0000DF52  0000              add [eax],al
0000DF54  0000              add [eax],al
0000DF56  0000              add [eax],al
0000DF58  0000              add [eax],al
0000DF5A  0000              add [eax],al
0000DF5C  0000              add [eax],al
0000DF5E  0000              add [eax],al
0000DF60  0000              add [eax],al
0000DF62  0000              add [eax],al
0000DF64  0000              add [eax],al
0000DF66  0000              add [eax],al
0000DF68  0000              add [eax],al
0000DF6A  0000              add [eax],al
0000DF6C  0000              add [eax],al
0000DF6E  0000              add [eax],al
0000DF70  0000              add [eax],al
0000DF72  0000              add [eax],al
0000DF74  0000              add [eax],al
0000DF76  0000              add [eax],al
0000DF78  0000              add [eax],al
0000DF7A  0000              add [eax],al
0000DF7C  0000              add [eax],al
0000DF7E  0000              add [eax],al
0000DF80  0000              add [eax],al
0000DF82  0000              add [eax],al
0000DF84  0000              add [eax],al
0000DF86  0000              add [eax],al
0000DF88  0000              add [eax],al
0000DF8A  0000              add [eax],al
0000DF8C  0000              add [eax],al
0000DF8E  0000              add [eax],al
0000DF90  0000              add [eax],al
0000DF92  0000              add [eax],al
0000DF94  0000              add [eax],al
0000DF96  0000              add [eax],al
0000DF98  0000              add [eax],al
0000DF9A  0000              add [eax],al
0000DF9C  0000              add [eax],al
0000DF9E  0000              add [eax],al
0000DFA0  0000              add [eax],al
0000DFA2  0000              add [eax],al
0000DFA4  0000              add [eax],al
0000DFA6  0000              add [eax],al
0000DFA8  0000              add [eax],al
0000DFAA  0000              add [eax],al
0000DFAC  0000              add [eax],al
0000DFAE  0000              add [eax],al
0000DFB0  0000              add [eax],al
0000DFB2  0000              add [eax],al
0000DFB4  0000              add [eax],al
0000DFB6  0000              add [eax],al
0000DFB8  0000              add [eax],al
0000DFBA  0000              add [eax],al
0000DFBC  0000              add [eax],al
0000DFBE  0000              add [eax],al
0000DFC0  0000              add [eax],al
0000DFC2  0000              add [eax],al
0000DFC4  0000              add [eax],al
0000DFC6  0000              add [eax],al
0000DFC8  0000              add [eax],al
0000DFCA  0000              add [eax],al
0000DFCC  0000              add [eax],al
0000DFCE  0000              add [eax],al
0000DFD0  0000              add [eax],al
0000DFD2  0000              add [eax],al
0000DFD4  0000              add [eax],al
0000DFD6  0000              add [eax],al
0000DFD8  0000              add [eax],al
0000DFDA  0000              add [eax],al
0000DFDC  0000              add [eax],al
0000DFDE  0000              add [eax],al
0000DFE0  0000              add [eax],al
0000DFE2  0000              add [eax],al
0000DFE4  0000              add [eax],al
0000DFE6  0000              add [eax],al
0000DFE8  0000              add [eax],al
0000DFEA  0000              add [eax],al
0000DFEC  0000              add [eax],al
0000DFEE  0000              add [eax],al
0000DFF0  0000              add [eax],al
0000DFF2  0000              add [eax],al
0000DFF4  0000              add [eax],al
0000DFF6  0000              add [eax],al
0000DFF8  0000              add [eax],al
0000DFFA  0000              add [eax],al
0000DFFC  0000              add [eax],al
0000DFFE  0000              add [eax],al
0000E000  0000              add [eax],al
0000E002  0000              add [eax],al
0000E004  0000              add [eax],al
0000E006  0000              add [eax],al
0000E008  0000              add [eax],al
0000E00A  0000              add [eax],al
0000E00C  0000              add [eax],al
0000E00E  0000              add [eax],al
0000E010  0000              add [eax],al
0000E012  0000              add [eax],al
0000E014  0000              add [eax],al
0000E016  0000              add [eax],al
0000E018  0000              add [eax],al
0000E01A  0000              add [eax],al
0000E01C  0000              add [eax],al
0000E01E  0000              add [eax],al
0000E020  0000              add [eax],al
0000E022  0000              add [eax],al
0000E024  0000              add [eax],al
0000E026  0000              add [eax],al
0000E028  0000              add [eax],al
0000E02A  0000              add [eax],al
0000E02C  0000              add [eax],al
0000E02E  0000              add [eax],al
0000E030  0000              add [eax],al
0000E032  0000              add [eax],al
0000E034  0000              add [eax],al
0000E036  0000              add [eax],al
0000E038  0000              add [eax],al
0000E03A  0000              add [eax],al
0000E03C  0000              add [eax],al
0000E03E  0000              add [eax],al
0000E040  0000              add [eax],al
0000E042  0000              add [eax],al
0000E044  0000              add [eax],al
0000E046  0000              add [eax],al
0000E048  0000              add [eax],al
0000E04A  0000              add [eax],al
0000E04C  0000              add [eax],al
0000E04E  0000              add [eax],al
0000E050  0000              add [eax],al
0000E052  0000              add [eax],al
0000E054  0000              add [eax],al
0000E056  0000              add [eax],al
0000E058  0000              add [eax],al
0000E05A  0000              add [eax],al
0000E05C  0000              add [eax],al
0000E05E  0000              add [eax],al
0000E060  0000              add [eax],al
0000E062  0000              add [eax],al
0000E064  0000              add [eax],al
0000E066  0000              add [eax],al
0000E068  0000              add [eax],al
0000E06A  0000              add [eax],al
0000E06C  0000              add [eax],al
0000E06E  0000              add [eax],al
0000E070  0000              add [eax],al
0000E072  0000              add [eax],al
0000E074  0000              add [eax],al
0000E076  0000              add [eax],al
0000E078  0000              add [eax],al
0000E07A  0000              add [eax],al
0000E07C  0000              add [eax],al
0000E07E  0000              add [eax],al
0000E080  0000              add [eax],al
0000E082  0000              add [eax],al
0000E084  0000              add [eax],al
0000E086  0000              add [eax],al
0000E088  0000              add [eax],al
0000E08A  0000              add [eax],al
0000E08C  0000              add [eax],al
0000E08E  0000              add [eax],al
0000E090  0000              add [eax],al
0000E092  0000              add [eax],al
0000E094  0000              add [eax],al
0000E096  0000              add [eax],al
0000E098  0000              add [eax],al
0000E09A  0000              add [eax],al
0000E09C  0000              add [eax],al
0000E09E  0000              add [eax],al
0000E0A0  0000              add [eax],al
0000E0A2  0000              add [eax],al
0000E0A4  0000              add [eax],al
0000E0A6  0000              add [eax],al
0000E0A8  0000              add [eax],al
0000E0AA  0000              add [eax],al
0000E0AC  0000              add [eax],al
0000E0AE  0000              add [eax],al
0000E0B0  0000              add [eax],al
0000E0B2  0000              add [eax],al
0000E0B4  0000              add [eax],al
0000E0B6  0000              add [eax],al
0000E0B8  0000              add [eax],al
0000E0BA  0000              add [eax],al
0000E0BC  0000              add [eax],al
0000E0BE  0000              add [eax],al
0000E0C0  0000              add [eax],al
0000E0C2  0000              add [eax],al
0000E0C4  0000              add [eax],al
0000E0C6  0000              add [eax],al
0000E0C8  0000              add [eax],al
0000E0CA  0000              add [eax],al
0000E0CC  0000              add [eax],al
0000E0CE  0000              add [eax],al
0000E0D0  0000              add [eax],al
0000E0D2  0000              add [eax],al
0000E0D4  0000              add [eax],al
0000E0D6  0000              add [eax],al
0000E0D8  0000              add [eax],al
0000E0DA  0000              add [eax],al
0000E0DC  0000              add [eax],al
0000E0DE  0000              add [eax],al
0000E0E0  0000              add [eax],al
0000E0E2  0000              add [eax],al
0000E0E4  0000              add [eax],al
0000E0E6  0000              add [eax],al
0000E0E8  0000              add [eax],al
0000E0EA  0000              add [eax],al
0000E0EC  0000              add [eax],al
0000E0EE  0000              add [eax],al
0000E0F0  0000              add [eax],al
0000E0F2  0000              add [eax],al
0000E0F4  0000              add [eax],al
0000E0F6  0000              add [eax],al
0000E0F8  0000              add [eax],al
0000E0FA  0000              add [eax],al
0000E0FC  0000              add [eax],al
0000E0FE  0000              add [eax],al
0000E100  0000              add [eax],al
0000E102  0000              add [eax],al
0000E104  0000              add [eax],al
0000E106  0000              add [eax],al
0000E108  0000              add [eax],al
0000E10A  0000              add [eax],al
0000E10C  0000              add [eax],al
0000E10E  0000              add [eax],al
0000E110  0000              add [eax],al
0000E112  0000              add [eax],al
0000E114  0000              add [eax],al
0000E116  0000              add [eax],al
0000E118  0000              add [eax],al
0000E11A  0000              add [eax],al
0000E11C  0000              add [eax],al
0000E11E  0000              add [eax],al
0000E120  0000              add [eax],al
0000E122  0000              add [eax],al
0000E124  0000              add [eax],al
0000E126  0000              add [eax],al
0000E128  0000              add [eax],al
0000E12A  0000              add [eax],al
0000E12C  0000              add [eax],al
0000E12E  0000              add [eax],al
0000E130  0000              add [eax],al
0000E132  0000              add [eax],al
0000E134  0000              add [eax],al
0000E136  0000              add [eax],al
0000E138  0000              add [eax],al
0000E13A  0000              add [eax],al
0000E13C  0000              add [eax],al
0000E13E  0000              add [eax],al
0000E140  0000              add [eax],al
0000E142  0000              add [eax],al
0000E144  0000              add [eax],al
0000E146  0000              add [eax],al
0000E148  0000              add [eax],al
0000E14A  0000              add [eax],al
0000E14C  0000              add [eax],al
0000E14E  0000              add [eax],al
0000E150  0000              add [eax],al
0000E152  0000              add [eax],al
0000E154  0000              add [eax],al
0000E156  0000              add [eax],al
0000E158  0000              add [eax],al
0000E15A  0000              add [eax],al
0000E15C  0000              add [eax],al
0000E15E  0000              add [eax],al
0000E160  0000              add [eax],al
0000E162  0000              add [eax],al
0000E164  0000              add [eax],al
0000E166  0000              add [eax],al
0000E168  0000              add [eax],al
0000E16A  0000              add [eax],al
0000E16C  0000              add [eax],al
0000E16E  0000              add [eax],al
0000E170  0000              add [eax],al
0000E172  0000              add [eax],al
0000E174  0000              add [eax],al
0000E176  0000              add [eax],al
0000E178  0000              add [eax],al
0000E17A  0000              add [eax],al
0000E17C  0000              add [eax],al
0000E17E  0000              add [eax],al
0000E180  0000              add [eax],al
0000E182  0000              add [eax],al
0000E184  0000              add [eax],al
0000E186  0000              add [eax],al
0000E188  0000              add [eax],al
0000E18A  0000              add [eax],al
0000E18C  0000              add [eax],al
0000E18E  0000              add [eax],al
0000E190  0000              add [eax],al
0000E192  0000              add [eax],al
0000E194  0000              add [eax],al
0000E196  0000              add [eax],al
0000E198  0000              add [eax],al
0000E19A  0000              add [eax],al
0000E19C  0000              add [eax],al
0000E19E  0000              add [eax],al
0000E1A0  0000              add [eax],al
0000E1A2  0000              add [eax],al
0000E1A4  0000              add [eax],al
0000E1A6  0000              add [eax],al
0000E1A8  0000              add [eax],al
0000E1AA  0000              add [eax],al
0000E1AC  0000              add [eax],al
0000E1AE  0000              add [eax],al
0000E1B0  0000              add [eax],al
0000E1B2  0000              add [eax],al
0000E1B4  0000              add [eax],al
0000E1B6  0000              add [eax],al
0000E1B8  0000              add [eax],al
0000E1BA  0000              add [eax],al
0000E1BC  0000              add [eax],al
0000E1BE  0000              add [eax],al
0000E1C0  0000              add [eax],al
0000E1C2  0000              add [eax],al
0000E1C4  0000              add [eax],al
0000E1C6  0000              add [eax],al
0000E1C8  0000              add [eax],al
0000E1CA  0000              add [eax],al
0000E1CC  0000              add [eax],al
0000E1CE  0000              add [eax],al
0000E1D0  0000              add [eax],al
0000E1D2  0000              add [eax],al
0000E1D4  0000              add [eax],al
0000E1D6  0000              add [eax],al
0000E1D8  0000              add [eax],al
0000E1DA  0000              add [eax],al
0000E1DC  0000              add [eax],al
0000E1DE  0000              add [eax],al
0000E1E0  0000              add [eax],al
0000E1E2  0000              add [eax],al
0000E1E4  0000              add [eax],al
0000E1E6  0000              add [eax],al
0000E1E8  0000              add [eax],al
0000E1EA  0000              add [eax],al
0000E1EC  0000              add [eax],al
0000E1EE  0000              add [eax],al
0000E1F0  0000              add [eax],al
0000E1F2  0000              add [eax],al
0000E1F4  0000              add [eax],al
0000E1F6  0000              add [eax],al
0000E1F8  0000              add [eax],al
0000E1FA  0000              add [eax],al
0000E1FC  0000              add [eax],al
0000E1FE  0000              add [eax],al
0000E200  0000              add [eax],al
0000E202  0000              add [eax],al
0000E204  0000              add [eax],al
0000E206  0000              add [eax],al
0000E208  0000              add [eax],al
0000E20A  0000              add [eax],al
0000E20C  0000              add [eax],al
0000E20E  0000              add [eax],al
0000E210  0000              add [eax],al
0000E212  0000              add [eax],al
0000E214  0000              add [eax],al
0000E216  0000              add [eax],al
0000E218  0000              add [eax],al
0000E21A  0000              add [eax],al
0000E21C  0000              add [eax],al
0000E21E  0000              add [eax],al
0000E220  0000              add [eax],al
0000E222  0000              add [eax],al
0000E224  0000              add [eax],al
0000E226  0000              add [eax],al
0000E228  0000              add [eax],al
0000E22A  0000              add [eax],al
0000E22C  0000              add [eax],al
0000E22E  0000              add [eax],al
0000E230  0000              add [eax],al
0000E232  0000              add [eax],al
0000E234  0000              add [eax],al
0000E236  0000              add [eax],al
0000E238  0000              add [eax],al
0000E23A  0000              add [eax],al
0000E23C  0000              add [eax],al
0000E23E  0000              add [eax],al
0000E240  0000              add [eax],al
0000E242  0000              add [eax],al
0000E244  0000              add [eax],al
0000E246  0000              add [eax],al
0000E248  0000              add [eax],al
0000E24A  0000              add [eax],al
0000E24C  0000              add [eax],al
0000E24E  0000              add [eax],al
0000E250  0000              add [eax],al
0000E252  0000              add [eax],al
0000E254  0000              add [eax],al
0000E256  0000              add [eax],al
0000E258  0000              add [eax],al
0000E25A  0000              add [eax],al
0000E25C  0000              add [eax],al
0000E25E  0000              add [eax],al
0000E260  0000              add [eax],al
0000E262  0000              add [eax],al
0000E264  0000              add [eax],al
0000E266  0000              add [eax],al
0000E268  0000              add [eax],al
0000E26A  0000              add [eax],al
0000E26C  0000              add [eax],al
0000E26E  0000              add [eax],al
0000E270  0000              add [eax],al
0000E272  0000              add [eax],al
0000E274  0000              add [eax],al
0000E276  0000              add [eax],al
0000E278  0000              add [eax],al
0000E27A  0000              add [eax],al
0000E27C  0000              add [eax],al
0000E27E  0000              add [eax],al
0000E280  0000              add [eax],al
0000E282  0000              add [eax],al
0000E284  0000              add [eax],al
0000E286  0000              add [eax],al
0000E288  0000              add [eax],al
0000E28A  0000              add [eax],al
0000E28C  0000              add [eax],al
0000E28E  0000              add [eax],al
0000E290  0000              add [eax],al
0000E292  0000              add [eax],al
0000E294  0000              add [eax],al
0000E296  0000              add [eax],al
0000E298  0000              add [eax],al
0000E29A  0000              add [eax],al
0000E29C  0000              add [eax],al
0000E29E  0000              add [eax],al
0000E2A0  0000              add [eax],al
0000E2A2  0000              add [eax],al
0000E2A4  0000              add [eax],al
0000E2A6  0000              add [eax],al
0000E2A8  0000              add [eax],al
0000E2AA  0000              add [eax],al
0000E2AC  0000              add [eax],al
0000E2AE  0000              add [eax],al
0000E2B0  0000              add [eax],al
0000E2B2  0000              add [eax],al
0000E2B4  0000              add [eax],al
0000E2B6  0000              add [eax],al
0000E2B8  0000              add [eax],al
0000E2BA  0000              add [eax],al
0000E2BC  0000              add [eax],al
0000E2BE  0000              add [eax],al
0000E2C0  0000              add [eax],al
0000E2C2  0000              add [eax],al
0000E2C4  0000              add [eax],al
0000E2C6  0000              add [eax],al
0000E2C8  0000              add [eax],al
0000E2CA  0000              add [eax],al
0000E2CC  0000              add [eax],al
0000E2CE  0000              add [eax],al
0000E2D0  0000              add [eax],al
0000E2D2  0000              add [eax],al
0000E2D4  0000              add [eax],al
0000E2D6  0000              add [eax],al
0000E2D8  0000              add [eax],al
0000E2DA  0000              add [eax],al
0000E2DC  0000              add [eax],al
0000E2DE  0000              add [eax],al
0000E2E0  0000              add [eax],al
0000E2E2  0000              add [eax],al
0000E2E4  0000              add [eax],al
0000E2E6  0000              add [eax],al
0000E2E8  0000              add [eax],al
0000E2EA  0000              add [eax],al
0000E2EC  0000              add [eax],al
0000E2EE  0000              add [eax],al
0000E2F0  0000              add [eax],al
0000E2F2  0000              add [eax],al
0000E2F4  0000              add [eax],al
0000E2F6  0000              add [eax],al
0000E2F8  0000              add [eax],al
0000E2FA  0000              add [eax],al
0000E2FC  0000              add [eax],al
0000E2FE  0000              add [eax],al
0000E300  0000              add [eax],al
0000E302  0000              add [eax],al
0000E304  0000              add [eax],al
0000E306  0000              add [eax],al
0000E308  0000              add [eax],al
0000E30A  0000              add [eax],al
0000E30C  0000              add [eax],al
0000E30E  0000              add [eax],al
0000E310  0000              add [eax],al
0000E312  0000              add [eax],al
0000E314  0000              add [eax],al
0000E316  0000              add [eax],al
0000E318  0000              add [eax],al
0000E31A  0000              add [eax],al
0000E31C  0000              add [eax],al
0000E31E  0000              add [eax],al
0000E320  0000              add [eax],al
0000E322  0000              add [eax],al
0000E324  0000              add [eax],al
0000E326  0000              add [eax],al
0000E328  0000              add [eax],al
0000E32A  0000              add [eax],al
0000E32C  0000              add [eax],al
0000E32E  0000              add [eax],al
0000E330  0000              add [eax],al
0000E332  0000              add [eax],al
0000E334  0000              add [eax],al
0000E336  0000              add [eax],al
0000E338  0000              add [eax],al
0000E33A  0000              add [eax],al
0000E33C  0000              add [eax],al
0000E33E  0000              add [eax],al
0000E340  0000              add [eax],al
0000E342  0000              add [eax],al
0000E344  0000              add [eax],al
0000E346  0000              add [eax],al
0000E348  0000              add [eax],al
0000E34A  0000              add [eax],al
0000E34C  0000              add [eax],al
0000E34E  0000              add [eax],al
0000E350  0000              add [eax],al
0000E352  0000              add [eax],al
0000E354  0000              add [eax],al
0000E356  0000              add [eax],al
0000E358  0000              add [eax],al
0000E35A  0000              add [eax],al
0000E35C  0000              add [eax],al
0000E35E  0000              add [eax],al
0000E360  0000              add [eax],al
0000E362  0000              add [eax],al
0000E364  0000              add [eax],al
0000E366  0000              add [eax],al
0000E368  0000              add [eax],al
0000E36A  0000              add [eax],al
0000E36C  0000              add [eax],al
0000E36E  0000              add [eax],al
0000E370  0000              add [eax],al
0000E372  0000              add [eax],al
0000E374  0000              add [eax],al
0000E376  0000              add [eax],al
0000E378  0000              add [eax],al
0000E37A  0000              add [eax],al
0000E37C  0000              add [eax],al
0000E37E  0000              add [eax],al
0000E380  0000              add [eax],al
0000E382  0000              add [eax],al
0000E384  0000              add [eax],al
0000E386  0000              add [eax],al
0000E388  0000              add [eax],al
0000E38A  0000              add [eax],al
0000E38C  0000              add [eax],al
0000E38E  0000              add [eax],al
0000E390  0000              add [eax],al
0000E392  0000              add [eax],al
0000E394  0000              add [eax],al
0000E396  0000              add [eax],al
0000E398  0000              add [eax],al
0000E39A  0000              add [eax],al
0000E39C  0000              add [eax],al
0000E39E  0000              add [eax],al
0000E3A0  0000              add [eax],al
0000E3A2  0000              add [eax],al
0000E3A4  0000              add [eax],al
0000E3A6  0000              add [eax],al
0000E3A8  0000              add [eax],al
0000E3AA  0000              add [eax],al
0000E3AC  0000              add [eax],al
0000E3AE  0000              add [eax],al
0000E3B0  0000              add [eax],al
0000E3B2  0000              add [eax],al
0000E3B4  0000              add [eax],al
0000E3B6  0000              add [eax],al
0000E3B8  0000              add [eax],al
0000E3BA  0000              add [eax],al
0000E3BC  0000              add [eax],al
0000E3BE  0000              add [eax],al
0000E3C0  0000              add [eax],al
0000E3C2  0000              add [eax],al
0000E3C4  0000              add [eax],al
0000E3C6  0000              add [eax],al
0000E3C8  0000              add [eax],al
0000E3CA  0000              add [eax],al
0000E3CC  0000              add [eax],al
0000E3CE  0000              add [eax],al
0000E3D0  0000              add [eax],al
0000E3D2  0000              add [eax],al
0000E3D4  0000              add [eax],al
0000E3D6  0000              add [eax],al
0000E3D8  0000              add [eax],al
0000E3DA  0000              add [eax],al
0000E3DC  0000              add [eax],al
0000E3DE  0000              add [eax],al
0000E3E0  0000              add [eax],al
0000E3E2  0000              add [eax],al
0000E3E4  0000              add [eax],al
0000E3E6  0000              add [eax],al
0000E3E8  0000              add [eax],al
0000E3EA  0000              add [eax],al
0000E3EC  0000              add [eax],al
0000E3EE  0000              add [eax],al
0000E3F0  0000              add [eax],al
0000E3F2  0000              add [eax],al
0000E3F4  0000              add [eax],al
0000E3F6  0000              add [eax],al
0000E3F8  0000              add [eax],al
0000E3FA  0000              add [eax],al
0000E3FC  0000              add [eax],al
0000E3FE  0000              add [eax],al
0000E400  0000              add [eax],al
0000E402  0000              add [eax],al
0000E404  0000              add [eax],al
0000E406  0000              add [eax],al
0000E408  0000              add [eax],al
0000E40A  0000              add [eax],al
0000E40C  0000              add [eax],al
0000E40E  0000              add [eax],al
0000E410  0000              add [eax],al
0000E412  0000              add [eax],al
0000E414  0000              add [eax],al
0000E416  0000              add [eax],al
0000E418  0000              add [eax],al
0000E41A  0000              add [eax],al
0000E41C  0000              add [eax],al
0000E41E  0000              add [eax],al
0000E420  0000              add [eax],al
0000E422  0000              add [eax],al
0000E424  0000              add [eax],al
0000E426  0000              add [eax],al
0000E428  0000              add [eax],al
0000E42A  0000              add [eax],al
0000E42C  0000              add [eax],al
0000E42E  0000              add [eax],al
0000E430  0000              add [eax],al
0000E432  0000              add [eax],al
0000E434  0000              add [eax],al
0000E436  0000              add [eax],al
0000E438  0000              add [eax],al
0000E43A  0000              add [eax],al
0000E43C  0000              add [eax],al
0000E43E  0000              add [eax],al
0000E440  0000              add [eax],al
0000E442  0000              add [eax],al
0000E444  0000              add [eax],al
0000E446  0000              add [eax],al
0000E448  0000              add [eax],al
0000E44A  0000              add [eax],al
0000E44C  0000              add [eax],al
0000E44E  0000              add [eax],al
0000E450  0000              add [eax],al
0000E452  0000              add [eax],al
0000E454  0000              add [eax],al
0000E456  0000              add [eax],al
0000E458  0000              add [eax],al
0000E45A  0000              add [eax],al
0000E45C  0000              add [eax],al
0000E45E  0000              add [eax],al
0000E460  0000              add [eax],al
0000E462  0000              add [eax],al
0000E464  0000              add [eax],al
0000E466  0000              add [eax],al
0000E468  0000              add [eax],al
0000E46A  0000              add [eax],al
0000E46C  0000              add [eax],al
0000E46E  0000              add [eax],al
0000E470  0000              add [eax],al
0000E472  0000              add [eax],al
0000E474  0000              add [eax],al
0000E476  0000              add [eax],al
0000E478  0000              add [eax],al
0000E47A  0000              add [eax],al
0000E47C  0000              add [eax],al
0000E47E  0000              add [eax],al
0000E480  0000              add [eax],al
0000E482  0000              add [eax],al
0000E484  0000              add [eax],al
0000E486  0000              add [eax],al
0000E488  0000              add [eax],al
0000E48A  0000              add [eax],al
0000E48C  0000              add [eax],al
0000E48E  0000              add [eax],al
0000E490  0000              add [eax],al
0000E492  0000              add [eax],al
0000E494  0000              add [eax],al
0000E496  0000              add [eax],al
0000E498  0000              add [eax],al
0000E49A  0000              add [eax],al
0000E49C  0000              add [eax],al
0000E49E  0000              add [eax],al
0000E4A0  0000              add [eax],al
0000E4A2  0000              add [eax],al
0000E4A4  0000              add [eax],al
0000E4A6  0000              add [eax],al
0000E4A8  0000              add [eax],al
0000E4AA  0000              add [eax],al
0000E4AC  0000              add [eax],al
0000E4AE  0000              add [eax],al
0000E4B0  0000              add [eax],al
0000E4B2  0000              add [eax],al
0000E4B4  0000              add [eax],al
0000E4B6  0000              add [eax],al
0000E4B8  0000              add [eax],al
0000E4BA  0000              add [eax],al
0000E4BC  0000              add [eax],al
0000E4BE  0000              add [eax],al
0000E4C0  0000              add [eax],al
0000E4C2  0000              add [eax],al
0000E4C4  0000              add [eax],al
0000E4C6  0000              add [eax],al
0000E4C8  0000              add [eax],al
0000E4CA  0000              add [eax],al
0000E4CC  0000              add [eax],al
0000E4CE  0000              add [eax],al
0000E4D0  0000              add [eax],al
0000E4D2  0000              add [eax],al
0000E4D4  0000              add [eax],al
0000E4D6  0000              add [eax],al
0000E4D8  0000              add [eax],al
0000E4DA  0000              add [eax],al
0000E4DC  0000              add [eax],al
0000E4DE  0000              add [eax],al
0000E4E0  0000              add [eax],al
0000E4E2  0000              add [eax],al
0000E4E4  0000              add [eax],al
0000E4E6  0000              add [eax],al
0000E4E8  0000              add [eax],al
0000E4EA  0000              add [eax],al
0000E4EC  0000              add [eax],al
0000E4EE  0000              add [eax],al
0000E4F0  0000              add [eax],al
0000E4F2  0000              add [eax],al
0000E4F4  0000              add [eax],al
0000E4F6  0000              add [eax],al
0000E4F8  0000              add [eax],al
0000E4FA  0000              add [eax],al
0000E4FC  0000              add [eax],al
0000E4FE  0000              add [eax],al
0000E500  0000              add [eax],al
0000E502  0000              add [eax],al
0000E504  0000              add [eax],al
0000E506  0000              add [eax],al
0000E508  0000              add [eax],al
0000E50A  0000              add [eax],al
0000E50C  0000              add [eax],al
0000E50E  0000              add [eax],al
0000E510  0000              add [eax],al
0000E512  0000              add [eax],al
0000E514  0000              add [eax],al
0000E516  0000              add [eax],al
0000E518  0000              add [eax],al
0000E51A  0000              add [eax],al
0000E51C  0000              add [eax],al
0000E51E  0000              add [eax],al
0000E520  0000              add [eax],al
0000E522  0000              add [eax],al
0000E524  0000              add [eax],al
0000E526  0000              add [eax],al
0000E528  0000              add [eax],al
0000E52A  0000              add [eax],al
0000E52C  0000              add [eax],al
0000E52E  0000              add [eax],al
0000E530  0000              add [eax],al
0000E532  0000              add [eax],al
0000E534  0000              add [eax],al
0000E536  0000              add [eax],al
0000E538  0000              add [eax],al
0000E53A  0000              add [eax],al
0000E53C  0000              add [eax],al
0000E53E  0000              add [eax],al
0000E540  0000              add [eax],al
0000E542  0000              add [eax],al
0000E544  0000              add [eax],al
0000E546  0000              add [eax],al
0000E548  0000              add [eax],al
0000E54A  0000              add [eax],al
0000E54C  0000              add [eax],al
0000E54E  0000              add [eax],al
0000E550  0000              add [eax],al
0000E552  0000              add [eax],al
0000E554  0000              add [eax],al
0000E556  0000              add [eax],al
0000E558  0000              add [eax],al
0000E55A  0000              add [eax],al
0000E55C  0000              add [eax],al
0000E55E  0000              add [eax],al
0000E560  0000              add [eax],al
0000E562  0000              add [eax],al
0000E564  0000              add [eax],al
0000E566  0000              add [eax],al
0000E568  0000              add [eax],al
0000E56A  0000              add [eax],al
0000E56C  0000              add [eax],al
0000E56E  0000              add [eax],al
0000E570  0000              add [eax],al
0000E572  0000              add [eax],al
0000E574  0000              add [eax],al
0000E576  0000              add [eax],al
0000E578  0000              add [eax],al
0000E57A  0000              add [eax],al
0000E57C  0000              add [eax],al
0000E57E  0000              add [eax],al
0000E580  0000              add [eax],al
0000E582  0000              add [eax],al
0000E584  0000              add [eax],al
0000E586  0000              add [eax],al
0000E588  0000              add [eax],al
0000E58A  0000              add [eax],al
0000E58C  0000              add [eax],al
0000E58E  0000              add [eax],al
0000E590  0000              add [eax],al
0000E592  0000              add [eax],al
0000E594  0000              add [eax],al
0000E596  0000              add [eax],al
0000E598  0000              add [eax],al
0000E59A  0000              add [eax],al
0000E59C  0000              add [eax],al
0000E59E  0000              add [eax],al
0000E5A0  0000              add [eax],al
0000E5A2  0000              add [eax],al
0000E5A4  0000              add [eax],al
0000E5A6  0000              add [eax],al
0000E5A8  0000              add [eax],al
0000E5AA  0000              add [eax],al
0000E5AC  0000              add [eax],al
0000E5AE  0000              add [eax],al
0000E5B0  0000              add [eax],al
0000E5B2  0000              add [eax],al
0000E5B4  0000              add [eax],al
0000E5B6  0000              add [eax],al
0000E5B8  0000              add [eax],al
0000E5BA  0000              add [eax],al
0000E5BC  0000              add [eax],al
0000E5BE  0000              add [eax],al
0000E5C0  0000              add [eax],al
0000E5C2  0000              add [eax],al
0000E5C4  0000              add [eax],al
0000E5C6  0000              add [eax],al
0000E5C8  0000              add [eax],al
0000E5CA  0000              add [eax],al
0000E5CC  0000              add [eax],al
0000E5CE  0000              add [eax],al
0000E5D0  0000              add [eax],al
0000E5D2  0000              add [eax],al
0000E5D4  0000              add [eax],al
0000E5D6  0000              add [eax],al
0000E5D8  0000              add [eax],al
0000E5DA  0000              add [eax],al
0000E5DC  0000              add [eax],al
0000E5DE  0000              add [eax],al
0000E5E0  0000              add [eax],al
0000E5E2  0000              add [eax],al
0000E5E4  0000              add [eax],al
0000E5E6  0000              add [eax],al
0000E5E8  0000              add [eax],al
0000E5EA  0000              add [eax],al
0000E5EC  0000              add [eax],al
0000E5EE  0000              add [eax],al
0000E5F0  0000              add [eax],al
0000E5F2  0000              add [eax],al
0000E5F4  0000              add [eax],al
0000E5F6  0000              add [eax],al
0000E5F8  0000              add [eax],al
0000E5FA  0000              add [eax],al
0000E5FC  0000              add [eax],al
0000E5FE  0000              add [eax],al
0000E600  0000              add [eax],al
0000E602  0000              add [eax],al
0000E604  0000              add [eax],al
0000E606  0000              add [eax],al
0000E608  0000              add [eax],al
0000E60A  0000              add [eax],al
0000E60C  0000              add [eax],al
0000E60E  0000              add [eax],al
0000E610  0000              add [eax],al
0000E612  0000              add [eax],al
0000E614  0000              add [eax],al
0000E616  0000              add [eax],al
0000E618  0000              add [eax],al
0000E61A  0000              add [eax],al
0000E61C  0000              add [eax],al
0000E61E  0000              add [eax],al
0000E620  0000              add [eax],al
0000E622  0000              add [eax],al
0000E624  0000              add [eax],al
0000E626  0000              add [eax],al
0000E628  0000              add [eax],al
0000E62A  0000              add [eax],al
0000E62C  0000              add [eax],al
0000E62E  0000              add [eax],al
0000E630  0000              add [eax],al
0000E632  0000              add [eax],al
0000E634  0000              add [eax],al
0000E636  0000              add [eax],al
0000E638  0000              add [eax],al
0000E63A  0000              add [eax],al
0000E63C  0000              add [eax],al
0000E63E  0000              add [eax],al
0000E640  0000              add [eax],al
0000E642  0000              add [eax],al
0000E644  0000              add [eax],al
0000E646  0000              add [eax],al
0000E648  0000              add [eax],al
0000E64A  0000              add [eax],al
0000E64C  0000              add [eax],al
0000E64E  0000              add [eax],al
0000E650  0000              add [eax],al
0000E652  0000              add [eax],al
0000E654  0000              add [eax],al
0000E656  0000              add [eax],al
0000E658  0000              add [eax],al
0000E65A  0000              add [eax],al
0000E65C  0000              add [eax],al
0000E65E  0000              add [eax],al
0000E660  0000              add [eax],al
0000E662  0000              add [eax],al
0000E664  0000              add [eax],al
0000E666  0000              add [eax],al
0000E668  0000              add [eax],al
0000E66A  0000              add [eax],al
0000E66C  0000              add [eax],al
0000E66E  0000              add [eax],al
0000E670  0000              add [eax],al
0000E672  0000              add [eax],al
0000E674  0000              add [eax],al
0000E676  0000              add [eax],al
0000E678  0000              add [eax],al
0000E67A  0000              add [eax],al
0000E67C  0000              add [eax],al
0000E67E  0000              add [eax],al
0000E680  0000              add [eax],al
0000E682  0000              add [eax],al
0000E684  0000              add [eax],al
0000E686  0000              add [eax],al
0000E688  0000              add [eax],al
0000E68A  0000              add [eax],al
0000E68C  0000              add [eax],al
0000E68E  0000              add [eax],al
0000E690  0000              add [eax],al
0000E692  0000              add [eax],al
0000E694  0000              add [eax],al
0000E696  0000              add [eax],al
0000E698  0000              add [eax],al
0000E69A  0000              add [eax],al
0000E69C  0000              add [eax],al
0000E69E  0000              add [eax],al
0000E6A0  0000              add [eax],al
0000E6A2  0000              add [eax],al
0000E6A4  0000              add [eax],al
0000E6A6  0000              add [eax],al
0000E6A8  0000              add [eax],al
0000E6AA  0000              add [eax],al
0000E6AC  0000              add [eax],al
0000E6AE  0000              add [eax],al
0000E6B0  0000              add [eax],al
0000E6B2  0000              add [eax],al
0000E6B4  0000              add [eax],al
0000E6B6  0000              add [eax],al
0000E6B8  0000              add [eax],al
0000E6BA  0000              add [eax],al
0000E6BC  0000              add [eax],al
0000E6BE  0000              add [eax],al
0000E6C0  0000              add [eax],al
0000E6C2  0000              add [eax],al
0000E6C4  0000              add [eax],al
0000E6C6  0000              add [eax],al
0000E6C8  0000              add [eax],al
0000E6CA  0000              add [eax],al
0000E6CC  0000              add [eax],al
0000E6CE  0000              add [eax],al
0000E6D0  0000              add [eax],al
0000E6D2  0000              add [eax],al
0000E6D4  0000              add [eax],al
0000E6D6  0000              add [eax],al
0000E6D8  0000              add [eax],al
0000E6DA  0000              add [eax],al
0000E6DC  0000              add [eax],al
0000E6DE  0000              add [eax],al
0000E6E0  0000              add [eax],al
0000E6E2  0000              add [eax],al
0000E6E4  0000              add [eax],al
0000E6E6  0000              add [eax],al
0000E6E8  0000              add [eax],al
0000E6EA  0000              add [eax],al
0000E6EC  0000              add [eax],al
0000E6EE  0000              add [eax],al
0000E6F0  0000              add [eax],al
0000E6F2  0000              add [eax],al
0000E6F4  0000              add [eax],al
0000E6F6  0000              add [eax],al
0000E6F8  0000              add [eax],al
0000E6FA  0000              add [eax],al
0000E6FC  0000              add [eax],al
0000E6FE  0000              add [eax],al
0000E700  0000              add [eax],al
0000E702  0000              add [eax],al
0000E704  0000              add [eax],al
0000E706  0000              add [eax],al
0000E708  0000              add [eax],al
0000E70A  0000              add [eax],al
0000E70C  0000              add [eax],al
0000E70E  0000              add [eax],al
0000E710  0000              add [eax],al
0000E712  0000              add [eax],al
0000E714  0000              add [eax],al
0000E716  0000              add [eax],al
0000E718  0000              add [eax],al
0000E71A  0000              add [eax],al
0000E71C  0000              add [eax],al
0000E71E  0000              add [eax],al
0000E720  0000              add [eax],al
0000E722  0000              add [eax],al
0000E724  0000              add [eax],al
0000E726  0000              add [eax],al
0000E728  0000              add [eax],al
0000E72A  0000              add [eax],al
0000E72C  0000              add [eax],al
0000E72E  0000              add [eax],al
0000E730  0000              add [eax],al
0000E732  0000              add [eax],al
0000E734  0000              add [eax],al
0000E736  0000              add [eax],al
0000E738  0000              add [eax],al
0000E73A  0000              add [eax],al
0000E73C  0000              add [eax],al
0000E73E  0000              add [eax],al
0000E740  0000              add [eax],al
0000E742  0000              add [eax],al
0000E744  0000              add [eax],al
0000E746  0000              add [eax],al
0000E748  0000              add [eax],al
0000E74A  0000              add [eax],al
0000E74C  0000              add [eax],al
0000E74E  0000              add [eax],al
0000E750  0000              add [eax],al
0000E752  0000              add [eax],al
0000E754  0000              add [eax],al
0000E756  0000              add [eax],al
0000E758  0000              add [eax],al
0000E75A  0000              add [eax],al
0000E75C  0000              add [eax],al
0000E75E  0000              add [eax],al
0000E760  0000              add [eax],al
0000E762  0000              add [eax],al
0000E764  0000              add [eax],al
0000E766  0000              add [eax],al
0000E768  0000              add [eax],al
0000E76A  0000              add [eax],al
0000E76C  0000              add [eax],al
0000E76E  0000              add [eax],al
0000E770  0000              add [eax],al
0000E772  0000              add [eax],al
0000E774  0000              add [eax],al
0000E776  0000              add [eax],al
0000E778  0000              add [eax],al
0000E77A  0000              add [eax],al
0000E77C  0000              add [eax],al
0000E77E  0000              add [eax],al
0000E780  0000              add [eax],al
0000E782  0000              add [eax],al
0000E784  0000              add [eax],al
0000E786  0000              add [eax],al
0000E788  0000              add [eax],al
0000E78A  0000              add [eax],al
0000E78C  0000              add [eax],al
0000E78E  0000              add [eax],al
0000E790  0000              add [eax],al
0000E792  0000              add [eax],al
0000E794  0000              add [eax],al
0000E796  0000              add [eax],al
0000E798  0000              add [eax],al
0000E79A  0000              add [eax],al
0000E79C  0000              add [eax],al
0000E79E  0000              add [eax],al
0000E7A0  0000              add [eax],al
0000E7A2  0000              add [eax],al
0000E7A4  0000              add [eax],al
0000E7A6  0000              add [eax],al
0000E7A8  0000              add [eax],al
0000E7AA  0000              add [eax],al
0000E7AC  0000              add [eax],al
0000E7AE  0000              add [eax],al
0000E7B0  0000              add [eax],al
0000E7B2  0000              add [eax],al
0000E7B4  0000              add [eax],al
0000E7B6  0000              add [eax],al
0000E7B8  0000              add [eax],al
0000E7BA  0000              add [eax],al
0000E7BC  0000              add [eax],al
0000E7BE  0000              add [eax],al
0000E7C0  0000              add [eax],al
0000E7C2  0000              add [eax],al
0000E7C4  0000              add [eax],al
0000E7C6  0000              add [eax],al
0000E7C8  0000              add [eax],al
0000E7CA  0000              add [eax],al
0000E7CC  0000              add [eax],al
0000E7CE  0000              add [eax],al
0000E7D0  0000              add [eax],al
0000E7D2  0000              add [eax],al
0000E7D4  0000              add [eax],al
0000E7D6  0000              add [eax],al
0000E7D8  0000              add [eax],al
0000E7DA  0000              add [eax],al
0000E7DC  0000              add [eax],al
0000E7DE  0000              add [eax],al
0000E7E0  0000              add [eax],al
0000E7E2  0000              add [eax],al
0000E7E4  0000              add [eax],al
0000E7E6  0000              add [eax],al
0000E7E8  0000              add [eax],al
0000E7EA  0000              add [eax],al
0000E7EC  0000              add [eax],al
0000E7EE  0000              add [eax],al
0000E7F0  0000              add [eax],al
0000E7F2  0000              add [eax],al
0000E7F4  0000              add [eax],al
0000E7F6  0000              add [eax],al
0000E7F8  0000              add [eax],al
0000E7FA  0000              add [eax],al
0000E7FC  0000              add [eax],al
0000E7FE  0000              add [eax],al
0000E800  0000              add [eax],al
0000E802  0000              add [eax],al
0000E804  0000              add [eax],al
0000E806  0000              add [eax],al
0000E808  0000              add [eax],al
0000E80A  0000              add [eax],al
0000E80C  0000              add [eax],al
0000E80E  0000              add [eax],al
0000E810  0000              add [eax],al
0000E812  0000              add [eax],al
0000E814  0000              add [eax],al
0000E816  0000              add [eax],al
0000E818  0000              add [eax],al
0000E81A  0000              add [eax],al
0000E81C  0000              add [eax],al
0000E81E  0000              add [eax],al
0000E820  0000              add [eax],al
0000E822  0000              add [eax],al
0000E824  0000              add [eax],al
0000E826  0000              add [eax],al
0000E828  0000              add [eax],al
0000E82A  0000              add [eax],al
0000E82C  0000              add [eax],al
0000E82E  0000              add [eax],al
0000E830  0000              add [eax],al
0000E832  0000              add [eax],al
0000E834  0000              add [eax],al
0000E836  0000              add [eax],al
0000E838  0000              add [eax],al
0000E83A  0000              add [eax],al
0000E83C  0000              add [eax],al
0000E83E  0000              add [eax],al
0000E840  0000              add [eax],al
0000E842  0000              add [eax],al
0000E844  0000              add [eax],al
0000E846  0000              add [eax],al
0000E848  0000              add [eax],al
0000E84A  0000              add [eax],al
0000E84C  0000              add [eax],al
0000E84E  0000              add [eax],al
0000E850  0000              add [eax],al
0000E852  0000              add [eax],al
0000E854  0000              add [eax],al
0000E856  0000              add [eax],al
0000E858  0000              add [eax],al
0000E85A  0000              add [eax],al
0000E85C  0000              add [eax],al
0000E85E  0000              add [eax],al
0000E860  0000              add [eax],al
0000E862  0000              add [eax],al
0000E864  0000              add [eax],al
0000E866  0000              add [eax],al
0000E868  0000              add [eax],al
0000E86A  0000              add [eax],al
0000E86C  0000              add [eax],al
0000E86E  0000              add [eax],al
0000E870  0000              add [eax],al
0000E872  0000              add [eax],al
0000E874  0000              add [eax],al
0000E876  0000              add [eax],al
0000E878  0000              add [eax],al
0000E87A  0000              add [eax],al
0000E87C  0000              add [eax],al
0000E87E  0000              add [eax],al
0000E880  0000              add [eax],al
0000E882  0000              add [eax],al
0000E884  0000              add [eax],al
0000E886  0000              add [eax],al
0000E888  0000              add [eax],al
0000E88A  0000              add [eax],al
0000E88C  0000              add [eax],al
0000E88E  0000              add [eax],al
0000E890  0000              add [eax],al
0000E892  0000              add [eax],al
0000E894  0000              add [eax],al
0000E896  0000              add [eax],al
0000E898  0000              add [eax],al
0000E89A  0000              add [eax],al
0000E89C  0000              add [eax],al
0000E89E  0000              add [eax],al
0000E8A0  0000              add [eax],al
0000E8A2  0000              add [eax],al
0000E8A4  0000              add [eax],al
0000E8A6  0000              add [eax],al
0000E8A8  0000              add [eax],al
0000E8AA  0000              add [eax],al
0000E8AC  0000              add [eax],al
0000E8AE  0000              add [eax],al
0000E8B0  0000              add [eax],al
0000E8B2  0000              add [eax],al
0000E8B4  0000              add [eax],al
0000E8B6  0000              add [eax],al
0000E8B8  0000              add [eax],al
0000E8BA  0000              add [eax],al
0000E8BC  0000              add [eax],al
0000E8BE  0000              add [eax],al
0000E8C0  0000              add [eax],al
0000E8C2  0000              add [eax],al
0000E8C4  0000              add [eax],al
0000E8C6  0000              add [eax],al
0000E8C8  0000              add [eax],al
0000E8CA  0000              add [eax],al
0000E8CC  0000              add [eax],al
0000E8CE  0000              add [eax],al
0000E8D0  0000              add [eax],al
0000E8D2  0000              add [eax],al
0000E8D4  0000              add [eax],al
0000E8D6  0000              add [eax],al
0000E8D8  0000              add [eax],al
0000E8DA  0000              add [eax],al
0000E8DC  0000              add [eax],al
0000E8DE  0000              add [eax],al
0000E8E0  0000              add [eax],al
0000E8E2  0000              add [eax],al
0000E8E4  0000              add [eax],al
0000E8E6  0000              add [eax],al
0000E8E8  0000              add [eax],al
0000E8EA  0000              add [eax],al
0000E8EC  0000              add [eax],al
0000E8EE  0000              add [eax],al
0000E8F0  0000              add [eax],al
0000E8F2  0000              add [eax],al
0000E8F4  0000              add [eax],al
0000E8F6  0000              add [eax],al
0000E8F8  0000              add [eax],al
0000E8FA  0000              add [eax],al
0000E8FC  0000              add [eax],al
0000E8FE  0000              add [eax],al
0000E900  0000              add [eax],al
0000E902  0000              add [eax],al
0000E904  0000              add [eax],al
0000E906  0000              add [eax],al
0000E908  0000              add [eax],al
0000E90A  0000              add [eax],al
0000E90C  0000              add [eax],al
0000E90E  0000              add [eax],al
0000E910  0000              add [eax],al
0000E912  0000              add [eax],al
0000E914  0000              add [eax],al
0000E916  0000              add [eax],al
0000E918  0000              add [eax],al
0000E91A  0000              add [eax],al
0000E91C  0000              add [eax],al
0000E91E  0000              add [eax],al
0000E920  0000              add [eax],al
0000E922  0000              add [eax],al
0000E924  0000              add [eax],al
0000E926  0000              add [eax],al
0000E928  0000              add [eax],al
0000E92A  0000              add [eax],al
0000E92C  0000              add [eax],al
0000E92E  0000              add [eax],al
0000E930  0000              add [eax],al
0000E932  0000              add [eax],al
0000E934  0000              add [eax],al
0000E936  0000              add [eax],al
0000E938  0000              add [eax],al
0000E93A  0000              add [eax],al
0000E93C  0000              add [eax],al
0000E93E  0000              add [eax],al
0000E940  0000              add [eax],al
0000E942  0000              add [eax],al
0000E944  0000              add [eax],al
0000E946  0000              add [eax],al
0000E948  0000              add [eax],al
0000E94A  0000              add [eax],al
0000E94C  0000              add [eax],al
0000E94E  0000              add [eax],al
0000E950  0000              add [eax],al
0000E952  0000              add [eax],al
0000E954  0000              add [eax],al
0000E956  0000              add [eax],al
0000E958  0000              add [eax],al
0000E95A  0000              add [eax],al
0000E95C  0000              add [eax],al
0000E95E  0000              add [eax],al
0000E960  0000              add [eax],al
0000E962  0000              add [eax],al
0000E964  0000              add [eax],al
0000E966  0000              add [eax],al
0000E968  0000              add [eax],al
0000E96A  0000              add [eax],al
0000E96C  0000              add [eax],al
0000E96E  0000              add [eax],al
0000E970  0000              add [eax],al
0000E972  0000              add [eax],al
0000E974  0000              add [eax],al
0000E976  0000              add [eax],al
0000E978  0000              add [eax],al
0000E97A  0000              add [eax],al
0000E97C  0000              add [eax],al
0000E97E  0000              add [eax],al
0000E980  0000              add [eax],al
0000E982  0000              add [eax],al
0000E984  0000              add [eax],al
0000E986  0000              add [eax],al
0000E988  0000              add [eax],al
0000E98A  0000              add [eax],al
0000E98C  0000              add [eax],al
0000E98E  0000              add [eax],al
0000E990  0000              add [eax],al
0000E992  0000              add [eax],al
0000E994  0000              add [eax],al
0000E996  0000              add [eax],al
0000E998  0000              add [eax],al
0000E99A  0000              add [eax],al
0000E99C  0000              add [eax],al
0000E99E  0000              add [eax],al
0000E9A0  0000              add [eax],al
0000E9A2  0000              add [eax],al
0000E9A4  0000              add [eax],al
0000E9A6  0000              add [eax],al
0000E9A8  0000              add [eax],al
0000E9AA  0000              add [eax],al
0000E9AC  0000              add [eax],al
0000E9AE  0000              add [eax],al
0000E9B0  0000              add [eax],al
0000E9B2  0000              add [eax],al
0000E9B4  0000              add [eax],al
0000E9B6  0000              add [eax],al
0000E9B8  0000              add [eax],al
0000E9BA  0000              add [eax],al
0000E9BC  0000              add [eax],al
0000E9BE  0000              add [eax],al
0000E9C0  0000              add [eax],al
0000E9C2  0000              add [eax],al
0000E9C4  0000              add [eax],al
0000E9C6  0000              add [eax],al
0000E9C8  0000              add [eax],al
0000E9CA  0000              add [eax],al
0000E9CC  0000              add [eax],al
0000E9CE  0000              add [eax],al
0000E9D0  0000              add [eax],al
0000E9D2  0000              add [eax],al
0000E9D4  0000              add [eax],al
0000E9D6  0000              add [eax],al
0000E9D8  0000              add [eax],al
0000E9DA  0000              add [eax],al
0000E9DC  0000              add [eax],al
0000E9DE  0000              add [eax],al
0000E9E0  0000              add [eax],al
0000E9E2  0000              add [eax],al
0000E9E4  0000              add [eax],al
0000E9E6  0000              add [eax],al
0000E9E8  0000              add [eax],al
0000E9EA  0000              add [eax],al
0000E9EC  0000              add [eax],al
0000E9EE  0000              add [eax],al
0000E9F0  0000              add [eax],al
0000E9F2  0000              add [eax],al
0000E9F4  0000              add [eax],al
0000E9F6  0000              add [eax],al
0000E9F8  0000              add [eax],al
0000E9FA  0000              add [eax],al
0000E9FC  0000              add [eax],al
0000E9FE  0000              add [eax],al
0000EA00  0000              add [eax],al
0000EA02  0000              add [eax],al
0000EA04  0000              add [eax],al
0000EA06  0000              add [eax],al
0000EA08  0000              add [eax],al
0000EA0A  0000              add [eax],al
0000EA0C  0000              add [eax],al
0000EA0E  0000              add [eax],al
0000EA10  0000              add [eax],al
0000EA12  0000              add [eax],al
0000EA14  0000              add [eax],al
0000EA16  0000              add [eax],al
0000EA18  0000              add [eax],al
0000EA1A  0000              add [eax],al
0000EA1C  0000              add [eax],al
0000EA1E  0000              add [eax],al
0000EA20  0000              add [eax],al
0000EA22  0000              add [eax],al
0000EA24  0000              add [eax],al
0000EA26  0000              add [eax],al
0000EA28  0000              add [eax],al
0000EA2A  0000              add [eax],al
0000EA2C  0000              add [eax],al
0000EA2E  0000              add [eax],al
0000EA30  0000              add [eax],al
0000EA32  0000              add [eax],al
0000EA34  0000              add [eax],al
0000EA36  0000              add [eax],al
0000EA38  0000              add [eax],al
0000EA3A  0000              add [eax],al
0000EA3C  0000              add [eax],al
0000EA3E  0000              add [eax],al
0000EA40  0000              add [eax],al
0000EA42  0000              add [eax],al
0000EA44  0000              add [eax],al
0000EA46  0000              add [eax],al
0000EA48  0000              add [eax],al
0000EA4A  0000              add [eax],al
0000EA4C  0000              add [eax],al
0000EA4E  0000              add [eax],al
0000EA50  0000              add [eax],al
0000EA52  0000              add [eax],al
0000EA54  0000              add [eax],al
0000EA56  0000              add [eax],al
0000EA58  0000              add [eax],al
0000EA5A  0000              add [eax],al
0000EA5C  0000              add [eax],al
0000EA5E  0000              add [eax],al
0000EA60  0000              add [eax],al
0000EA62  0000              add [eax],al
0000EA64  0000              add [eax],al
0000EA66  0000              add [eax],al
0000EA68  0000              add [eax],al
0000EA6A  0000              add [eax],al
0000EA6C  0000              add [eax],al
0000EA6E  0000              add [eax],al
0000EA70  0000              add [eax],al
0000EA72  0000              add [eax],al
0000EA74  0000              add [eax],al
0000EA76  0000              add [eax],al
0000EA78  0000              add [eax],al
0000EA7A  0000              add [eax],al
0000EA7C  0000              add [eax],al
0000EA7E  0000              add [eax],al
0000EA80  0000              add [eax],al
0000EA82  0000              add [eax],al
0000EA84  0000              add [eax],al
0000EA86  0000              add [eax],al
0000EA88  0000              add [eax],al
0000EA8A  0000              add [eax],al
0000EA8C  0000              add [eax],al
0000EA8E  0000              add [eax],al
0000EA90  0000              add [eax],al
0000EA92  0000              add [eax],al
0000EA94  0000              add [eax],al
0000EA96  0000              add [eax],al
0000EA98  0000              add [eax],al
0000EA9A  0000              add [eax],al
0000EA9C  0000              add [eax],al
0000EA9E  0000              add [eax],al
0000EAA0  0000              add [eax],al
0000EAA2  0000              add [eax],al
0000EAA4  0000              add [eax],al
0000EAA6  0000              add [eax],al
0000EAA8  0000              add [eax],al
0000EAAA  0000              add [eax],al
0000EAAC  0000              add [eax],al
0000EAAE  0000              add [eax],al
0000EAB0  0000              add [eax],al
0000EAB2  0000              add [eax],al
0000EAB4  0000              add [eax],al
0000EAB6  0000              add [eax],al
0000EAB8  0000              add [eax],al
0000EABA  0000              add [eax],al
0000EABC  0000              add [eax],al
0000EABE  0000              add [eax],al
0000EAC0  0000              add [eax],al
0000EAC2  0000              add [eax],al
0000EAC4  0000              add [eax],al
0000EAC6  0000              add [eax],al
0000EAC8  0000              add [eax],al
0000EACA  0000              add [eax],al
0000EACC  0000              add [eax],al
0000EACE  0000              add [eax],al
0000EAD0  0000              add [eax],al
0000EAD2  0000              add [eax],al
0000EAD4  0000              add [eax],al
0000EAD6  0000              add [eax],al
0000EAD8  0000              add [eax],al
0000EADA  0000              add [eax],al
0000EADC  0000              add [eax],al
0000EADE  0000              add [eax],al
0000EAE0  0000              add [eax],al
0000EAE2  0000              add [eax],al
0000EAE4  0000              add [eax],al
0000EAE6  0000              add [eax],al
0000EAE8  0000              add [eax],al
0000EAEA  0000              add [eax],al
0000EAEC  0000              add [eax],al
0000EAEE  0000              add [eax],al
0000EAF0  0000              add [eax],al
0000EAF2  0000              add [eax],al
0000EAF4  0000              add [eax],al
0000EAF6  0000              add [eax],al
0000EAF8  0000              add [eax],al
0000EAFA  0000              add [eax],al
0000EAFC  0000              add [eax],al
0000EAFE  0000              add [eax],al
0000EB00  0000              add [eax],al
0000EB02  0000              add [eax],al
0000EB04  0000              add [eax],al
0000EB06  0000              add [eax],al
0000EB08  0000              add [eax],al
0000EB0A  0000              add [eax],al
0000EB0C  0000              add [eax],al
0000EB0E  0000              add [eax],al
0000EB10  0000              add [eax],al
0000EB12  0000              add [eax],al
0000EB14  0000              add [eax],al
0000EB16  0000              add [eax],al
0000EB18  0000              add [eax],al
0000EB1A  0000              add [eax],al
0000EB1C  0000              add [eax],al
0000EB1E  0000              add [eax],al
0000EB20  0000              add [eax],al
0000EB22  0000              add [eax],al
0000EB24  0000              add [eax],al
0000EB26  0000              add [eax],al
0000EB28  0000              add [eax],al
0000EB2A  0000              add [eax],al
0000EB2C  0000              add [eax],al
0000EB2E  0000              add [eax],al
0000EB30  0000              add [eax],al
0000EB32  0000              add [eax],al
0000EB34  0000              add [eax],al
0000EB36  0000              add [eax],al
0000EB38  0000              add [eax],al
0000EB3A  0000              add [eax],al
0000EB3C  0000              add [eax],al
0000EB3E  0000              add [eax],al
0000EB40  0000              add [eax],al
0000EB42  0000              add [eax],al
0000EB44  0000              add [eax],al
0000EB46  0000              add [eax],al
0000EB48  0000              add [eax],al
0000EB4A  0000              add [eax],al
0000EB4C  0000              add [eax],al
0000EB4E  0000              add [eax],al
0000EB50  0000              add [eax],al
0000EB52  0000              add [eax],al
0000EB54  0000              add [eax],al
0000EB56  0000              add [eax],al
0000EB58  0000              add [eax],al
0000EB5A  0000              add [eax],al
0000EB5C  0000              add [eax],al
0000EB5E  0000              add [eax],al
0000EB60  0000              add [eax],al
0000EB62  0000              add [eax],al
0000EB64  0000              add [eax],al
0000EB66  0000              add [eax],al
0000EB68  0000              add [eax],al
0000EB6A  0000              add [eax],al
0000EB6C  0000              add [eax],al
0000EB6E  0000              add [eax],al
0000EB70  0000              add [eax],al
0000EB72  0000              add [eax],al
0000EB74  0000              add [eax],al
0000EB76  0000              add [eax],al
0000EB78  0000              add [eax],al
0000EB7A  0000              add [eax],al
0000EB7C  0000              add [eax],al
0000EB7E  0000              add [eax],al
0000EB80  0000              add [eax],al
0000EB82  0000              add [eax],al
0000EB84  0000              add [eax],al
0000EB86  0000              add [eax],al
0000EB88  0000              add [eax],al
0000EB8A  0000              add [eax],al
0000EB8C  0000              add [eax],al
0000EB8E  0000              add [eax],al
0000EB90  0000              add [eax],al
0000EB92  0000              add [eax],al
0000EB94  0000              add [eax],al
0000EB96  0000              add [eax],al
0000EB98  0000              add [eax],al
0000EB9A  0000              add [eax],al
0000EB9C  0000              add [eax],al
0000EB9E  0000              add [eax],al
0000EBA0  0000              add [eax],al
0000EBA2  0000              add [eax],al
0000EBA4  0000              add [eax],al
0000EBA6  0000              add [eax],al
0000EBA8  0000              add [eax],al
0000EBAA  0000              add [eax],al
0000EBAC  0000              add [eax],al
0000EBAE  0000              add [eax],al
0000EBB0  0000              add [eax],al
0000EBB2  0000              add [eax],al
0000EBB4  0000              add [eax],al
0000EBB6  0000              add [eax],al
0000EBB8  0000              add [eax],al
0000EBBA  0000              add [eax],al
0000EBBC  0000              add [eax],al
0000EBBE  0000              add [eax],al
0000EBC0  0000              add [eax],al
0000EBC2  0000              add [eax],al
0000EBC4  0000              add [eax],al
0000EBC6  0000              add [eax],al
0000EBC8  0000              add [eax],al
0000EBCA  0000              add [eax],al
0000EBCC  0000              add [eax],al
0000EBCE  0000              add [eax],al
0000EBD0  0000              add [eax],al
0000EBD2  0000              add [eax],al
0000EBD4  0000              add [eax],al
0000EBD6  0000              add [eax],al
0000EBD8  0000              add [eax],al
0000EBDA  0000              add [eax],al
0000EBDC  0000              add [eax],al
0000EBDE  0000              add [eax],al
0000EBE0  0000              add [eax],al
0000EBE2  0000              add [eax],al
0000EBE4  0000              add [eax],al
0000EBE6  0000              add [eax],al
0000EBE8  0000              add [eax],al
0000EBEA  0000              add [eax],al
0000EBEC  0000              add [eax],al
0000EBEE  0000              add [eax],al
0000EBF0  0000              add [eax],al
0000EBF2  0000              add [eax],al
0000EBF4  0000              add [eax],al
0000EBF6  0000              add [eax],al
0000EBF8  0000              add [eax],al
0000EBFA  0000              add [eax],al
0000EBFC  0000              add [eax],al
0000EBFE  0000              add [eax],al
0000EC00  0000              add [eax],al
0000EC02  0000              add [eax],al
0000EC04  0000              add [eax],al
0000EC06  0000              add [eax],al
0000EC08  0000              add [eax],al
0000EC0A  0000              add [eax],al
0000EC0C  0000              add [eax],al
0000EC0E  0000              add [eax],al
0000EC10  0000              add [eax],al
0000EC12  0000              add [eax],al
0000EC14  0000              add [eax],al
0000EC16  0000              add [eax],al
0000EC18  0000              add [eax],al
0000EC1A  0000              add [eax],al
0000EC1C  0000              add [eax],al
0000EC1E  0000              add [eax],al
0000EC20  0000              add [eax],al
0000EC22  0000              add [eax],al
0000EC24  0000              add [eax],al
0000EC26  0000              add [eax],al
0000EC28  0000              add [eax],al
0000EC2A  0000              add [eax],al
0000EC2C  0000              add [eax],al
0000EC2E  0000              add [eax],al
0000EC30  0000              add [eax],al
0000EC32  0000              add [eax],al
0000EC34  0000              add [eax],al
0000EC36  0000              add [eax],al
0000EC38  0000              add [eax],al
0000EC3A  0000              add [eax],al
0000EC3C  0000              add [eax],al
0000EC3E  0000              add [eax],al
0000EC40  0000              add [eax],al
0000EC42  0000              add [eax],al
0000EC44  0000              add [eax],al
0000EC46  0000              add [eax],al
0000EC48  0000              add [eax],al
0000EC4A  0000              add [eax],al
0000EC4C  0000              add [eax],al
0000EC4E  0000              add [eax],al
0000EC50  0000              add [eax],al
0000EC52  0000              add [eax],al
0000EC54  0000              add [eax],al
0000EC56  0000              add [eax],al
0000EC58  0000              add [eax],al
0000EC5A  0000              add [eax],al
0000EC5C  0000              add [eax],al
0000EC5E  0000              add [eax],al
0000EC60  0000              add [eax],al
0000EC62  0000              add [eax],al
0000EC64  0000              add [eax],al
0000EC66  0000              add [eax],al
0000EC68  0000              add [eax],al
0000EC6A  0000              add [eax],al
0000EC6C  0000              add [eax],al
0000EC6E  0000              add [eax],al
0000EC70  0000              add [eax],al
0000EC72  0000              add [eax],al
0000EC74  0000              add [eax],al
0000EC76  0000              add [eax],al
0000EC78  0000              add [eax],al
0000EC7A  0000              add [eax],al
0000EC7C  0000              add [eax],al
0000EC7E  0000              add [eax],al
0000EC80  0000              add [eax],al
0000EC82  0000              add [eax],al
0000EC84  0000              add [eax],al
0000EC86  0000              add [eax],al
0000EC88  0000              add [eax],al
0000EC8A  0000              add [eax],al
0000EC8C  0000              add [eax],al
0000EC8E  0000              add [eax],al
0000EC90  0000              add [eax],al
0000EC92  0000              add [eax],al
0000EC94  0000              add [eax],al
0000EC96  0000              add [eax],al
0000EC98  0000              add [eax],al
0000EC9A  0000              add [eax],al
0000EC9C  0000              add [eax],al
0000EC9E  0000              add [eax],al
0000ECA0  0000              add [eax],al
0000ECA2  0000              add [eax],al
0000ECA4  0000              add [eax],al
0000ECA6  0000              add [eax],al
0000ECA8  0000              add [eax],al
0000ECAA  0000              add [eax],al
0000ECAC  0000              add [eax],al
0000ECAE  0000              add [eax],al
0000ECB0  0000              add [eax],al
0000ECB2  0000              add [eax],al
0000ECB4  0000              add [eax],al
0000ECB6  0000              add [eax],al
0000ECB8  0000              add [eax],al
0000ECBA  0000              add [eax],al
0000ECBC  0000              add [eax],al
0000ECBE  0000              add [eax],al
0000ECC0  0000              add [eax],al
0000ECC2  0000              add [eax],al
0000ECC4  0000              add [eax],al
0000ECC6  0000              add [eax],al
0000ECC8  0000              add [eax],al
0000ECCA  0000              add [eax],al
0000ECCC  0000              add [eax],al
0000ECCE  0000              add [eax],al
0000ECD0  0000              add [eax],al
0000ECD2  0000              add [eax],al
0000ECD4  0000              add [eax],al
0000ECD6  0000              add [eax],al
0000ECD8  0000              add [eax],al
0000ECDA  0000              add [eax],al
0000ECDC  0000              add [eax],al
0000ECDE  0000              add [eax],al
0000ECE0  0000              add [eax],al
0000ECE2  0000              add [eax],al
0000ECE4  0000              add [eax],al
0000ECE6  0000              add [eax],al
0000ECE8  0000              add [eax],al
0000ECEA  0000              add [eax],al
0000ECEC  0000              add [eax],al
0000ECEE  0000              add [eax],al
0000ECF0  0000              add [eax],al
0000ECF2  0000              add [eax],al
0000ECF4  0000              add [eax],al
0000ECF6  0000              add [eax],al
0000ECF8  0000              add [eax],al
0000ECFA  0000              add [eax],al
0000ECFC  0000              add [eax],al
0000ECFE  0000              add [eax],al
0000ED00  0000              add [eax],al
0000ED02  0000              add [eax],al
0000ED04  0000              add [eax],al
0000ED06  0000              add [eax],al
0000ED08  0000              add [eax],al
0000ED0A  0000              add [eax],al
0000ED0C  0000              add [eax],al
0000ED0E  0000              add [eax],al
0000ED10  0000              add [eax],al
0000ED12  0000              add [eax],al
0000ED14  0000              add [eax],al
0000ED16  0000              add [eax],al
0000ED18  0000              add [eax],al
0000ED1A  0000              add [eax],al
0000ED1C  0000              add [eax],al
0000ED1E  0000              add [eax],al
0000ED20  0000              add [eax],al
0000ED22  0000              add [eax],al
0000ED24  0000              add [eax],al
0000ED26  0000              add [eax],al
0000ED28  0000              add [eax],al
0000ED2A  0000              add [eax],al
0000ED2C  0000              add [eax],al
0000ED2E  0000              add [eax],al
0000ED30  0000              add [eax],al
0000ED32  0000              add [eax],al
0000ED34  0000              add [eax],al
0000ED36  0000              add [eax],al
0000ED38  0000              add [eax],al
0000ED3A  0000              add [eax],al
0000ED3C  0000              add [eax],al
0000ED3E  0000              add [eax],al
0000ED40  0000              add [eax],al
0000ED42  0000              add [eax],al
0000ED44  0000              add [eax],al
0000ED46  0000              add [eax],al
0000ED48  0000              add [eax],al
0000ED4A  0000              add [eax],al
0000ED4C  0000              add [eax],al
0000ED4E  0000              add [eax],al
0000ED50  0000              add [eax],al
0000ED52  0000              add [eax],al
0000ED54  0000              add [eax],al
0000ED56  0000              add [eax],al
0000ED58  0000              add [eax],al
0000ED5A  0000              add [eax],al
0000ED5C  0000              add [eax],al
0000ED5E  0000              add [eax],al
0000ED60  0000              add [eax],al
0000ED62  0000              add [eax],al
0000ED64  0000              add [eax],al
0000ED66  0000              add [eax],al
0000ED68  0000              add [eax],al
0000ED6A  0000              add [eax],al
0000ED6C  0000              add [eax],al
0000ED6E  0000              add [eax],al
0000ED70  0000              add [eax],al
0000ED72  0000              add [eax],al
0000ED74  0000              add [eax],al
0000ED76  0000              add [eax],al
0000ED78  0000              add [eax],al
0000ED7A  0000              add [eax],al
0000ED7C  0000              add [eax],al
0000ED7E  0000              add [eax],al
0000ED80  0000              add [eax],al
0000ED82  0000              add [eax],al
0000ED84  0000              add [eax],al
0000ED86  0000              add [eax],al
0000ED88  0000              add [eax],al
0000ED8A  0000              add [eax],al
0000ED8C  0000              add [eax],al
0000ED8E  0000              add [eax],al
0000ED90  0000              add [eax],al
0000ED92  0000              add [eax],al
0000ED94  0000              add [eax],al
0000ED96  0000              add [eax],al
0000ED98  0000              add [eax],al
0000ED9A  0000              add [eax],al
0000ED9C  0000              add [eax],al
0000ED9E  0000              add [eax],al
0000EDA0  0000              add [eax],al
0000EDA2  0000              add [eax],al
0000EDA4  0000              add [eax],al
0000EDA6  0000              add [eax],al
0000EDA8  0000              add [eax],al
0000EDAA  0000              add [eax],al
0000EDAC  0000              add [eax],al
0000EDAE  0000              add [eax],al
0000EDB0  0000              add [eax],al
0000EDB2  0000              add [eax],al
0000EDB4  0000              add [eax],al
0000EDB6  0000              add [eax],al
0000EDB8  0000              add [eax],al
0000EDBA  0000              add [eax],al
0000EDBC  0000              add [eax],al
0000EDBE  0000              add [eax],al
0000EDC0  0000              add [eax],al
0000EDC2  0000              add [eax],al
0000EDC4  0000              add [eax],al
0000EDC6  0000              add [eax],al
0000EDC8  0000              add [eax],al
0000EDCA  0000              add [eax],al
0000EDCC  0000              add [eax],al
0000EDCE  0000              add [eax],al
0000EDD0  0000              add [eax],al
0000EDD2  0000              add [eax],al
0000EDD4  0000              add [eax],al
0000EDD6  0000              add [eax],al
0000EDD8  0000              add [eax],al
0000EDDA  0000              add [eax],al
0000EDDC  0000              add [eax],al
0000EDDE  0000              add [eax],al
0000EDE0  0000              add [eax],al
0000EDE2  0000              add [eax],al
0000EDE4  0000              add [eax],al
0000EDE6  0000              add [eax],al
0000EDE8  0000              add [eax],al
0000EDEA  0000              add [eax],al
0000EDEC  0000              add [eax],al
0000EDEE  0000              add [eax],al
0000EDF0  0000              add [eax],al
0000EDF2  0000              add [eax],al
0000EDF4  0000              add [eax],al
0000EDF6  0000              add [eax],al
0000EDF8  0000              add [eax],al
0000EDFA  0000              add [eax],al
0000EDFC  0000              add [eax],al
0000EDFE  0000              add [eax],al
0000EE00  0000              add [eax],al
0000EE02  0000              add [eax],al
0000EE04  0000              add [eax],al
0000EE06  0000              add [eax],al
0000EE08  0000              add [eax],al
0000EE0A  0000              add [eax],al
0000EE0C  0000              add [eax],al
0000EE0E  0000              add [eax],al
0000EE10  0000              add [eax],al
0000EE12  0000              add [eax],al
0000EE14  0000              add [eax],al
0000EE16  0000              add [eax],al
0000EE18  0000              add [eax],al
0000EE1A  0000              add [eax],al
0000EE1C  0000              add [eax],al
0000EE1E  0000              add [eax],al
0000EE20  0000              add [eax],al
0000EE22  0000              add [eax],al
0000EE24  0000              add [eax],al
0000EE26  0000              add [eax],al
0000EE28  0000              add [eax],al
0000EE2A  0000              add [eax],al
0000EE2C  0000              add [eax],al
0000EE2E  0000              add [eax],al
0000EE30  0000              add [eax],al
0000EE32  0000              add [eax],al
0000EE34  0000              add [eax],al
0000EE36  0000              add [eax],al
0000EE38  0000              add [eax],al
0000EE3A  0000              add [eax],al
0000EE3C  0000              add [eax],al
0000EE3E  0000              add [eax],al
0000EE40  0000              add [eax],al
0000EE42  0000              add [eax],al
0000EE44  0000              add [eax],al
0000EE46  0000              add [eax],al
0000EE48  0000              add [eax],al
0000EE4A  0000              add [eax],al
0000EE4C  0000              add [eax],al
0000EE4E  0000              add [eax],al
0000EE50  0000              add [eax],al
0000EE52  0000              add [eax],al
0000EE54  0000              add [eax],al
0000EE56  0000              add [eax],al
0000EE58  0000              add [eax],al
0000EE5A  0000              add [eax],al
0000EE5C  0000              add [eax],al
0000EE5E  0000              add [eax],al
0000EE60  0000              add [eax],al
0000EE62  0000              add [eax],al
0000EE64  0000              add [eax],al
0000EE66  0000              add [eax],al
0000EE68  0000              add [eax],al
0000EE6A  0000              add [eax],al
0000EE6C  0000              add [eax],al
0000EE6E  0000              add [eax],al
0000EE70  0000              add [eax],al
0000EE72  0000              add [eax],al
0000EE74  0000              add [eax],al
0000EE76  0000              add [eax],al
0000EE78  0000              add [eax],al
0000EE7A  0000              add [eax],al
0000EE7C  0000              add [eax],al
0000EE7E  0000              add [eax],al
0000EE80  0000              add [eax],al
0000EE82  0000              add [eax],al
0000EE84  0000              add [eax],al
0000EE86  0000              add [eax],al
0000EE88  0000              add [eax],al
0000EE8A  0000              add [eax],al
0000EE8C  0000              add [eax],al
0000EE8E  0000              add [eax],al
0000EE90  0000              add [eax],al
0000EE92  0000              add [eax],al
0000EE94  0000              add [eax],al
0000EE96  0000              add [eax],al
0000EE98  0000              add [eax],al
0000EE9A  0000              add [eax],al
0000EE9C  0000              add [eax],al
0000EE9E  0000              add [eax],al
0000EEA0  0000              add [eax],al
0000EEA2  0000              add [eax],al
0000EEA4  0000              add [eax],al
0000EEA6  0000              add [eax],al
0000EEA8  0000              add [eax],al
0000EEAA  0000              add [eax],al
0000EEAC  0000              add [eax],al
0000EEAE  0000              add [eax],al
0000EEB0  0000              add [eax],al
0000EEB2  0000              add [eax],al
0000EEB4  0000              add [eax],al
0000EEB6  0000              add [eax],al
0000EEB8  0000              add [eax],al
0000EEBA  0000              add [eax],al
0000EEBC  0000              add [eax],al
0000EEBE  0000              add [eax],al
0000EEC0  0000              add [eax],al
0000EEC2  0000              add [eax],al
0000EEC4  0000              add [eax],al
0000EEC6  0000              add [eax],al
0000EEC8  0000              add [eax],al
0000EECA  0000              add [eax],al
0000EECC  0000              add [eax],al
0000EECE  0000              add [eax],al
0000EED0  0000              add [eax],al
0000EED2  0000              add [eax],al
0000EED4  0000              add [eax],al
0000EED6  0000              add [eax],al
0000EED8  0000              add [eax],al
0000EEDA  0000              add [eax],al
0000EEDC  0000              add [eax],al
0000EEDE  0000              add [eax],al
0000EEE0  0000              add [eax],al
0000EEE2  0000              add [eax],al
0000EEE4  0000              add [eax],al
0000EEE6  0000              add [eax],al
0000EEE8  0000              add [eax],al
0000EEEA  0000              add [eax],al
0000EEEC  0000              add [eax],al
0000EEEE  0000              add [eax],al
0000EEF0  0000              add [eax],al
0000EEF2  0000              add [eax],al
0000EEF4  0000              add [eax],al
0000EEF6  0000              add [eax],al
0000EEF8  0000              add [eax],al
0000EEFA  0000              add [eax],al
0000EEFC  0000              add [eax],al
0000EEFE  0000              add [eax],al
0000EF00  0000              add [eax],al
0000EF02  0000              add [eax],al
0000EF04  0000              add [eax],al
0000EF06  0000              add [eax],al
0000EF08  0000              add [eax],al
0000EF0A  0000              add [eax],al
0000EF0C  0000              add [eax],al
0000EF0E  0000              add [eax],al
0000EF10  0000              add [eax],al
0000EF12  0000              add [eax],al
0000EF14  0000              add [eax],al
0000EF16  0000              add [eax],al
0000EF18  0000              add [eax],al
0000EF1A  0000              add [eax],al
0000EF1C  0000              add [eax],al
0000EF1E  0000              add [eax],al
0000EF20  0000              add [eax],al
0000EF22  0000              add [eax],al
0000EF24  0000              add [eax],al
0000EF26  0000              add [eax],al
0000EF28  0000              add [eax],al
0000EF2A  0000              add [eax],al
0000EF2C  0000              add [eax],al
0000EF2E  0000              add [eax],al
0000EF30  0000              add [eax],al
0000EF32  0000              add [eax],al
0000EF34  0000              add [eax],al
0000EF36  0000              add [eax],al
0000EF38  0000              add [eax],al
0000EF3A  0000              add [eax],al
0000EF3C  0000              add [eax],al
0000EF3E  0000              add [eax],al
0000EF40  0000              add [eax],al
0000EF42  0000              add [eax],al
0000EF44  0000              add [eax],al
0000EF46  0000              add [eax],al
0000EF48  0000              add [eax],al
0000EF4A  0000              add [eax],al
0000EF4C  0000              add [eax],al
0000EF4E  0000              add [eax],al
0000EF50  0000              add [eax],al
0000EF52  0000              add [eax],al
0000EF54  0000              add [eax],al
0000EF56  0000              add [eax],al
0000EF58  0000              add [eax],al
0000EF5A  0000              add [eax],al
0000EF5C  0000              add [eax],al
0000EF5E  0000              add [eax],al
0000EF60  0000              add [eax],al
0000EF62  0000              add [eax],al
0000EF64  0000              add [eax],al
0000EF66  0000              add [eax],al
0000EF68  0000              add [eax],al
0000EF6A  0000              add [eax],al
0000EF6C  0000              add [eax],al
0000EF6E  0000              add [eax],al
0000EF70  0000              add [eax],al
0000EF72  0000              add [eax],al
0000EF74  0000              add [eax],al
0000EF76  0000              add [eax],al
0000EF78  0000              add [eax],al
0000EF7A  0000              add [eax],al
0000EF7C  0000              add [eax],al
0000EF7E  0000              add [eax],al
0000EF80  0000              add [eax],al
0000EF82  0000              add [eax],al
0000EF84  0000              add [eax],al
0000EF86  0000              add [eax],al
0000EF88  0000              add [eax],al
0000EF8A  0000              add [eax],al
0000EF8C  0000              add [eax],al
0000EF8E  0000              add [eax],al
0000EF90  0000              add [eax],al
0000EF92  0000              add [eax],al
0000EF94  0000              add [eax],al
0000EF96  0000              add [eax],al
0000EF98  0000              add [eax],al
0000EF9A  0000              add [eax],al
0000EF9C  0000              add [eax],al
0000EF9E  0000              add [eax],al
0000EFA0  0000              add [eax],al
0000EFA2  0000              add [eax],al
0000EFA4  0000              add [eax],al
0000EFA6  0000              add [eax],al
0000EFA8  0000              add [eax],al
0000EFAA  0000              add [eax],al
0000EFAC  0000              add [eax],al
0000EFAE  0000              add [eax],al
0000EFB0  0000              add [eax],al
0000EFB2  0000              add [eax],al
0000EFB4  0000              add [eax],al
0000EFB6  0000              add [eax],al
0000EFB8  0000              add [eax],al
0000EFBA  0000              add [eax],al
0000EFBC  0000              add [eax],al
0000EFBE  0000              add [eax],al
0000EFC0  0000              add [eax],al
0000EFC2  0000              add [eax],al
0000EFC4  0000              add [eax],al
0000EFC6  0000              add [eax],al
0000EFC8  0000              add [eax],al
0000EFCA  0000              add [eax],al
0000EFCC  0000              add [eax],al
0000EFCE  0000              add [eax],al
0000EFD0  0000              add [eax],al
0000EFD2  0000              add [eax],al
0000EFD4  0000              add [eax],al
0000EFD6  0000              add [eax],al
0000EFD8  0000              add [eax],al
0000EFDA  0000              add [eax],al
0000EFDC  0000              add [eax],al
0000EFDE  0000              add [eax],al
0000EFE0  0000              add [eax],al
0000EFE2  0000              add [eax],al
0000EFE4  0000              add [eax],al
0000EFE6  0000              add [eax],al
0000EFE8  0000              add [eax],al
0000EFEA  0000              add [eax],al
0000EFEC  0000              add [eax],al
0000EFEE  0000              add [eax],al
0000EFF0  0000              add [eax],al
0000EFF2  0000              add [eax],al
0000EFF4  0000              add [eax],al
0000EFF6  0000              add [eax],al
0000EFF8  0000              add [eax],al
0000EFFA  0000              add [eax],al
0000EFFC  0000              add [eax],al
0000EFFE  0000              add [eax],al
0000F000  0000              add [eax],al
0000F002  0000              add [eax],al
0000F004  0000              add [eax],al
0000F006  0000              add [eax],al
0000F008  0000              add [eax],al
0000F00A  0000              add [eax],al
0000F00C  0000              add [eax],al
0000F00E  0000              add [eax],al
0000F010  0000              add [eax],al
0000F012  0000              add [eax],al
0000F014  0000              add [eax],al
0000F016  0000              add [eax],al
0000F018  0000              add [eax],al
0000F01A  0000              add [eax],al
0000F01C  0000              add [eax],al
0000F01E  0000              add [eax],al
0000F020  0000              add [eax],al
0000F022  0000              add [eax],al
0000F024  0000              add [eax],al
0000F026  0000              add [eax],al
0000F028  0000              add [eax],al
0000F02A  0000              add [eax],al
0000F02C  0000              add [eax],al
0000F02E  0000              add [eax],al
0000F030  0000              add [eax],al
0000F032  0000              add [eax],al
0000F034  0000              add [eax],al
0000F036  0000              add [eax],al
0000F038  0000              add [eax],al
0000F03A  0000              add [eax],al
0000F03C  0000              add [eax],al
0000F03E  0000              add [eax],al
0000F040  0000              add [eax],al
0000F042  0000              add [eax],al
0000F044  0000              add [eax],al
0000F046  0000              add [eax],al
0000F048  0000              add [eax],al
0000F04A  0000              add [eax],al
0000F04C  0000              add [eax],al
0000F04E  0000              add [eax],al
0000F050  0000              add [eax],al
0000F052  0000              add [eax],al
0000F054  0000              add [eax],al
0000F056  0000              add [eax],al
0000F058  0000              add [eax],al
0000F05A  0000              add [eax],al
0000F05C  0000              add [eax],al
0000F05E  0000              add [eax],al
0000F060  0000              add [eax],al
0000F062  0000              add [eax],al
0000F064  0000              add [eax],al
0000F066  0000              add [eax],al
0000F068  0000              add [eax],al
0000F06A  0000              add [eax],al
0000F06C  0000              add [eax],al
0000F06E  0000              add [eax],al
0000F070  0000              add [eax],al
0000F072  0000              add [eax],al
0000F074  0000              add [eax],al
0000F076  0000              add [eax],al
0000F078  0000              add [eax],al
0000F07A  0000              add [eax],al
0000F07C  0000              add [eax],al
0000F07E  0000              add [eax],al
0000F080  0000              add [eax],al
0000F082  0000              add [eax],al
0000F084  0000              add [eax],al
0000F086  0000              add [eax],al
0000F088  0000              add [eax],al
0000F08A  0000              add [eax],al
0000F08C  0000              add [eax],al
0000F08E  0000              add [eax],al
0000F090  0000              add [eax],al
0000F092  0000              add [eax],al
0000F094  0000              add [eax],al
0000F096  0000              add [eax],al
0000F098  0000              add [eax],al
0000F09A  0000              add [eax],al
0000F09C  0000              add [eax],al
0000F09E  0000              add [eax],al
0000F0A0  0000              add [eax],al
0000F0A2  0000              add [eax],al
0000F0A4  0000              add [eax],al
0000F0A6  0000              add [eax],al
0000F0A8  0000              add [eax],al
0000F0AA  0000              add [eax],al
0000F0AC  0000              add [eax],al
0000F0AE  0000              add [eax],al
0000F0B0  0000              add [eax],al
0000F0B2  0000              add [eax],al
0000F0B4  0000              add [eax],al
0000F0B6  0000              add [eax],al
0000F0B8  0000              add [eax],al
0000F0BA  0000              add [eax],al
0000F0BC  0000              add [eax],al
0000F0BE  0000              add [eax],al
0000F0C0  0000              add [eax],al
0000F0C2  0000              add [eax],al
0000F0C4  0000              add [eax],al
0000F0C6  0000              add [eax],al
0000F0C8  0000              add [eax],al
0000F0CA  0000              add [eax],al
0000F0CC  0000              add [eax],al
0000F0CE  0000              add [eax],al
0000F0D0  0000              add [eax],al
0000F0D2  0000              add [eax],al
0000F0D4  0000              add [eax],al
0000F0D6  0000              add [eax],al
0000F0D8  0000              add [eax],al
0000F0DA  0000              add [eax],al
0000F0DC  0000              add [eax],al
0000F0DE  0000              add [eax],al
0000F0E0  0000              add [eax],al
0000F0E2  0000              add [eax],al
0000F0E4  0000              add [eax],al
0000F0E6  0000              add [eax],al
0000F0E8  0000              add [eax],al
0000F0EA  0000              add [eax],al
0000F0EC  0000              add [eax],al
0000F0EE  0000              add [eax],al
0000F0F0  0000              add [eax],al
0000F0F2  0000              add [eax],al
0000F0F4  0000              add [eax],al
0000F0F6  0000              add [eax],al
0000F0F8  0000              add [eax],al
0000F0FA  0000              add [eax],al
0000F0FC  0000              add [eax],al
0000F0FE  0000              add [eax],al
0000F100  0000              add [eax],al
0000F102  0000              add [eax],al
0000F104  0000              add [eax],al
0000F106  0000              add [eax],al
0000F108  0000              add [eax],al
0000F10A  0000              add [eax],al
0000F10C  0000              add [eax],al
0000F10E  0000              add [eax],al
0000F110  0000              add [eax],al
0000F112  0000              add [eax],al
0000F114  0000              add [eax],al
0000F116  0000              add [eax],al
0000F118  0000              add [eax],al
0000F11A  0000              add [eax],al
0000F11C  0000              add [eax],al
0000F11E  0000              add [eax],al
0000F120  0000              add [eax],al
0000F122  0000              add [eax],al
0000F124  0000              add [eax],al
0000F126  0000              add [eax],al
0000F128  0000              add [eax],al
0000F12A  0000              add [eax],al
0000F12C  0000              add [eax],al
0000F12E  0000              add [eax],al
0000F130  0000              add [eax],al
0000F132  0000              add [eax],al
0000F134  0000              add [eax],al
0000F136  0000              add [eax],al
0000F138  0000              add [eax],al
0000F13A  0000              add [eax],al
0000F13C  0000              add [eax],al
0000F13E  0000              add [eax],al
0000F140  0000              add [eax],al
0000F142  0000              add [eax],al
0000F144  0000              add [eax],al
0000F146  0000              add [eax],al
0000F148  0000              add [eax],al
0000F14A  0000              add [eax],al
0000F14C  0000              add [eax],al
0000F14E  0000              add [eax],al
0000F150  0000              add [eax],al
0000F152  0000              add [eax],al
0000F154  0000              add [eax],al
0000F156  0000              add [eax],al
0000F158  0000              add [eax],al
0000F15A  0000              add [eax],al
0000F15C  0000              add [eax],al
0000F15E  0000              add [eax],al
0000F160  0000              add [eax],al
0000F162  0000              add [eax],al
0000F164  0000              add [eax],al
0000F166  0000              add [eax],al
0000F168  0000              add [eax],al
0000F16A  0000              add [eax],al
0000F16C  0000              add [eax],al
0000F16E  0000              add [eax],al
0000F170  0000              add [eax],al
0000F172  0000              add [eax],al
0000F174  0000              add [eax],al
0000F176  0000              add [eax],al
0000F178  0000              add [eax],al
0000F17A  0000              add [eax],al
0000F17C  0000              add [eax],al
0000F17E  0000              add [eax],al
0000F180  0000              add [eax],al
0000F182  0000              add [eax],al
0000F184  0000              add [eax],al
0000F186  0000              add [eax],al
0000F188  0000              add [eax],al
0000F18A  0000              add [eax],al
0000F18C  0000              add [eax],al
0000F18E  0000              add [eax],al
0000F190  0000              add [eax],al
0000F192  0000              add [eax],al
0000F194  0000              add [eax],al
0000F196  0000              add [eax],al
0000F198  0000              add [eax],al
0000F19A  0000              add [eax],al
0000F19C  0000              add [eax],al
0000F19E  0000              add [eax],al
0000F1A0  0000              add [eax],al
0000F1A2  0000              add [eax],al
0000F1A4  0000              add [eax],al
0000F1A6  0000              add [eax],al
0000F1A8  0000              add [eax],al
0000F1AA  0000              add [eax],al
0000F1AC  0000              add [eax],al
0000F1AE  0000              add [eax],al
0000F1B0  0000              add [eax],al
0000F1B2  0000              add [eax],al
0000F1B4  0000              add [eax],al
0000F1B6  0000              add [eax],al
0000F1B8  0000              add [eax],al
0000F1BA  0000              add [eax],al
0000F1BC  0000              add [eax],al
0000F1BE  0000              add [eax],al
0000F1C0  0000              add [eax],al
0000F1C2  0000              add [eax],al
0000F1C4  0000              add [eax],al
0000F1C6  0000              add [eax],al
0000F1C8  0000              add [eax],al
0000F1CA  0000              add [eax],al
0000F1CC  0000              add [eax],al
0000F1CE  0000              add [eax],al
0000F1D0  0000              add [eax],al
0000F1D2  0000              add [eax],al
0000F1D4  0000              add [eax],al
0000F1D6  0000              add [eax],al
0000F1D8  0000              add [eax],al
0000F1DA  0000              add [eax],al
0000F1DC  0000              add [eax],al
0000F1DE  0000              add [eax],al
0000F1E0  000500002500      add [dword 0x250000],al
0000F1E6  0000              add [eax],al
0000F1E8  B004              mov al,0x4
0000F1EA  0000              add [eax],al
0000F1EC  2B0A              sub ecx,[edx]
0000F1EE  0000              add [eax],al
0000F1F0  031C7F            add ebx,[edi+edi*2]
0000F1F3  15040001FF        adc eax,0xff010004
0000F1F8  1113              adc [ebx],edx
0000F1FA  1AFF              sbb bh,bh
0000F1FC  120F              adc cl,[edi]
0000F1FE  17                pop ss
0000F1FF  16                push ss
0000F200  FF00              inc dword [eax]
0000F202  0000              add [eax],al
0000F204  0200              add al,[eax]
0000F206  0000              add [eax],al
